   1              		.syntax unified
   2              		.cpu cortex-m3
   3              		.fpu softvfp
   4              		.eabi_attribute 20, 1
   5              		.eabi_attribute 21, 1
   6              		.eabi_attribute 23, 3
   7              		.eabi_attribute 24, 1
   8              		.eabi_attribute 25, 1
   9              		.eabi_attribute 26, 1
  10              		.eabi_attribute 30, 4
  11              		.eabi_attribute 18, 4
  12              		.thumb
  13              		.file	"stm32f10x_it.c"
  21              	.Ltext0:
  22              		.cfi_sections	.debug_frame
  23              		.section	.text.NMI_Handler,"ax",%progbits
  24              		.align	1
  25              		.global	NMI_Handler
  26              		.thumb
  27              		.thumb_func
  29              	NMI_Handler:
  30              	.LFB29:
  31              		.file 1 "src/stm32f10x_it.c"
   1:src/stm32f10x_it.c **** /**
   2:src/stm32f10x_it.c ****   ******************************************************************************
   3:src/stm32f10x_it.c ****   * @file    Project/STM32F10x_StdPeriph_Template/stm32f10x_it.c 
   4:src/stm32f10x_it.c ****   * @author  MCD Application Team
   5:src/stm32f10x_it.c ****   * @version V3.3.0
   6:src/stm32f10x_it.c ****   * @date    04/16/2010
   7:src/stm32f10x_it.c ****   * @brief   Main Interrupt Service Routines.
   8:src/stm32f10x_it.c ****   *          This file provides template for all exceptions handler and 
   9:src/stm32f10x_it.c ****   *          peripherals interrupt service routine.
  10:src/stm32f10x_it.c ****   ******************************************************************************
  11:src/stm32f10x_it.c ****   * @copy
  12:src/stm32f10x_it.c ****   *
  13:src/stm32f10x_it.c ****   * THE PRESENT FIRMWARE WHICH IS FOR GUIDANCE ONLY AIMS AT PROVIDING CUSTOMERS
  14:src/stm32f10x_it.c ****   * WITH CODING INFORMATION REGARDING THEIR PRODUCTS IN ORDER FOR THEM TO SAVE
  15:src/stm32f10x_it.c ****   * TIME. AS A RESULT, STMICROELECTRONICS SHALL NOT BE HELD LIABLE FOR ANY
  16:src/stm32f10x_it.c ****   * DIRECT, INDIRECT OR CONSEQUENTIAL DAMAGES WITH RESPECT TO ANY CLAIMS ARISING
  17:src/stm32f10x_it.c ****   * FROM THE CONTENT OF SUCH FIRMWARE AND/OR THE USE MADE BY CUSTOMERS OF THE
  18:src/stm32f10x_it.c ****   * CODING INFORMATION CONTAINED HEREIN IN CONNECTION WITH THEIR PRODUCTS.
  19:src/stm32f10x_it.c ****   *
  20:src/stm32f10x_it.c ****   * <h2><center>&copy; COPYRIGHT 2010 STMicroelectronics</center></h2>
  21:src/stm32f10x_it.c ****   */ 
  22:src/stm32f10x_it.c **** 
  23:src/stm32f10x_it.c **** /** @addtogroup Driver
  24:src/stm32f10x_it.c ****   * @{
  25:src/stm32f10x_it.c ****   * @addtogroup Interrupt Handlers
  26:src/stm32f10x_it.c ****   * @{
  27:src/stm32f10x_it.c ****   */
  28:src/stm32f10x_it.c **** 
  29:src/stm32f10x_it.c **** /* Includes ------------------------------------------------------------------*/
  30:src/stm32f10x_it.c **** #include "stm32f10x_it.h"
  31:src/stm32f10x_it.c **** 
  32:src/stm32f10x_it.c **** /******************************************************************************/
  33:src/stm32f10x_it.c **** /*            Cortex-M3 Processor Exceptions Handlers                         */
  34:src/stm32f10x_it.c **** /******************************************************************************/
  35:src/stm32f10x_it.c **** 
  36:src/stm32f10x_it.c **** /**
  37:src/stm32f10x_it.c ****   * @brief   This function handles NMI exception.
  38:src/stm32f10x_it.c ****   * @param  None
  39:src/stm32f10x_it.c ****   * @retval None
  40:src/stm32f10x_it.c ****   */
  41:src/stm32f10x_it.c **** void NMI_Handler(void)
  42:src/stm32f10x_it.c **** {
  32              		.loc 1 42 0
  33              		.cfi_startproc
  34              		@ args = 0, pretend = 0, frame = 0
  35              		@ frame_needed = 0, uses_anonymous_args = 0
  36              		@ link register save eliminated.
  43:src/stm32f10x_it.c **** }
  37              		.loc 1 43 0
  38 0000 7047     		bx	lr
  39              		.cfi_endproc
  40              	.LFE29:
  42              		.section	.text.HardFault_Handler,"ax",%progbits
  43              		.align	1
  44              		.global	HardFault_Handler
  45              		.thumb
  46              		.thumb_func
  48              	HardFault_Handler:
  49              	.LFB30:
  44:src/stm32f10x_it.c **** 
  45:src/stm32f10x_it.c **** /**
  46:src/stm32f10x_it.c ****   * @brief  This function handles Hard Fault exception.
  47:src/stm32f10x_it.c ****   * @param  None
  48:src/stm32f10x_it.c ****   * @retval None
  49:src/stm32f10x_it.c ****   */
  50:src/stm32f10x_it.c **** void HardFault_Handler(void)
  51:src/stm32f10x_it.c **** {
  50              		.loc 1 51 0
  51              		.cfi_startproc
  52              		@ args = 0, pretend = 0, frame = 0
  53              		@ frame_needed = 0, uses_anonymous_args = 0
  54              		@ link register save eliminated.
  55              	.L3:
  56 0000 FEE7     		b	.L3
  57              		.cfi_endproc
  58              	.LFE30:
  60              		.section	.text.MemManage_Handler,"ax",%progbits
  61              		.align	1
  62              		.global	MemManage_Handler
  63              		.thumb
  64              		.thumb_func
  66              	MemManage_Handler:
  67              	.LFB31:
  52:src/stm32f10x_it.c ****   /* Go to infinite loop when Hard Fault exception occurs */
  53:src/stm32f10x_it.c ****   while (1)
  54:src/stm32f10x_it.c ****   {
  55:src/stm32f10x_it.c ****   }
  56:src/stm32f10x_it.c **** }
  57:src/stm32f10x_it.c **** 
  58:src/stm32f10x_it.c **** /**
  59:src/stm32f10x_it.c ****   * @brief  This function handles Memory Manage exception.
  60:src/stm32f10x_it.c ****   * @param  None
  61:src/stm32f10x_it.c ****   * @retval None
  62:src/stm32f10x_it.c ****   */
  63:src/stm32f10x_it.c **** void MemManage_Handler(void)
  64:src/stm32f10x_it.c **** {
  68              		.loc 1 64 0
  69              		.cfi_startproc
  70              		@ args = 0, pretend = 0, frame = 0
  71              		@ frame_needed = 0, uses_anonymous_args = 0
  72              		@ link register save eliminated.
  73              	.L5:
  74 0000 FEE7     		b	.L5
  75              		.cfi_endproc
  76              	.LFE31:
  78              		.section	.text.BusFault_Handler,"ax",%progbits
  79              		.align	1
  80              		.global	BusFault_Handler
  81              		.thumb
  82              		.thumb_func
  84              	BusFault_Handler:
  85              	.LFB32:
  65:src/stm32f10x_it.c ****   /* Go to infinite loop when Memory Manage exception occurs */
  66:src/stm32f10x_it.c ****   while (1)
  67:src/stm32f10x_it.c ****   {
  68:src/stm32f10x_it.c ****   }
  69:src/stm32f10x_it.c **** }
  70:src/stm32f10x_it.c **** 
  71:src/stm32f10x_it.c **** /**
  72:src/stm32f10x_it.c ****   * @brief  This function handles Bus Fault exception.
  73:src/stm32f10x_it.c ****   * @param  None
  74:src/stm32f10x_it.c ****   * @retval None
  75:src/stm32f10x_it.c ****   */
  76:src/stm32f10x_it.c **** void BusFault_Handler(void)
  77:src/stm32f10x_it.c **** {
  86              		.loc 1 77 0
  87              		.cfi_startproc
  88              		@ args = 0, pretend = 0, frame = 0
  89              		@ frame_needed = 0, uses_anonymous_args = 0
  90              		@ link register save eliminated.
  91              	.L7:
  92 0000 FEE7     		b	.L7
  93              		.cfi_endproc
  94              	.LFE32:
  96              		.section	.text.UsageFault_Handler,"ax",%progbits
  97              		.align	1
  98              		.global	UsageFault_Handler
  99              		.thumb
 100              		.thumb_func
 102              	UsageFault_Handler:
 103              	.LFB33:
  78:src/stm32f10x_it.c ****   /* Go to infinite loop when Bus Fault exception occurs */
  79:src/stm32f10x_it.c ****   while (1)
  80:src/stm32f10x_it.c ****   {
  81:src/stm32f10x_it.c ****   }
  82:src/stm32f10x_it.c **** }
  83:src/stm32f10x_it.c **** 
  84:src/stm32f10x_it.c **** /**
  85:src/stm32f10x_it.c ****   * @brief  This function handles Usage Fault exception.
  86:src/stm32f10x_it.c ****   * @param  None
  87:src/stm32f10x_it.c ****   * @retval None
  88:src/stm32f10x_it.c ****   */
  89:src/stm32f10x_it.c **** void UsageFault_Handler(void)
  90:src/stm32f10x_it.c **** {
 104              		.loc 1 90 0
 105              		.cfi_startproc
 106              		@ args = 0, pretend = 0, frame = 0
 107              		@ frame_needed = 0, uses_anonymous_args = 0
 108              		@ link register save eliminated.
 109              	.L9:
 110 0000 FEE7     		b	.L9
 111              		.cfi_endproc
 112              	.LFE33:
 114              		.section	.text.SVC_Handler,"ax",%progbits
 115              		.align	1
 116              		.global	SVC_Handler
 117              		.thumb
 118              		.thumb_func
 120              	SVC_Handler:
 121              	.LFB34:
  91:src/stm32f10x_it.c ****   /* Go to infinite loop when Usage Fault exception occurs */
  92:src/stm32f10x_it.c ****   while (1)
  93:src/stm32f10x_it.c ****   {
  94:src/stm32f10x_it.c ****   }
  95:src/stm32f10x_it.c **** }
  96:src/stm32f10x_it.c **** 
  97:src/stm32f10x_it.c **** /**
  98:src/stm32f10x_it.c ****   * @brief  This function handles SVCall exception.
  99:src/stm32f10x_it.c ****   * @param  None
 100:src/stm32f10x_it.c ****   * @retval None
 101:src/stm32f10x_it.c ****   */
 102:src/stm32f10x_it.c **** void SVC_Handler(void)
 103:src/stm32f10x_it.c **** {
 122              		.loc 1 103 0
 123              		.cfi_startproc
 124              		@ args = 0, pretend = 0, frame = 0
 125              		@ frame_needed = 0, uses_anonymous_args = 0
 126              		@ link register save eliminated.
 104:src/stm32f10x_it.c **** }
 127              		.loc 1 104 0
 128 0000 7047     		bx	lr
 129              		.cfi_endproc
 130              	.LFE34:
 132              		.section	.text.DebugMon_Handler,"ax",%progbits
 133              		.align	1
 134              		.global	DebugMon_Handler
 135              		.thumb
 136              		.thumb_func
 138              	DebugMon_Handler:
 139              	.LFB35:
 105:src/stm32f10x_it.c **** 
 106:src/stm32f10x_it.c **** /**
 107:src/stm32f10x_it.c ****   * @brief  This function handles Debug Monitor exception.
 108:src/stm32f10x_it.c ****   * @param  None
 109:src/stm32f10x_it.c ****   * @retval None
 110:src/stm32f10x_it.c ****   */
 111:src/stm32f10x_it.c **** void DebugMon_Handler(void)
 112:src/stm32f10x_it.c **** {
 140              		.loc 1 112 0
 141              		.cfi_startproc
 142              		@ args = 0, pretend = 0, frame = 0
 143              		@ frame_needed = 0, uses_anonymous_args = 0
 144              		@ link register save eliminated.
 113:src/stm32f10x_it.c **** }
 145              		.loc 1 113 0
 146 0000 7047     		bx	lr
 147              		.cfi_endproc
 148              	.LFE35:
 150              		.section	.text.PendSV_Handler,"ax",%progbits
 151              		.align	1
 152              		.global	PendSV_Handler
 153              		.thumb
 154              		.thumb_func
 156              	PendSV_Handler:
 157              	.LFB36:
 114:src/stm32f10x_it.c **** 
 115:src/stm32f10x_it.c **** /**
 116:src/stm32f10x_it.c ****   * @brief  This function handles PendSVC exception.
 117:src/stm32f10x_it.c ****   * @param  None
 118:src/stm32f10x_it.c ****   * @retval None
 119:src/stm32f10x_it.c ****   */
 120:src/stm32f10x_it.c **** void PendSV_Handler(void)
 121:src/stm32f10x_it.c **** {
 158              		.loc 1 121 0
 159              		.cfi_startproc
 160              		@ args = 0, pretend = 0, frame = 0
 161              		@ frame_needed = 0, uses_anonymous_args = 0
 162              		@ link register save eliminated.
 122:src/stm32f10x_it.c **** }
 163              		.loc 1 122 0
 164 0000 7047     		bx	lr
 165              		.cfi_endproc
 166              	.LFE36:
 168              		.section	.text.SysTick_Handler,"ax",%progbits
 169              		.align	1
 170              		.global	SysTick_Handler
 171              		.thumb
 172              		.thumb_func
 174              	SysTick_Handler:
 175              	.LFB37:
 123:src/stm32f10x_it.c **** 
 124:src/stm32f10x_it.c **** /**
 125:src/stm32f10x_it.c ****   * @brief  This function handles SysTick Handler.
 126:src/stm32f10x_it.c ****   * @param  None
 127:src/stm32f10x_it.c ****   * @retval None
 128:src/stm32f10x_it.c ****   */
 129:src/stm32f10x_it.c **** void SysTick_Handler(void)
 130:src/stm32f10x_it.c **** {
 176              		.loc 1 130 0
 177              		.cfi_startproc
 178              		@ args = 0, pretend = 0, frame = 0
 179              		@ frame_needed = 0, uses_anonymous_args = 0
 180              		@ link register save eliminated.
 131:src/stm32f10x_it.c **** }
 181              		.loc 1 131 0
 182 0000 7047     		bx	lr
 183              		.cfi_endproc
 184              	.LFE37:
 186              		.text
 187              	.Letext0:
 188              		.file 2 "./firmware/STM32F10x_StdPeriph_Lib_V3.3.0/Libraries/CMSIS/CM3/CoreSupport/core_cm3.h"