   1              		.syntax unified
   2              		.cpu cortex-m3
   3              		.fpu softvfp
   4              		.eabi_attribute 20, 1
   5              		.eabi_attribute 21, 1
   6              		.eabi_attribute 23, 3
   7              		.eabi_attribute 24, 1
   8              		.eabi_attribute 25, 1
   9              		.eabi_attribute 26, 1
  10              		.eabi_attribute 30, 4
  11              		.eabi_attribute 18, 4
  12              		.thumb
  13              		.file	"stm32f10x_spi.c"
  21              	.Ltext0:
  22              		.cfi_sections	.debug_frame
  23              		.section	.text.SPI_I2S_DeInit,"ax",%progbits
  24              		.align	1
  25              		.global	SPI_I2S_DeInit
  26              		.thumb
  27              		.thumb_func
  29              	SPI_I2S_DeInit:
  30              	.LFB29:
  31              		.file 1 "firmware/STM32F10x_StdPeriph_Lib_V3.3.0/Libraries/STM32F10x_StdPeriph_Driver/src/stm32f10
   1:firmware/STM32F10x_StdPeriph_Lib_V3.3.0/Libraries/STM32F10x_StdPeriph_Driver/src/stm32f10x_spi.c **** /**
   2:firmware/STM32F10x_StdPeriph_Lib_V3.3.0/Libraries/STM32F10x_StdPeriph_Driver/src/stm32f10x_spi.c ****   ******************************************************************************
   3:firmware/STM32F10x_StdPeriph_Lib_V3.3.0/Libraries/STM32F10x_StdPeriph_Driver/src/stm32f10x_spi.c ****   * @file    stm32f10x_spi.c
   4:firmware/STM32F10x_StdPeriph_Lib_V3.3.0/Libraries/STM32F10x_StdPeriph_Driver/src/stm32f10x_spi.c ****   * @author  MCD Application Team
   5:firmware/STM32F10x_StdPeriph_Lib_V3.3.0/Libraries/STM32F10x_StdPeriph_Driver/src/stm32f10x_spi.c ****   * @version V3.3.0
   6:firmware/STM32F10x_StdPeriph_Lib_V3.3.0/Libraries/STM32F10x_StdPeriph_Driver/src/stm32f10x_spi.c ****   * @date    04/16/2010
   7:firmware/STM32F10x_StdPeriph_Lib_V3.3.0/Libraries/STM32F10x_StdPeriph_Driver/src/stm32f10x_spi.c ****   * @brief   This file provides all the SPI firmware functions.
   8:firmware/STM32F10x_StdPeriph_Lib_V3.3.0/Libraries/STM32F10x_StdPeriph_Driver/src/stm32f10x_spi.c ****   ******************************************************************************
   9:firmware/STM32F10x_StdPeriph_Lib_V3.3.0/Libraries/STM32F10x_StdPeriph_Driver/src/stm32f10x_spi.c ****   * @copy
  10:firmware/STM32F10x_StdPeriph_Lib_V3.3.0/Libraries/STM32F10x_StdPeriph_Driver/src/stm32f10x_spi.c ****   *
  11:firmware/STM32F10x_StdPeriph_Lib_V3.3.0/Libraries/STM32F10x_StdPeriph_Driver/src/stm32f10x_spi.c ****   * THE PRESENT FIRMWARE WHICH IS FOR GUIDANCE ONLY AIMS AT PROVIDING CUSTOMERS
  12:firmware/STM32F10x_StdPeriph_Lib_V3.3.0/Libraries/STM32F10x_StdPeriph_Driver/src/stm32f10x_spi.c ****   * WITH CODING INFORMATION REGARDING THEIR PRODUCTS IN ORDER FOR THEM TO SAVE
  13:firmware/STM32F10x_StdPeriph_Lib_V3.3.0/Libraries/STM32F10x_StdPeriph_Driver/src/stm32f10x_spi.c ****   * TIME. AS A RESULT, STMICROELECTRONICS SHALL NOT BE HELD LIABLE FOR ANY
  14:firmware/STM32F10x_StdPeriph_Lib_V3.3.0/Libraries/STM32F10x_StdPeriph_Driver/src/stm32f10x_spi.c ****   * DIRECT, INDIRECT OR CONSEQUENTIAL DAMAGES WITH RESPECT TO ANY CLAIMS ARISING
  15:firmware/STM32F10x_StdPeriph_Lib_V3.3.0/Libraries/STM32F10x_StdPeriph_Driver/src/stm32f10x_spi.c ****   * FROM THE CONTENT OF SUCH FIRMWARE AND/OR THE USE MADE BY CUSTOMERS OF THE
  16:firmware/STM32F10x_StdPeriph_Lib_V3.3.0/Libraries/STM32F10x_StdPeriph_Driver/src/stm32f10x_spi.c ****   * CODING INFORMATION CONTAINED HEREIN IN CONNECTION WITH THEIR PRODUCTS.
  17:firmware/STM32F10x_StdPeriph_Lib_V3.3.0/Libraries/STM32F10x_StdPeriph_Driver/src/stm32f10x_spi.c ****   *
  18:firmware/STM32F10x_StdPeriph_Lib_V3.3.0/Libraries/STM32F10x_StdPeriph_Driver/src/stm32f10x_spi.c ****   * <h2><center>&copy; COPYRIGHT 2010 STMicroelectronics</center></h2>
  19:firmware/STM32F10x_StdPeriph_Lib_V3.3.0/Libraries/STM32F10x_StdPeriph_Driver/src/stm32f10x_spi.c ****   */ 
  20:firmware/STM32F10x_StdPeriph_Lib_V3.3.0/Libraries/STM32F10x_StdPeriph_Driver/src/stm32f10x_spi.c **** 
  21:firmware/STM32F10x_StdPeriph_Lib_V3.3.0/Libraries/STM32F10x_StdPeriph_Driver/src/stm32f10x_spi.c **** /* Includes ------------------------------------------------------------------*/
  22:firmware/STM32F10x_StdPeriph_Lib_V3.3.0/Libraries/STM32F10x_StdPeriph_Driver/src/stm32f10x_spi.c **** #include "stm32f10x_spi.h"
  23:firmware/STM32F10x_StdPeriph_Lib_V3.3.0/Libraries/STM32F10x_StdPeriph_Driver/src/stm32f10x_spi.c **** #include "stm32f10x_rcc.h"
  24:firmware/STM32F10x_StdPeriph_Lib_V3.3.0/Libraries/STM32F10x_StdPeriph_Driver/src/stm32f10x_spi.c **** 
  25:firmware/STM32F10x_StdPeriph_Lib_V3.3.0/Libraries/STM32F10x_StdPeriph_Driver/src/stm32f10x_spi.c **** /** @addtogroup STM32F10x_StdPeriph_Driver
  26:firmware/STM32F10x_StdPeriph_Lib_V3.3.0/Libraries/STM32F10x_StdPeriph_Driver/src/stm32f10x_spi.c ****   * @{
  27:firmware/STM32F10x_StdPeriph_Lib_V3.3.0/Libraries/STM32F10x_StdPeriph_Driver/src/stm32f10x_spi.c ****   */
  28:firmware/STM32F10x_StdPeriph_Lib_V3.3.0/Libraries/STM32F10x_StdPeriph_Driver/src/stm32f10x_spi.c **** 
  29:firmware/STM32F10x_StdPeriph_Lib_V3.3.0/Libraries/STM32F10x_StdPeriph_Driver/src/stm32f10x_spi.c **** /** @defgroup SPI 
  30:firmware/STM32F10x_StdPeriph_Lib_V3.3.0/Libraries/STM32F10x_StdPeriph_Driver/src/stm32f10x_spi.c ****   * @brief SPI driver modules
  31:firmware/STM32F10x_StdPeriph_Lib_V3.3.0/Libraries/STM32F10x_StdPeriph_Driver/src/stm32f10x_spi.c ****   * @{
  32:firmware/STM32F10x_StdPeriph_Lib_V3.3.0/Libraries/STM32F10x_StdPeriph_Driver/src/stm32f10x_spi.c ****   */ 
  33:firmware/STM32F10x_StdPeriph_Lib_V3.3.0/Libraries/STM32F10x_StdPeriph_Driver/src/stm32f10x_spi.c **** 
  34:firmware/STM32F10x_StdPeriph_Lib_V3.3.0/Libraries/STM32F10x_StdPeriph_Driver/src/stm32f10x_spi.c **** /** @defgroup SPI_Private_TypesDefinitions
  35:firmware/STM32F10x_StdPeriph_Lib_V3.3.0/Libraries/STM32F10x_StdPeriph_Driver/src/stm32f10x_spi.c ****   * @{
  36:firmware/STM32F10x_StdPeriph_Lib_V3.3.0/Libraries/STM32F10x_StdPeriph_Driver/src/stm32f10x_spi.c ****   */
  37:firmware/STM32F10x_StdPeriph_Lib_V3.3.0/Libraries/STM32F10x_StdPeriph_Driver/src/stm32f10x_spi.c **** 
  38:firmware/STM32F10x_StdPeriph_Lib_V3.3.0/Libraries/STM32F10x_StdPeriph_Driver/src/stm32f10x_spi.c **** /**
  39:firmware/STM32F10x_StdPeriph_Lib_V3.3.0/Libraries/STM32F10x_StdPeriph_Driver/src/stm32f10x_spi.c ****   * @}
  40:firmware/STM32F10x_StdPeriph_Lib_V3.3.0/Libraries/STM32F10x_StdPeriph_Driver/src/stm32f10x_spi.c ****   */ 
  41:firmware/STM32F10x_StdPeriph_Lib_V3.3.0/Libraries/STM32F10x_StdPeriph_Driver/src/stm32f10x_spi.c **** 
  42:firmware/STM32F10x_StdPeriph_Lib_V3.3.0/Libraries/STM32F10x_StdPeriph_Driver/src/stm32f10x_spi.c **** 
  43:firmware/STM32F10x_StdPeriph_Lib_V3.3.0/Libraries/STM32F10x_StdPeriph_Driver/src/stm32f10x_spi.c **** /** @defgroup SPI_Private_Defines
  44:firmware/STM32F10x_StdPeriph_Lib_V3.3.0/Libraries/STM32F10x_StdPeriph_Driver/src/stm32f10x_spi.c ****   * @{
  45:firmware/STM32F10x_StdPeriph_Lib_V3.3.0/Libraries/STM32F10x_StdPeriph_Driver/src/stm32f10x_spi.c ****   */
  46:firmware/STM32F10x_StdPeriph_Lib_V3.3.0/Libraries/STM32F10x_StdPeriph_Driver/src/stm32f10x_spi.c **** 
  47:firmware/STM32F10x_StdPeriph_Lib_V3.3.0/Libraries/STM32F10x_StdPeriph_Driver/src/stm32f10x_spi.c **** /* SPI SPE mask */
  48:firmware/STM32F10x_StdPeriph_Lib_V3.3.0/Libraries/STM32F10x_StdPeriph_Driver/src/stm32f10x_spi.c **** #define CR1_SPE_Set          ((uint16_t)0x0040)
  49:firmware/STM32F10x_StdPeriph_Lib_V3.3.0/Libraries/STM32F10x_StdPeriph_Driver/src/stm32f10x_spi.c **** #define CR1_SPE_Reset        ((uint16_t)0xFFBF)
  50:firmware/STM32F10x_StdPeriph_Lib_V3.3.0/Libraries/STM32F10x_StdPeriph_Driver/src/stm32f10x_spi.c **** 
  51:firmware/STM32F10x_StdPeriph_Lib_V3.3.0/Libraries/STM32F10x_StdPeriph_Driver/src/stm32f10x_spi.c **** /* I2S I2SE mask */
  52:firmware/STM32F10x_StdPeriph_Lib_V3.3.0/Libraries/STM32F10x_StdPeriph_Driver/src/stm32f10x_spi.c **** #define I2SCFGR_I2SE_Set     ((uint16_t)0x0400)
  53:firmware/STM32F10x_StdPeriph_Lib_V3.3.0/Libraries/STM32F10x_StdPeriph_Driver/src/stm32f10x_spi.c **** #define I2SCFGR_I2SE_Reset   ((uint16_t)0xFBFF)
  54:firmware/STM32F10x_StdPeriph_Lib_V3.3.0/Libraries/STM32F10x_StdPeriph_Driver/src/stm32f10x_spi.c **** 
  55:firmware/STM32F10x_StdPeriph_Lib_V3.3.0/Libraries/STM32F10x_StdPeriph_Driver/src/stm32f10x_spi.c **** /* SPI CRCNext mask */
  56:firmware/STM32F10x_StdPeriph_Lib_V3.3.0/Libraries/STM32F10x_StdPeriph_Driver/src/stm32f10x_spi.c **** #define CR1_CRCNext_Set      ((uint16_t)0x1000)
  57:firmware/STM32F10x_StdPeriph_Lib_V3.3.0/Libraries/STM32F10x_StdPeriph_Driver/src/stm32f10x_spi.c **** 
  58:firmware/STM32F10x_StdPeriph_Lib_V3.3.0/Libraries/STM32F10x_StdPeriph_Driver/src/stm32f10x_spi.c **** /* SPI CRCEN mask */
  59:firmware/STM32F10x_StdPeriph_Lib_V3.3.0/Libraries/STM32F10x_StdPeriph_Driver/src/stm32f10x_spi.c **** #define CR1_CRCEN_Set        ((uint16_t)0x2000)
  60:firmware/STM32F10x_StdPeriph_Lib_V3.3.0/Libraries/STM32F10x_StdPeriph_Driver/src/stm32f10x_spi.c **** #define CR1_CRCEN_Reset      ((uint16_t)0xDFFF)
  61:firmware/STM32F10x_StdPeriph_Lib_V3.3.0/Libraries/STM32F10x_StdPeriph_Driver/src/stm32f10x_spi.c **** 
  62:firmware/STM32F10x_StdPeriph_Lib_V3.3.0/Libraries/STM32F10x_StdPeriph_Driver/src/stm32f10x_spi.c **** /* SPI SSOE mask */
  63:firmware/STM32F10x_StdPeriph_Lib_V3.3.0/Libraries/STM32F10x_StdPeriph_Driver/src/stm32f10x_spi.c **** #define CR2_SSOE_Set         ((uint16_t)0x0004)
  64:firmware/STM32F10x_StdPeriph_Lib_V3.3.0/Libraries/STM32F10x_StdPeriph_Driver/src/stm32f10x_spi.c **** #define CR2_SSOE_Reset       ((uint16_t)0xFFFB)
  65:firmware/STM32F10x_StdPeriph_Lib_V3.3.0/Libraries/STM32F10x_StdPeriph_Driver/src/stm32f10x_spi.c **** 
  66:firmware/STM32F10x_StdPeriph_Lib_V3.3.0/Libraries/STM32F10x_StdPeriph_Driver/src/stm32f10x_spi.c **** /* SPI registers Masks */
  67:firmware/STM32F10x_StdPeriph_Lib_V3.3.0/Libraries/STM32F10x_StdPeriph_Driver/src/stm32f10x_spi.c **** #define CR1_CLEAR_Mask       ((uint16_t)0x3040)
  68:firmware/STM32F10x_StdPeriph_Lib_V3.3.0/Libraries/STM32F10x_StdPeriph_Driver/src/stm32f10x_spi.c **** #define I2SCFGR_CLEAR_Mask   ((uint16_t)0xF040)
  69:firmware/STM32F10x_StdPeriph_Lib_V3.3.0/Libraries/STM32F10x_StdPeriph_Driver/src/stm32f10x_spi.c **** 
  70:firmware/STM32F10x_StdPeriph_Lib_V3.3.0/Libraries/STM32F10x_StdPeriph_Driver/src/stm32f10x_spi.c **** /* SPI or I2S mode selection masks */
  71:firmware/STM32F10x_StdPeriph_Lib_V3.3.0/Libraries/STM32F10x_StdPeriph_Driver/src/stm32f10x_spi.c **** #define SPI_Mode_Select      ((uint16_t)0xF7FF)
  72:firmware/STM32F10x_StdPeriph_Lib_V3.3.0/Libraries/STM32F10x_StdPeriph_Driver/src/stm32f10x_spi.c **** #define I2S_Mode_Select      ((uint16_t)0x0800) 
  73:firmware/STM32F10x_StdPeriph_Lib_V3.3.0/Libraries/STM32F10x_StdPeriph_Driver/src/stm32f10x_spi.c **** 
  74:firmware/STM32F10x_StdPeriph_Lib_V3.3.0/Libraries/STM32F10x_StdPeriph_Driver/src/stm32f10x_spi.c **** /* I2S clock source selection masks */
  75:firmware/STM32F10x_StdPeriph_Lib_V3.3.0/Libraries/STM32F10x_StdPeriph_Driver/src/stm32f10x_spi.c **** #define I2S2_CLOCK_SRC       ((uint32_t)(0x00020000))
  76:firmware/STM32F10x_StdPeriph_Lib_V3.3.0/Libraries/STM32F10x_StdPeriph_Driver/src/stm32f10x_spi.c **** #define I2S3_CLOCK_SRC       ((uint32_t)(0x00040000))
  77:firmware/STM32F10x_StdPeriph_Lib_V3.3.0/Libraries/STM32F10x_StdPeriph_Driver/src/stm32f10x_spi.c **** #define I2S_MUL_MASK         ((uint32_t)(0x0000F000))
  78:firmware/STM32F10x_StdPeriph_Lib_V3.3.0/Libraries/STM32F10x_StdPeriph_Driver/src/stm32f10x_spi.c **** #define I2S_DIV_MASK         ((uint32_t)(0x000000F0))
  79:firmware/STM32F10x_StdPeriph_Lib_V3.3.0/Libraries/STM32F10x_StdPeriph_Driver/src/stm32f10x_spi.c **** 
  80:firmware/STM32F10x_StdPeriph_Lib_V3.3.0/Libraries/STM32F10x_StdPeriph_Driver/src/stm32f10x_spi.c **** /**
  81:firmware/STM32F10x_StdPeriph_Lib_V3.3.0/Libraries/STM32F10x_StdPeriph_Driver/src/stm32f10x_spi.c ****   * @}
  82:firmware/STM32F10x_StdPeriph_Lib_V3.3.0/Libraries/STM32F10x_StdPeriph_Driver/src/stm32f10x_spi.c ****   */
  83:firmware/STM32F10x_StdPeriph_Lib_V3.3.0/Libraries/STM32F10x_StdPeriph_Driver/src/stm32f10x_spi.c **** 
  84:firmware/STM32F10x_StdPeriph_Lib_V3.3.0/Libraries/STM32F10x_StdPeriph_Driver/src/stm32f10x_spi.c **** /** @defgroup SPI_Private_Macros
  85:firmware/STM32F10x_StdPeriph_Lib_V3.3.0/Libraries/STM32F10x_StdPeriph_Driver/src/stm32f10x_spi.c ****   * @{
  86:firmware/STM32F10x_StdPeriph_Lib_V3.3.0/Libraries/STM32F10x_StdPeriph_Driver/src/stm32f10x_spi.c ****   */
  87:firmware/STM32F10x_StdPeriph_Lib_V3.3.0/Libraries/STM32F10x_StdPeriph_Driver/src/stm32f10x_spi.c **** 
  88:firmware/STM32F10x_StdPeriph_Lib_V3.3.0/Libraries/STM32F10x_StdPeriph_Driver/src/stm32f10x_spi.c **** /**
  89:firmware/STM32F10x_StdPeriph_Lib_V3.3.0/Libraries/STM32F10x_StdPeriph_Driver/src/stm32f10x_spi.c ****   * @}
  90:firmware/STM32F10x_StdPeriph_Lib_V3.3.0/Libraries/STM32F10x_StdPeriph_Driver/src/stm32f10x_spi.c ****   */
  91:firmware/STM32F10x_StdPeriph_Lib_V3.3.0/Libraries/STM32F10x_StdPeriph_Driver/src/stm32f10x_spi.c **** 
  92:firmware/STM32F10x_StdPeriph_Lib_V3.3.0/Libraries/STM32F10x_StdPeriph_Driver/src/stm32f10x_spi.c **** /** @defgroup SPI_Private_Variables
  93:firmware/STM32F10x_StdPeriph_Lib_V3.3.0/Libraries/STM32F10x_StdPeriph_Driver/src/stm32f10x_spi.c ****   * @{
  94:firmware/STM32F10x_StdPeriph_Lib_V3.3.0/Libraries/STM32F10x_StdPeriph_Driver/src/stm32f10x_spi.c ****   */
  95:firmware/STM32F10x_StdPeriph_Lib_V3.3.0/Libraries/STM32F10x_StdPeriph_Driver/src/stm32f10x_spi.c **** 
  96:firmware/STM32F10x_StdPeriph_Lib_V3.3.0/Libraries/STM32F10x_StdPeriph_Driver/src/stm32f10x_spi.c **** /**
  97:firmware/STM32F10x_StdPeriph_Lib_V3.3.0/Libraries/STM32F10x_StdPeriph_Driver/src/stm32f10x_spi.c ****   * @}
  98:firmware/STM32F10x_StdPeriph_Lib_V3.3.0/Libraries/STM32F10x_StdPeriph_Driver/src/stm32f10x_spi.c ****   */
  99:firmware/STM32F10x_StdPeriph_Lib_V3.3.0/Libraries/STM32F10x_StdPeriph_Driver/src/stm32f10x_spi.c **** 
 100:firmware/STM32F10x_StdPeriph_Lib_V3.3.0/Libraries/STM32F10x_StdPeriph_Driver/src/stm32f10x_spi.c **** /** @defgroup SPI_Private_FunctionPrototypes
 101:firmware/STM32F10x_StdPeriph_Lib_V3.3.0/Libraries/STM32F10x_StdPeriph_Driver/src/stm32f10x_spi.c ****   * @{
 102:firmware/STM32F10x_StdPeriph_Lib_V3.3.0/Libraries/STM32F10x_StdPeriph_Driver/src/stm32f10x_spi.c ****   */
 103:firmware/STM32F10x_StdPeriph_Lib_V3.3.0/Libraries/STM32F10x_StdPeriph_Driver/src/stm32f10x_spi.c **** 
 104:firmware/STM32F10x_StdPeriph_Lib_V3.3.0/Libraries/STM32F10x_StdPeriph_Driver/src/stm32f10x_spi.c **** /**
 105:firmware/STM32F10x_StdPeriph_Lib_V3.3.0/Libraries/STM32F10x_StdPeriph_Driver/src/stm32f10x_spi.c ****   * @}
 106:firmware/STM32F10x_StdPeriph_Lib_V3.3.0/Libraries/STM32F10x_StdPeriph_Driver/src/stm32f10x_spi.c ****   */
 107:firmware/STM32F10x_StdPeriph_Lib_V3.3.0/Libraries/STM32F10x_StdPeriph_Driver/src/stm32f10x_spi.c **** 
 108:firmware/STM32F10x_StdPeriph_Lib_V3.3.0/Libraries/STM32F10x_StdPeriph_Driver/src/stm32f10x_spi.c **** /** @defgroup SPI_Private_Functions
 109:firmware/STM32F10x_StdPeriph_Lib_V3.3.0/Libraries/STM32F10x_StdPeriph_Driver/src/stm32f10x_spi.c ****   * @{
 110:firmware/STM32F10x_StdPeriph_Lib_V3.3.0/Libraries/STM32F10x_StdPeriph_Driver/src/stm32f10x_spi.c ****   */
 111:firmware/STM32F10x_StdPeriph_Lib_V3.3.0/Libraries/STM32F10x_StdPeriph_Driver/src/stm32f10x_spi.c **** 
 112:firmware/STM32F10x_StdPeriph_Lib_V3.3.0/Libraries/STM32F10x_StdPeriph_Driver/src/stm32f10x_spi.c **** /**
 113:firmware/STM32F10x_StdPeriph_Lib_V3.3.0/Libraries/STM32F10x_StdPeriph_Driver/src/stm32f10x_spi.c ****   * @brief  Deinitializes the SPIx peripheral registers to their default
 114:firmware/STM32F10x_StdPeriph_Lib_V3.3.0/Libraries/STM32F10x_StdPeriph_Driver/src/stm32f10x_spi.c ****   *   reset values (Affects also the I2Ss).
 115:firmware/STM32F10x_StdPeriph_Lib_V3.3.0/Libraries/STM32F10x_StdPeriph_Driver/src/stm32f10x_spi.c ****   * @param  SPIx: where x can be 1, 2 or 3 to select the SPI peripheral.
 116:firmware/STM32F10x_StdPeriph_Lib_V3.3.0/Libraries/STM32F10x_StdPeriph_Driver/src/stm32f10x_spi.c ****   * @retval None
 117:firmware/STM32F10x_StdPeriph_Lib_V3.3.0/Libraries/STM32F10x_StdPeriph_Driver/src/stm32f10x_spi.c ****   */
 118:firmware/STM32F10x_StdPeriph_Lib_V3.3.0/Libraries/STM32F10x_StdPeriph_Driver/src/stm32f10x_spi.c **** void SPI_I2S_DeInit(SPI_TypeDef* SPIx)
 119:firmware/STM32F10x_StdPeriph_Lib_V3.3.0/Libraries/STM32F10x_StdPeriph_Driver/src/stm32f10x_spi.c **** {
  32              		.loc 1 119 0
  33              		.cfi_startproc
  34              		@ args = 0, pretend = 0, frame = 0
  35              		@ frame_needed = 0, uses_anonymous_args = 0
  36              	.LVL0:
 120:firmware/STM32F10x_StdPeriph_Lib_V3.3.0/Libraries/STM32F10x_StdPeriph_Driver/src/stm32f10x_spi.c ****   /* Check the parameters */
 121:firmware/STM32F10x_StdPeriph_Lib_V3.3.0/Libraries/STM32F10x_StdPeriph_Driver/src/stm32f10x_spi.c ****   assert_param(IS_SPI_ALL_PERIPH(SPIx));
 122:firmware/STM32F10x_StdPeriph_Lib_V3.3.0/Libraries/STM32F10x_StdPeriph_Driver/src/stm32f10x_spi.c **** 
 123:firmware/STM32F10x_StdPeriph_Lib_V3.3.0/Libraries/STM32F10x_StdPeriph_Driver/src/stm32f10x_spi.c ****   if (SPIx == SPI1)
  37              		.loc 1 123 0
  38 0000 154B     		ldr	r3, .L6
 119:firmware/STM32F10x_StdPeriph_Lib_V3.3.0/Libraries/STM32F10x_StdPeriph_Driver/src/stm32f10x_spi.c **** {
  39              		.loc 1 119 0
  40 0002 10B5     		push	{r4, lr}
  41              	.LCFI0:
  42              		.cfi_def_cfa_offset 8
  43              		.loc 1 123 0
  44 0004 9842     		cmp	r0, r3
  45 0006 0BD1     		bne	.L2
  46              		.cfi_offset 14, -4
  47              		.cfi_offset 4, -8
 124:firmware/STM32F10x_StdPeriph_Lib_V3.3.0/Libraries/STM32F10x_StdPeriph_Driver/src/stm32f10x_spi.c ****   {
 125:firmware/STM32F10x_StdPeriph_Lib_V3.3.0/Libraries/STM32F10x_StdPeriph_Driver/src/stm32f10x_spi.c ****     /* Enable SPI1 reset state */
 126:firmware/STM32F10x_StdPeriph_Lib_V3.3.0/Libraries/STM32F10x_StdPeriph_Driver/src/stm32f10x_spi.c ****     RCC_APB2PeriphResetCmd(RCC_APB2Periph_SPI1, ENABLE);
  48              		.loc 1 126 0
  49 0008 0121     		movs	r1, #1
  50 000a 4FF48050 		mov	r0, #4096
  51              	.LVL1:
  52 000e FFF7FEFF 		bl	RCC_APB2PeriphResetCmd
 127:firmware/STM32F10x_StdPeriph_Lib_V3.3.0/Libraries/STM32F10x_StdPeriph_Driver/src/stm32f10x_spi.c ****     /* Release SPI1 from reset state */
 128:firmware/STM32F10x_StdPeriph_Lib_V3.3.0/Libraries/STM32F10x_StdPeriph_Driver/src/stm32f10x_spi.c ****     RCC_APB2PeriphResetCmd(RCC_APB2Periph_SPI1, DISABLE);
  53              		.loc 1 128 0
  54 0012 4FF48050 		mov	r0, #4096
  55 0016 0021     		movs	r1, #0
 129:firmware/STM32F10x_StdPeriph_Lib_V3.3.0/Libraries/STM32F10x_StdPeriph_Driver/src/stm32f10x_spi.c ****   }
 130:firmware/STM32F10x_StdPeriph_Lib_V3.3.0/Libraries/STM32F10x_StdPeriph_Driver/src/stm32f10x_spi.c ****   else if (SPIx == SPI2)
 131:firmware/STM32F10x_StdPeriph_Lib_V3.3.0/Libraries/STM32F10x_StdPeriph_Driver/src/stm32f10x_spi.c ****   {
 132:firmware/STM32F10x_StdPeriph_Lib_V3.3.0/Libraries/STM32F10x_StdPeriph_Driver/src/stm32f10x_spi.c ****     /* Enable SPI2 reset state */
 133:firmware/STM32F10x_StdPeriph_Lib_V3.3.0/Libraries/STM32F10x_StdPeriph_Driver/src/stm32f10x_spi.c ****     RCC_APB1PeriphResetCmd(RCC_APB1Periph_SPI2, ENABLE);
 134:firmware/STM32F10x_StdPeriph_Lib_V3.3.0/Libraries/STM32F10x_StdPeriph_Driver/src/stm32f10x_spi.c ****     /* Release SPI2 from reset state */
 135:firmware/STM32F10x_StdPeriph_Lib_V3.3.0/Libraries/STM32F10x_StdPeriph_Driver/src/stm32f10x_spi.c ****     RCC_APB1PeriphResetCmd(RCC_APB1Periph_SPI2, DISABLE);
 136:firmware/STM32F10x_StdPeriph_Lib_V3.3.0/Libraries/STM32F10x_StdPeriph_Driver/src/stm32f10x_spi.c ****   }
 137:firmware/STM32F10x_StdPeriph_Lib_V3.3.0/Libraries/STM32F10x_StdPeriph_Driver/src/stm32f10x_spi.c ****   else
 138:firmware/STM32F10x_StdPeriph_Lib_V3.3.0/Libraries/STM32F10x_StdPeriph_Driver/src/stm32f10x_spi.c ****   {
 139:firmware/STM32F10x_StdPeriph_Lib_V3.3.0/Libraries/STM32F10x_StdPeriph_Driver/src/stm32f10x_spi.c ****     if (SPIx == SPI3)
 140:firmware/STM32F10x_StdPeriph_Lib_V3.3.0/Libraries/STM32F10x_StdPeriph_Driver/src/stm32f10x_spi.c ****     {
 141:firmware/STM32F10x_StdPeriph_Lib_V3.3.0/Libraries/STM32F10x_StdPeriph_Driver/src/stm32f10x_spi.c ****       /* Enable SPI3 reset state */
 142:firmware/STM32F10x_StdPeriph_Lib_V3.3.0/Libraries/STM32F10x_StdPeriph_Driver/src/stm32f10x_spi.c ****       RCC_APB1PeriphResetCmd(RCC_APB1Periph_SPI3, ENABLE);
 143:firmware/STM32F10x_StdPeriph_Lib_V3.3.0/Libraries/STM32F10x_StdPeriph_Driver/src/stm32f10x_spi.c ****       /* Release SPI3 from reset state */
 144:firmware/STM32F10x_StdPeriph_Lib_V3.3.0/Libraries/STM32F10x_StdPeriph_Driver/src/stm32f10x_spi.c ****       RCC_APB1PeriphResetCmd(RCC_APB1Periph_SPI3, DISABLE);
 145:firmware/STM32F10x_StdPeriph_Lib_V3.3.0/Libraries/STM32F10x_StdPeriph_Driver/src/stm32f10x_spi.c ****     }
 146:firmware/STM32F10x_StdPeriph_Lib_V3.3.0/Libraries/STM32F10x_StdPeriph_Driver/src/stm32f10x_spi.c ****   }
 147:firmware/STM32F10x_StdPeriph_Lib_V3.3.0/Libraries/STM32F10x_StdPeriph_Driver/src/stm32f10x_spi.c **** }
  56              		.loc 1 147 0
  57 0018 BDE81040 		pop	{r4, lr}
 128:firmware/STM32F10x_StdPeriph_Lib_V3.3.0/Libraries/STM32F10x_StdPeriph_Driver/src/stm32f10x_spi.c ****     RCC_APB2PeriphResetCmd(RCC_APB2Periph_SPI1, DISABLE);
  58              		.loc 1 128 0
  59 001c FFF7FEBF 		b	RCC_APB2PeriphResetCmd
  60              	.LVL2:
  61              	.L2:
 130:firmware/STM32F10x_StdPeriph_Lib_V3.3.0/Libraries/STM32F10x_StdPeriph_Driver/src/stm32f10x_spi.c ****   else if (SPIx == SPI2)
  62              		.loc 1 130 0
  63 0020 0E4B     		ldr	r3, .L6+4
  64 0022 9842     		cmp	r0, r3
  65 0024 07D1     		bne	.L3
 133:firmware/STM32F10x_StdPeriph_Lib_V3.3.0/Libraries/STM32F10x_StdPeriph_Driver/src/stm32f10x_spi.c ****     RCC_APB1PeriphResetCmd(RCC_APB1Periph_SPI2, ENABLE);
  66              		.loc 1 133 0
  67 0026 4FF48040 		mov	r0, #16384
  68              	.LVL3:
  69 002a 0121     		movs	r1, #1
  70 002c FFF7FEFF 		bl	RCC_APB1PeriphResetCmd
 135:firmware/STM32F10x_StdPeriph_Lib_V3.3.0/Libraries/STM32F10x_StdPeriph_Driver/src/stm32f10x_spi.c ****     RCC_APB1PeriphResetCmd(RCC_APB1Periph_SPI2, DISABLE);
  71              		.loc 1 135 0
  72 0030 4FF48040 		mov	r0, #16384
  73 0034 09E0     		b	.L5
  74              	.LVL4:
  75              	.L3:
 139:firmware/STM32F10x_StdPeriph_Lib_V3.3.0/Libraries/STM32F10x_StdPeriph_Driver/src/stm32f10x_spi.c ****     if (SPIx == SPI3)
  76              		.loc 1 139 0
  77 0036 0A4B     		ldr	r3, .L6+8
  78 0038 9842     		cmp	r0, r3
  79 003a 0BD1     		bne	.L1
 142:firmware/STM32F10x_StdPeriph_Lib_V3.3.0/Libraries/STM32F10x_StdPeriph_Driver/src/stm32f10x_spi.c ****       RCC_APB1PeriphResetCmd(RCC_APB1Periph_SPI3, ENABLE);
  80              		.loc 1 142 0
  81 003c 4FF40040 		mov	r0, #32768
  82              	.LVL5:
  83 0040 0121     		movs	r1, #1
  84 0042 FFF7FEFF 		bl	RCC_APB1PeriphResetCmd
 144:firmware/STM32F10x_StdPeriph_Lib_V3.3.0/Libraries/STM32F10x_StdPeriph_Driver/src/stm32f10x_spi.c ****       RCC_APB1PeriphResetCmd(RCC_APB1Periph_SPI3, DISABLE);
  85              		.loc 1 144 0
  86 0046 4FF40040 		mov	r0, #32768
  87              	.L5:
  88 004a 0021     		movs	r1, #0
  89              		.loc 1 147 0
  90 004c BDE81040 		pop	{r4, lr}
 144:firmware/STM32F10x_StdPeriph_Lib_V3.3.0/Libraries/STM32F10x_StdPeriph_Driver/src/stm32f10x_spi.c ****       RCC_APB1PeriphResetCmd(RCC_APB1Periph_SPI3, DISABLE);
  91              		.loc 1 144 0
  92 0050 FFF7FEBF 		b	RCC_APB1PeriphResetCmd
  93              	.LVL6:
  94              	.L1:
  95 0054 10BD     		pop	{r4, pc}
  96              	.L7:
  97 0056 00BF     		.align	2
  98              	.L6:
  99 0058 00300140 		.word	1073819648
 100 005c 00380040 		.word	1073756160
 101 0060 003C0040 		.word	1073757184
 102              		.cfi_endproc
 103              	.LFE29:
 105              		.section	.text.SPI_Init,"ax",%progbits
 106              		.align	1
 107              		.global	SPI_Init
 108              		.thumb
 109              		.thumb_func
 111              	SPI_Init:
 112              	.LFB30:
 148:firmware/STM32F10x_StdPeriph_Lib_V3.3.0/Libraries/STM32F10x_StdPeriph_Driver/src/stm32f10x_spi.c **** 
 149:firmware/STM32F10x_StdPeriph_Lib_V3.3.0/Libraries/STM32F10x_StdPeriph_Driver/src/stm32f10x_spi.c **** /**
 150:firmware/STM32F10x_StdPeriph_Lib_V3.3.0/Libraries/STM32F10x_StdPeriph_Driver/src/stm32f10x_spi.c ****   * @brief  Initializes the SPIx peripheral according to the specified 
 151:firmware/STM32F10x_StdPeriph_Lib_V3.3.0/Libraries/STM32F10x_StdPeriph_Driver/src/stm32f10x_spi.c ****   *   parameters in the SPI_InitStruct.
 152:firmware/STM32F10x_StdPeriph_Lib_V3.3.0/Libraries/STM32F10x_StdPeriph_Driver/src/stm32f10x_spi.c ****   * @param  SPIx: where x can be 1, 2 or 3 to select the SPI peripheral.
 153:firmware/STM32F10x_StdPeriph_Lib_V3.3.0/Libraries/STM32F10x_StdPeriph_Driver/src/stm32f10x_spi.c ****   * @param  SPI_InitStruct: pointer to a SPI_InitTypeDef structure that
 154:firmware/STM32F10x_StdPeriph_Lib_V3.3.0/Libraries/STM32F10x_StdPeriph_Driver/src/stm32f10x_spi.c ****   *   contains the configuration information for the specified SPI peripheral.
 155:firmware/STM32F10x_StdPeriph_Lib_V3.3.0/Libraries/STM32F10x_StdPeriph_Driver/src/stm32f10x_spi.c ****   * @retval None
 156:firmware/STM32F10x_StdPeriph_Lib_V3.3.0/Libraries/STM32F10x_StdPeriph_Driver/src/stm32f10x_spi.c ****   */
 157:firmware/STM32F10x_StdPeriph_Lib_V3.3.0/Libraries/STM32F10x_StdPeriph_Driver/src/stm32f10x_spi.c **** void SPI_Init(SPI_TypeDef* SPIx, SPI_InitTypeDef* SPI_InitStruct)
 158:firmware/STM32F10x_StdPeriph_Lib_V3.3.0/Libraries/STM32F10x_StdPeriph_Driver/src/stm32f10x_spi.c **** {
 113              		.loc 1 158 0
 114              		.cfi_startproc
 115              		@ args = 0, pretend = 0, frame = 0
 116              		@ frame_needed = 0, uses_anonymous_args = 0
 117              	.LVL7:
 159:firmware/STM32F10x_StdPeriph_Lib_V3.3.0/Libraries/STM32F10x_StdPeriph_Driver/src/stm32f10x_spi.c ****   uint16_t tmpreg = 0;
 160:firmware/STM32F10x_StdPeriph_Lib_V3.3.0/Libraries/STM32F10x_StdPeriph_Driver/src/stm32f10x_spi.c ****   
 161:firmware/STM32F10x_StdPeriph_Lib_V3.3.0/Libraries/STM32F10x_StdPeriph_Driver/src/stm32f10x_spi.c ****   /* check the parameters */
 162:firmware/STM32F10x_StdPeriph_Lib_V3.3.0/Libraries/STM32F10x_StdPeriph_Driver/src/stm32f10x_spi.c ****   assert_param(IS_SPI_ALL_PERIPH(SPIx));   
 163:firmware/STM32F10x_StdPeriph_Lib_V3.3.0/Libraries/STM32F10x_StdPeriph_Driver/src/stm32f10x_spi.c ****   
 164:firmware/STM32F10x_StdPeriph_Lib_V3.3.0/Libraries/STM32F10x_StdPeriph_Driver/src/stm32f10x_spi.c ****   /* Check the SPI parameters */
 165:firmware/STM32F10x_StdPeriph_Lib_V3.3.0/Libraries/STM32F10x_StdPeriph_Driver/src/stm32f10x_spi.c ****   assert_param(IS_SPI_DIRECTION_MODE(SPI_InitStruct->SPI_Direction));
 166:firmware/STM32F10x_StdPeriph_Lib_V3.3.0/Libraries/STM32F10x_StdPeriph_Driver/src/stm32f10x_spi.c ****   assert_param(IS_SPI_MODE(SPI_InitStruct->SPI_Mode));
 167:firmware/STM32F10x_StdPeriph_Lib_V3.3.0/Libraries/STM32F10x_StdPeriph_Driver/src/stm32f10x_spi.c ****   assert_param(IS_SPI_DATASIZE(SPI_InitStruct->SPI_DataSize));
 168:firmware/STM32F10x_StdPeriph_Lib_V3.3.0/Libraries/STM32F10x_StdPeriph_Driver/src/stm32f10x_spi.c ****   assert_param(IS_SPI_CPOL(SPI_InitStruct->SPI_CPOL));
 169:firmware/STM32F10x_StdPeriph_Lib_V3.3.0/Libraries/STM32F10x_StdPeriph_Driver/src/stm32f10x_spi.c ****   assert_param(IS_SPI_CPHA(SPI_InitStruct->SPI_CPHA));
 170:firmware/STM32F10x_StdPeriph_Lib_V3.3.0/Libraries/STM32F10x_StdPeriph_Driver/src/stm32f10x_spi.c ****   assert_param(IS_SPI_NSS(SPI_InitStruct->SPI_NSS));
 171:firmware/STM32F10x_StdPeriph_Lib_V3.3.0/Libraries/STM32F10x_StdPeriph_Driver/src/stm32f10x_spi.c ****   assert_param(IS_SPI_BAUDRATE_PRESCALER(SPI_InitStruct->SPI_BaudRatePrescaler));
 172:firmware/STM32F10x_StdPeriph_Lib_V3.3.0/Libraries/STM32F10x_StdPeriph_Driver/src/stm32f10x_spi.c ****   assert_param(IS_SPI_FIRST_BIT(SPI_InitStruct->SPI_FirstBit));
 173:firmware/STM32F10x_StdPeriph_Lib_V3.3.0/Libraries/STM32F10x_StdPeriph_Driver/src/stm32f10x_spi.c ****   assert_param(IS_SPI_CRC_POLYNOMIAL(SPI_InitStruct->SPI_CRCPolynomial));
 174:firmware/STM32F10x_StdPeriph_Lib_V3.3.0/Libraries/STM32F10x_StdPeriph_Driver/src/stm32f10x_spi.c **** 
 175:firmware/STM32F10x_StdPeriph_Lib_V3.3.0/Libraries/STM32F10x_StdPeriph_Driver/src/stm32f10x_spi.c **** /*---------------------------- SPIx CR1 Configuration ------------------------*/
 176:firmware/STM32F10x_StdPeriph_Lib_V3.3.0/Libraries/STM32F10x_StdPeriph_Driver/src/stm32f10x_spi.c ****   /* Get the SPIx CR1 value */
 177:firmware/STM32F10x_StdPeriph_Lib_V3.3.0/Libraries/STM32F10x_StdPeriph_Driver/src/stm32f10x_spi.c ****   tmpreg = SPIx->CR1;
 178:firmware/STM32F10x_StdPeriph_Lib_V3.3.0/Libraries/STM32F10x_StdPeriph_Driver/src/stm32f10x_spi.c ****   /* Clear BIDIMode, BIDIOE, RxONLY, SSM, SSI, LSBFirst, BR, MSTR, CPOL and CPHA bits */
 179:firmware/STM32F10x_StdPeriph_Lib_V3.3.0/Libraries/STM32F10x_StdPeriph_Driver/src/stm32f10x_spi.c ****   tmpreg &= CR1_CLEAR_Mask;
 180:firmware/STM32F10x_StdPeriph_Lib_V3.3.0/Libraries/STM32F10x_StdPeriph_Driver/src/stm32f10x_spi.c ****   /* Configure SPIx: direction, NSS management, first transmitted bit, BaudRate prescaler
 181:firmware/STM32F10x_StdPeriph_Lib_V3.3.0/Libraries/STM32F10x_StdPeriph_Driver/src/stm32f10x_spi.c ****      master/salve mode, CPOL and CPHA */
 182:firmware/STM32F10x_StdPeriph_Lib_V3.3.0/Libraries/STM32F10x_StdPeriph_Driver/src/stm32f10x_spi.c ****   /* Set BIDImode, BIDIOE and RxONLY bits according to SPI_Direction value */
 183:firmware/STM32F10x_StdPeriph_Lib_V3.3.0/Libraries/STM32F10x_StdPeriph_Driver/src/stm32f10x_spi.c ****   /* Set SSM, SSI and MSTR bits according to SPI_Mode and SPI_NSS values */
 184:firmware/STM32F10x_StdPeriph_Lib_V3.3.0/Libraries/STM32F10x_StdPeriph_Driver/src/stm32f10x_spi.c ****   /* Set LSBFirst bit according to SPI_FirstBit value */
 185:firmware/STM32F10x_StdPeriph_Lib_V3.3.0/Libraries/STM32F10x_StdPeriph_Driver/src/stm32f10x_spi.c ****   /* Set BR bits according to SPI_BaudRatePrescaler value */
 186:firmware/STM32F10x_StdPeriph_Lib_V3.3.0/Libraries/STM32F10x_StdPeriph_Driver/src/stm32f10x_spi.c ****   /* Set CPOL bit according to SPI_CPOL value */
 187:firmware/STM32F10x_StdPeriph_Lib_V3.3.0/Libraries/STM32F10x_StdPeriph_Driver/src/stm32f10x_spi.c ****   /* Set CPHA bit according to SPI_CPHA value */
 188:firmware/STM32F10x_StdPeriph_Lib_V3.3.0/Libraries/STM32F10x_StdPeriph_Driver/src/stm32f10x_spi.c ****   tmpreg |= (uint16_t)((uint32_t)SPI_InitStruct->SPI_Direction | SPI_InitStruct->SPI_Mode |
 118              		.loc 1 188 0
 119 0000 0B88     		ldrh	r3, [r1, #0]
 158:firmware/STM32F10x_StdPeriph_Lib_V3.3.0/Libraries/STM32F10x_StdPeriph_Driver/src/stm32f10x_spi.c **** {
 120              		.loc 1 158 0
 121 0002 10B5     		push	{r4, lr}
 122              	.LCFI1:
 123              		.cfi_def_cfa_offset 8
 124              		.loc 1 188 0
 125 0004 4C88     		ldrh	r4, [r1, #2]
 126              		.cfi_offset 14, -4
 127              		.cfi_offset 4, -8
 177:firmware/STM32F10x_StdPeriph_Lib_V3.3.0/Libraries/STM32F10x_StdPeriph_Driver/src/stm32f10x_spi.c ****   tmpreg = SPIx->CR1;
 128              		.loc 1 177 0
 129 0006 0288     		ldrh	r2, [r0, #0]
 130              	.LVL8:
 131              		.loc 1 188 0
 132 0008 44EA0303 		orr	r3, r4, r3
 133 000c 8C88     		ldrh	r4, [r1, #4]
 179:firmware/STM32F10x_StdPeriph_Lib_V3.3.0/Libraries/STM32F10x_StdPeriph_Driver/src/stm32f10x_spi.c ****   tmpreg &= CR1_CLEAR_Mask;
 134              		.loc 1 179 0
 135 000e 02F44152 		and	r2, r2, #12352
 136              	.LVL9:
 137              		.loc 1 188 0
 138 0012 2343     		orrs	r3, r3, r4
 139 0014 CC88     		ldrh	r4, [r1, #6]
 140 0016 2343     		orrs	r3, r3, r4
 141 0018 0C89     		ldrh	r4, [r1, #8]
 142 001a 2343     		orrs	r3, r3, r4
 143 001c 4C89     		ldrh	r4, [r1, #10]
 144 001e 2343     		orrs	r3, r3, r4
 145 0020 8C89     		ldrh	r4, [r1, #12]
 146 0022 2343     		orrs	r3, r3, r4
 147 0024 CC89     		ldrh	r4, [r1, #14]
 148 0026 2343     		orrs	r3, r3, r4
 149 0028 42EA0303 		orr	r3, r2, r3
 150 002c 9BB2     		uxth	r3, r3
 151              	.LVL10:
 189:firmware/STM32F10x_StdPeriph_Lib_V3.3.0/Libraries/STM32F10x_StdPeriph_Driver/src/stm32f10x_spi.c ****                   SPI_InitStruct->SPI_DataSize | SPI_InitStruct->SPI_CPOL |  
 190:firmware/STM32F10x_StdPeriph_Lib_V3.3.0/Libraries/STM32F10x_StdPeriph_Driver/src/stm32f10x_spi.c ****                   SPI_InitStruct->SPI_CPHA | SPI_InitStruct->SPI_NSS |  
 191:firmware/STM32F10x_StdPeriph_Lib_V3.3.0/Libraries/STM32F10x_StdPeriph_Driver/src/stm32f10x_spi.c ****                   SPI_InitStruct->SPI_BaudRatePrescaler | SPI_InitStruct->SPI_FirstBit);
 192:firmware/STM32F10x_StdPeriph_Lib_V3.3.0/Libraries/STM32F10x_StdPeriph_Driver/src/stm32f10x_spi.c ****   /* Write to SPIx CR1 */
 193:firmware/STM32F10x_StdPeriph_Lib_V3.3.0/Libraries/STM32F10x_StdPeriph_Driver/src/stm32f10x_spi.c ****   SPIx->CR1 = tmpreg;
 152              		.loc 1 193 0
 153 002e 0380     		strh	r3, [r0, #0]	@ movhi
 194:firmware/STM32F10x_StdPeriph_Lib_V3.3.0/Libraries/STM32F10x_StdPeriph_Driver/src/stm32f10x_spi.c ****   
 195:firmware/STM32F10x_StdPeriph_Lib_V3.3.0/Libraries/STM32F10x_StdPeriph_Driver/src/stm32f10x_spi.c ****   /* Activate the SPI mode (Reset I2SMOD bit in I2SCFGR register) */
 196:firmware/STM32F10x_StdPeriph_Lib_V3.3.0/Libraries/STM32F10x_StdPeriph_Driver/src/stm32f10x_spi.c ****   SPIx->I2SCFGR &= SPI_Mode_Select;		
 154              		.loc 1 196 0
 155 0030 838B     		ldrh	r3, [r0, #28]
 156              	.LVL11:
 157 0032 23F40063 		bic	r3, r3, #2048
 158 0036 1B04     		lsls	r3, r3, #16
 159 0038 1B0C     		lsrs	r3, r3, #16
 160 003a 8383     		strh	r3, [r0, #28]	@ movhi
 197:firmware/STM32F10x_StdPeriph_Lib_V3.3.0/Libraries/STM32F10x_StdPeriph_Driver/src/stm32f10x_spi.c **** 
 198:firmware/STM32F10x_StdPeriph_Lib_V3.3.0/Libraries/STM32F10x_StdPeriph_Driver/src/stm32f10x_spi.c **** /*---------------------------- SPIx CRCPOLY Configuration --------------------*/
 199:firmware/STM32F10x_StdPeriph_Lib_V3.3.0/Libraries/STM32F10x_StdPeriph_Driver/src/stm32f10x_spi.c ****   /* Write to SPIx CRCPOLY */
 200:firmware/STM32F10x_StdPeriph_Lib_V3.3.0/Libraries/STM32F10x_StdPeriph_Driver/src/stm32f10x_spi.c ****   SPIx->CRCPR = SPI_InitStruct->SPI_CRCPolynomial;
 161              		.loc 1 200 0
 162 003c 0B8A     		ldrh	r3, [r1, #16]
 163 003e 0382     		strh	r3, [r0, #16]	@ movhi
 201:firmware/STM32F10x_StdPeriph_Lib_V3.3.0/Libraries/STM32F10x_StdPeriph_Driver/src/stm32f10x_spi.c **** }
 164              		.loc 1 201 0
 165 0040 10BD     		pop	{r4, pc}
 166              		.cfi_endproc
 167              	.LFE30:
 169              		.section	.text.I2S_Init,"ax",%progbits
 170              		.align	1
 171              		.global	I2S_Init
 172              		.thumb
 173              		.thumb_func
 175              	I2S_Init:
 176              	.LFB31:
 202:firmware/STM32F10x_StdPeriph_Lib_V3.3.0/Libraries/STM32F10x_StdPeriph_Driver/src/stm32f10x_spi.c **** 
 203:firmware/STM32F10x_StdPeriph_Lib_V3.3.0/Libraries/STM32F10x_StdPeriph_Driver/src/stm32f10x_spi.c **** /**
 204:firmware/STM32F10x_StdPeriph_Lib_V3.3.0/Libraries/STM32F10x_StdPeriph_Driver/src/stm32f10x_spi.c ****   * @brief  Initializes the SPIx peripheral according to the specified 
 205:firmware/STM32F10x_StdPeriph_Lib_V3.3.0/Libraries/STM32F10x_StdPeriph_Driver/src/stm32f10x_spi.c ****   *   parameters in the I2S_InitStruct.
 206:firmware/STM32F10x_StdPeriph_Lib_V3.3.0/Libraries/STM32F10x_StdPeriph_Driver/src/stm32f10x_spi.c ****   * @param  SPIx: where x can be  2 or 3 to select the SPI peripheral
 207:firmware/STM32F10x_StdPeriph_Lib_V3.3.0/Libraries/STM32F10x_StdPeriph_Driver/src/stm32f10x_spi.c ****   *   (configured in I2S mode).
 208:firmware/STM32F10x_StdPeriph_Lib_V3.3.0/Libraries/STM32F10x_StdPeriph_Driver/src/stm32f10x_spi.c ****   * @param  I2S_InitStruct: pointer to an I2S_InitTypeDef structure that
 209:firmware/STM32F10x_StdPeriph_Lib_V3.3.0/Libraries/STM32F10x_StdPeriph_Driver/src/stm32f10x_spi.c ****   *   contains the configuration information for the specified SPI peripheral
 210:firmware/STM32F10x_StdPeriph_Lib_V3.3.0/Libraries/STM32F10x_StdPeriph_Driver/src/stm32f10x_spi.c ****   *   configured in I2S mode.
 211:firmware/STM32F10x_StdPeriph_Lib_V3.3.0/Libraries/STM32F10x_StdPeriph_Driver/src/stm32f10x_spi.c ****   * @note
 212:firmware/STM32F10x_StdPeriph_Lib_V3.3.0/Libraries/STM32F10x_StdPeriph_Driver/src/stm32f10x_spi.c ****   *  The function calculates the optimal prescaler needed to obtain the most 
 213:firmware/STM32F10x_StdPeriph_Lib_V3.3.0/Libraries/STM32F10x_StdPeriph_Driver/src/stm32f10x_spi.c ****   *  accurate audio frequency (depending on the I2S clock source, the PLL values 
 214:firmware/STM32F10x_StdPeriph_Lib_V3.3.0/Libraries/STM32F10x_StdPeriph_Driver/src/stm32f10x_spi.c ****   *  and the product configuration). But in case the prescaler value is greater 
 215:firmware/STM32F10x_StdPeriph_Lib_V3.3.0/Libraries/STM32F10x_StdPeriph_Driver/src/stm32f10x_spi.c ****   *  than 511, the default value (0x02) will be configured instead.  *   
 216:firmware/STM32F10x_StdPeriph_Lib_V3.3.0/Libraries/STM32F10x_StdPeriph_Driver/src/stm32f10x_spi.c ****   * @retval None
 217:firmware/STM32F10x_StdPeriph_Lib_V3.3.0/Libraries/STM32F10x_StdPeriph_Driver/src/stm32f10x_spi.c ****   */
 218:firmware/STM32F10x_StdPeriph_Lib_V3.3.0/Libraries/STM32F10x_StdPeriph_Driver/src/stm32f10x_spi.c **** void I2S_Init(SPI_TypeDef* SPIx, I2S_InitTypeDef* I2S_InitStruct)
 219:firmware/STM32F10x_StdPeriph_Lib_V3.3.0/Libraries/STM32F10x_StdPeriph_Driver/src/stm32f10x_spi.c **** {
 177              		.loc 1 219 0
 178              		.cfi_startproc
 179              		@ args = 0, pretend = 0, frame = 24
 180              		@ frame_needed = 0, uses_anonymous_args = 0
 181              	.LVL12:
 182 0000 F0B5     		push	{r4, r5, r6, r7, lr}
 183              	.LCFI2:
 184              		.cfi_def_cfa_offset 20
 220:firmware/STM32F10x_StdPeriph_Lib_V3.3.0/Libraries/STM32F10x_StdPeriph_Driver/src/stm32f10x_spi.c ****   uint16_t tmpreg = 0, i2sdiv = 2, i2sodd = 0, packetlength = 1;
 221:firmware/STM32F10x_StdPeriph_Lib_V3.3.0/Libraries/STM32F10x_StdPeriph_Driver/src/stm32f10x_spi.c ****   uint32_t tmp = 0;
 222:firmware/STM32F10x_StdPeriph_Lib_V3.3.0/Libraries/STM32F10x_StdPeriph_Driver/src/stm32f10x_spi.c ****   RCC_ClocksTypeDef RCC_Clocks;
 223:firmware/STM32F10x_StdPeriph_Lib_V3.3.0/Libraries/STM32F10x_StdPeriph_Driver/src/stm32f10x_spi.c ****   uint32_t sourceclock = 0;
 224:firmware/STM32F10x_StdPeriph_Lib_V3.3.0/Libraries/STM32F10x_StdPeriph_Driver/src/stm32f10x_spi.c ****   
 225:firmware/STM32F10x_StdPeriph_Lib_V3.3.0/Libraries/STM32F10x_StdPeriph_Driver/src/stm32f10x_spi.c ****   /* Check the I2S parameters */
 226:firmware/STM32F10x_StdPeriph_Lib_V3.3.0/Libraries/STM32F10x_StdPeriph_Driver/src/stm32f10x_spi.c ****   assert_param(IS_SPI_23_PERIPH(SPIx));
 227:firmware/STM32F10x_StdPeriph_Lib_V3.3.0/Libraries/STM32F10x_StdPeriph_Driver/src/stm32f10x_spi.c ****   assert_param(IS_I2S_MODE(I2S_InitStruct->I2S_Mode));
 228:firmware/STM32F10x_StdPeriph_Lib_V3.3.0/Libraries/STM32F10x_StdPeriph_Driver/src/stm32f10x_spi.c ****   assert_param(IS_I2S_STANDARD(I2S_InitStruct->I2S_Standard));
 229:firmware/STM32F10x_StdPeriph_Lib_V3.3.0/Libraries/STM32F10x_StdPeriph_Driver/src/stm32f10x_spi.c ****   assert_param(IS_I2S_DATA_FORMAT(I2S_InitStruct->I2S_DataFormat));
 230:firmware/STM32F10x_StdPeriph_Lib_V3.3.0/Libraries/STM32F10x_StdPeriph_Driver/src/stm32f10x_spi.c ****   assert_param(IS_I2S_MCLK_OUTPUT(I2S_InitStruct->I2S_MCLKOutput));
 231:firmware/STM32F10x_StdPeriph_Lib_V3.3.0/Libraries/STM32F10x_StdPeriph_Driver/src/stm32f10x_spi.c ****   assert_param(IS_I2S_AUDIO_FREQ(I2S_InitStruct->I2S_AudioFreq));
 232:firmware/STM32F10x_StdPeriph_Lib_V3.3.0/Libraries/STM32F10x_StdPeriph_Driver/src/stm32f10x_spi.c ****   assert_param(IS_I2S_CPOL(I2S_InitStruct->I2S_CPOL));  
 233:firmware/STM32F10x_StdPeriph_Lib_V3.3.0/Libraries/STM32F10x_StdPeriph_Driver/src/stm32f10x_spi.c **** 
 234:firmware/STM32F10x_StdPeriph_Lib_V3.3.0/Libraries/STM32F10x_StdPeriph_Driver/src/stm32f10x_spi.c **** /*----------------------- SPIx I2SCFGR & I2SPR Configuration -----------------*/
 235:firmware/STM32F10x_StdPeriph_Lib_V3.3.0/Libraries/STM32F10x_StdPeriph_Driver/src/stm32f10x_spi.c ****   /* Clear I2SMOD, I2SE, I2SCFG, PCMSYNC, I2SSTD, CKPOL, DATLEN and CHLEN bits */
 236:firmware/STM32F10x_StdPeriph_Lib_V3.3.0/Libraries/STM32F10x_StdPeriph_Driver/src/stm32f10x_spi.c ****   SPIx->I2SCFGR &= I2SCFGR_CLEAR_Mask; 
 185              		.loc 1 236 0
 186 0002 838B     		ldrh	r3, [r0, #28]
 219:firmware/STM32F10x_StdPeriph_Lib_V3.3.0/Libraries/STM32F10x_StdPeriph_Driver/src/stm32f10x_spi.c **** {
 187              		.loc 1 219 0
 188 0004 87B0     		sub	sp, sp, #28
 189              	.LCFI3:
 190              		.cfi_def_cfa_offset 48
 191              		.loc 1 236 0
 192 0006 23F47A63 		bic	r3, r3, #4000
 193 000a 23F01F03 		bic	r3, r3, #31
 194 000e 1B04     		lsls	r3, r3, #16
 195 0010 1B0C     		lsrs	r3, r3, #16
 196 0012 8383     		strh	r3, [r0, #28]	@ movhi
 237:firmware/STM32F10x_StdPeriph_Lib_V3.3.0/Libraries/STM32F10x_StdPeriph_Driver/src/stm32f10x_spi.c ****   SPIx->I2SPR = 0x0002;
 197              		.loc 1 237 0
 198 0014 0223     		movs	r3, #2
 199 0016 0384     		strh	r3, [r0, #32]	@ movhi
 238:firmware/STM32F10x_StdPeriph_Lib_V3.3.0/Libraries/STM32F10x_StdPeriph_Driver/src/stm32f10x_spi.c ****   
 239:firmware/STM32F10x_StdPeriph_Lib_V3.3.0/Libraries/STM32F10x_StdPeriph_Driver/src/stm32f10x_spi.c ****   /* Get the I2SCFGR register value */
 240:firmware/STM32F10x_StdPeriph_Lib_V3.3.0/Libraries/STM32F10x_StdPeriph_Driver/src/stm32f10x_spi.c ****   tmpreg = SPIx->I2SCFGR;
 241:firmware/STM32F10x_StdPeriph_Lib_V3.3.0/Libraries/STM32F10x_StdPeriph_Driver/src/stm32f10x_spi.c ****   
 242:firmware/STM32F10x_StdPeriph_Lib_V3.3.0/Libraries/STM32F10x_StdPeriph_Driver/src/stm32f10x_spi.c ****   /* If the default value has to be written, reinitialize i2sdiv and i2sodd*/
 243:firmware/STM32F10x_StdPeriph_Lib_V3.3.0/Libraries/STM32F10x_StdPeriph_Driver/src/stm32f10x_spi.c ****   if(I2S_InitStruct->I2S_AudioFreq == I2S_AudioFreq_Default)
 200              		.loc 1 243 0
 201 0018 8B68     		ldr	r3, [r1, #8]
 240:firmware/STM32F10x_StdPeriph_Lib_V3.3.0/Libraries/STM32F10x_StdPeriph_Driver/src/stm32f10x_spi.c ****   tmpreg = SPIx->I2SCFGR;
 202              		.loc 1 240 0
 203 001a 868B     		ldrh	r6, [r0, #28]
 204              		.cfi_offset 14, -4
 205              		.cfi_offset 7, -8
 206              		.cfi_offset 6, -12
 207              		.cfi_offset 5, -16
 208              		.cfi_offset 4, -20
 209              		.loc 1 243 0
 210 001c 022B     		cmp	r3, #2
 219:firmware/STM32F10x_StdPeriph_Lib_V3.3.0/Libraries/STM32F10x_StdPeriph_Driver/src/stm32f10x_spi.c **** {
 211              		.loc 1 219 0
 212 001e 0446     		mov	r4, r0
 213 0020 0D46     		mov	r5, r1
 240:firmware/STM32F10x_StdPeriph_Lib_V3.3.0/Libraries/STM32F10x_StdPeriph_Driver/src/stm32f10x_spi.c ****   tmpreg = SPIx->I2SCFGR;
 214              		.loc 1 240 0
 215 0022 B6B2     		uxth	r6, r6
 216              	.LVL13:
 217              		.loc 1 243 0
 218 0024 23D0     		beq	.L15
 244:firmware/STM32F10x_StdPeriph_Lib_V3.3.0/Libraries/STM32F10x_StdPeriph_Driver/src/stm32f10x_spi.c ****   {
 245:firmware/STM32F10x_StdPeriph_Lib_V3.3.0/Libraries/STM32F10x_StdPeriph_Driver/src/stm32f10x_spi.c ****     i2sodd = (uint16_t)0;
 246:firmware/STM32F10x_StdPeriph_Lib_V3.3.0/Libraries/STM32F10x_StdPeriph_Driver/src/stm32f10x_spi.c ****     i2sdiv = (uint16_t)2;   
 247:firmware/STM32F10x_StdPeriph_Lib_V3.3.0/Libraries/STM32F10x_StdPeriph_Driver/src/stm32f10x_spi.c ****   }
 248:firmware/STM32F10x_StdPeriph_Lib_V3.3.0/Libraries/STM32F10x_StdPeriph_Driver/src/stm32f10x_spi.c ****   /* If the requested audio frequency is not the default, compute the prescaler */
 249:firmware/STM32F10x_StdPeriph_Lib_V3.3.0/Libraries/STM32F10x_StdPeriph_Driver/src/stm32f10x_spi.c ****   else
 250:firmware/STM32F10x_StdPeriph_Lib_V3.3.0/Libraries/STM32F10x_StdPeriph_Driver/src/stm32f10x_spi.c ****   {
 251:firmware/STM32F10x_StdPeriph_Lib_V3.3.0/Libraries/STM32F10x_StdPeriph_Driver/src/stm32f10x_spi.c ****     /* Check the frame length (For the Prescaler computing) */
 252:firmware/STM32F10x_StdPeriph_Lib_V3.3.0/Libraries/STM32F10x_StdPeriph_Driver/src/stm32f10x_spi.c ****     if(I2S_InitStruct->I2S_DataFormat == I2S_DataFormat_16b)
 253:firmware/STM32F10x_StdPeriph_Lib_V3.3.0/Libraries/STM32F10x_StdPeriph_Driver/src/stm32f10x_spi.c ****     {
 254:firmware/STM32F10x_StdPeriph_Lib_V3.3.0/Libraries/STM32F10x_StdPeriph_Driver/src/stm32f10x_spi.c ****       /* Packet length is 16 bits */
 255:firmware/STM32F10x_StdPeriph_Lib_V3.3.0/Libraries/STM32F10x_StdPeriph_Driver/src/stm32f10x_spi.c ****       packetlength = 1;
 256:firmware/STM32F10x_StdPeriph_Lib_V3.3.0/Libraries/STM32F10x_StdPeriph_Driver/src/stm32f10x_spi.c ****     }
 257:firmware/STM32F10x_StdPeriph_Lib_V3.3.0/Libraries/STM32F10x_StdPeriph_Driver/src/stm32f10x_spi.c ****     else
 258:firmware/STM32F10x_StdPeriph_Lib_V3.3.0/Libraries/STM32F10x_StdPeriph_Driver/src/stm32f10x_spi.c ****     {
 259:firmware/STM32F10x_StdPeriph_Lib_V3.3.0/Libraries/STM32F10x_StdPeriph_Driver/src/stm32f10x_spi.c ****       /* Packet length is 32 bits */
 260:firmware/STM32F10x_StdPeriph_Lib_V3.3.0/Libraries/STM32F10x_StdPeriph_Driver/src/stm32f10x_spi.c ****       packetlength = 2;
 261:firmware/STM32F10x_StdPeriph_Lib_V3.3.0/Libraries/STM32F10x_StdPeriph_Driver/src/stm32f10x_spi.c ****     }
 262:firmware/STM32F10x_StdPeriph_Lib_V3.3.0/Libraries/STM32F10x_StdPeriph_Driver/src/stm32f10x_spi.c **** 
 263:firmware/STM32F10x_StdPeriph_Lib_V3.3.0/Libraries/STM32F10x_StdPeriph_Driver/src/stm32f10x_spi.c ****     /* Get the I2S clock source mask depending on the peripheral number */
 264:firmware/STM32F10x_StdPeriph_Lib_V3.3.0/Libraries/STM32F10x_StdPeriph_Driver/src/stm32f10x_spi.c ****     if(((uint32_t)SPIx) == SPI2_BASE)
 265:firmware/STM32F10x_StdPeriph_Lib_V3.3.0/Libraries/STM32F10x_StdPeriph_Driver/src/stm32f10x_spi.c ****     {
 266:firmware/STM32F10x_StdPeriph_Lib_V3.3.0/Libraries/STM32F10x_StdPeriph_Driver/src/stm32f10x_spi.c ****       /* The mask is relative to I2S2 */
 267:firmware/STM32F10x_StdPeriph_Lib_V3.3.0/Libraries/STM32F10x_StdPeriph_Driver/src/stm32f10x_spi.c ****       tmp = I2S2_CLOCK_SRC;
 268:firmware/STM32F10x_StdPeriph_Lib_V3.3.0/Libraries/STM32F10x_StdPeriph_Driver/src/stm32f10x_spi.c ****     }
 269:firmware/STM32F10x_StdPeriph_Lib_V3.3.0/Libraries/STM32F10x_StdPeriph_Driver/src/stm32f10x_spi.c ****     else 
 270:firmware/STM32F10x_StdPeriph_Lib_V3.3.0/Libraries/STM32F10x_StdPeriph_Driver/src/stm32f10x_spi.c ****     {
 271:firmware/STM32F10x_StdPeriph_Lib_V3.3.0/Libraries/STM32F10x_StdPeriph_Driver/src/stm32f10x_spi.c ****       /* The mask is relative to I2S3 */      
 272:firmware/STM32F10x_StdPeriph_Lib_V3.3.0/Libraries/STM32F10x_StdPeriph_Driver/src/stm32f10x_spi.c ****       tmp = I2S3_CLOCK_SRC;
 273:firmware/STM32F10x_StdPeriph_Lib_V3.3.0/Libraries/STM32F10x_StdPeriph_Driver/src/stm32f10x_spi.c ****     }
 274:firmware/STM32F10x_StdPeriph_Lib_V3.3.0/Libraries/STM32F10x_StdPeriph_Driver/src/stm32f10x_spi.c **** 
 275:firmware/STM32F10x_StdPeriph_Lib_V3.3.0/Libraries/STM32F10x_StdPeriph_Driver/src/stm32f10x_spi.c ****     /* Check the I2S clock source configuration depending on the Device:
 276:firmware/STM32F10x_StdPeriph_Lib_V3.3.0/Libraries/STM32F10x_StdPeriph_Driver/src/stm32f10x_spi.c ****        Only Connectivity line devices have the PLL3 VCO clock */
 277:firmware/STM32F10x_StdPeriph_Lib_V3.3.0/Libraries/STM32F10x_StdPeriph_Driver/src/stm32f10x_spi.c **** #ifdef STM32F10X_CL
 278:firmware/STM32F10x_StdPeriph_Lib_V3.3.0/Libraries/STM32F10x_StdPeriph_Driver/src/stm32f10x_spi.c ****     if((RCC->CFGR2 & tmp) != 0)
 279:firmware/STM32F10x_StdPeriph_Lib_V3.3.0/Libraries/STM32F10x_StdPeriph_Driver/src/stm32f10x_spi.c ****     {
 280:firmware/STM32F10x_StdPeriph_Lib_V3.3.0/Libraries/STM32F10x_StdPeriph_Driver/src/stm32f10x_spi.c ****       /* Get the configuration bits of RCC PLL3 multiplier */
 281:firmware/STM32F10x_StdPeriph_Lib_V3.3.0/Libraries/STM32F10x_StdPeriph_Driver/src/stm32f10x_spi.c ****       tmp = (uint32_t)((RCC->CFGR2 & I2S_MUL_MASK) >> 12);
 282:firmware/STM32F10x_StdPeriph_Lib_V3.3.0/Libraries/STM32F10x_StdPeriph_Driver/src/stm32f10x_spi.c **** 
 283:firmware/STM32F10x_StdPeriph_Lib_V3.3.0/Libraries/STM32F10x_StdPeriph_Driver/src/stm32f10x_spi.c ****       /* Get the value of the PLL3 multiplier */      
 284:firmware/STM32F10x_StdPeriph_Lib_V3.3.0/Libraries/STM32F10x_StdPeriph_Driver/src/stm32f10x_spi.c ****       if((tmp > 5) && (tmp < 15))
 285:firmware/STM32F10x_StdPeriph_Lib_V3.3.0/Libraries/STM32F10x_StdPeriph_Driver/src/stm32f10x_spi.c ****       {
 286:firmware/STM32F10x_StdPeriph_Lib_V3.3.0/Libraries/STM32F10x_StdPeriph_Driver/src/stm32f10x_spi.c ****         /* Multplier is between 8 and 14 (value 15 is forbidden) */
 287:firmware/STM32F10x_StdPeriph_Lib_V3.3.0/Libraries/STM32F10x_StdPeriph_Driver/src/stm32f10x_spi.c ****         tmp += 2;
 288:firmware/STM32F10x_StdPeriph_Lib_V3.3.0/Libraries/STM32F10x_StdPeriph_Driver/src/stm32f10x_spi.c ****       }
 289:firmware/STM32F10x_StdPeriph_Lib_V3.3.0/Libraries/STM32F10x_StdPeriph_Driver/src/stm32f10x_spi.c ****       else
 290:firmware/STM32F10x_StdPeriph_Lib_V3.3.0/Libraries/STM32F10x_StdPeriph_Driver/src/stm32f10x_spi.c ****       {
 291:firmware/STM32F10x_StdPeriph_Lib_V3.3.0/Libraries/STM32F10x_StdPeriph_Driver/src/stm32f10x_spi.c ****         if (tmp == 15)
 292:firmware/STM32F10x_StdPeriph_Lib_V3.3.0/Libraries/STM32F10x_StdPeriph_Driver/src/stm32f10x_spi.c ****         {
 293:firmware/STM32F10x_StdPeriph_Lib_V3.3.0/Libraries/STM32F10x_StdPeriph_Driver/src/stm32f10x_spi.c ****           /* Multiplier is 20 */
 294:firmware/STM32F10x_StdPeriph_Lib_V3.3.0/Libraries/STM32F10x_StdPeriph_Driver/src/stm32f10x_spi.c ****           tmp = 20;
 295:firmware/STM32F10x_StdPeriph_Lib_V3.3.0/Libraries/STM32F10x_StdPeriph_Driver/src/stm32f10x_spi.c ****         }
 296:firmware/STM32F10x_StdPeriph_Lib_V3.3.0/Libraries/STM32F10x_StdPeriph_Driver/src/stm32f10x_spi.c ****       }      
 297:firmware/STM32F10x_StdPeriph_Lib_V3.3.0/Libraries/STM32F10x_StdPeriph_Driver/src/stm32f10x_spi.c ****       /* Get the PREDIV2 value */
 298:firmware/STM32F10x_StdPeriph_Lib_V3.3.0/Libraries/STM32F10x_StdPeriph_Driver/src/stm32f10x_spi.c ****       sourceclock = (uint32_t)(((RCC->CFGR2 & I2S_DIV_MASK) >> 4) + 1);
 299:firmware/STM32F10x_StdPeriph_Lib_V3.3.0/Libraries/STM32F10x_StdPeriph_Driver/src/stm32f10x_spi.c ****       
 300:firmware/STM32F10x_StdPeriph_Lib_V3.3.0/Libraries/STM32F10x_StdPeriph_Driver/src/stm32f10x_spi.c ****       /* Calculate the Source Clock frequency based on PLL3 and PREDIV2 values */
 301:firmware/STM32F10x_StdPeriph_Lib_V3.3.0/Libraries/STM32F10x_StdPeriph_Driver/src/stm32f10x_spi.c ****       sourceclock = (uint32_t) ((HSE_Value / sourceclock) * tmp * 2); 
 302:firmware/STM32F10x_StdPeriph_Lib_V3.3.0/Libraries/STM32F10x_StdPeriph_Driver/src/stm32f10x_spi.c ****     }
 303:firmware/STM32F10x_StdPeriph_Lib_V3.3.0/Libraries/STM32F10x_StdPeriph_Driver/src/stm32f10x_spi.c ****     else
 304:firmware/STM32F10x_StdPeriph_Lib_V3.3.0/Libraries/STM32F10x_StdPeriph_Driver/src/stm32f10x_spi.c ****     {
 305:firmware/STM32F10x_StdPeriph_Lib_V3.3.0/Libraries/STM32F10x_StdPeriph_Driver/src/stm32f10x_spi.c ****       /* I2S Clock source is System clock: Get System Clock frequency */
 306:firmware/STM32F10x_StdPeriph_Lib_V3.3.0/Libraries/STM32F10x_StdPeriph_Driver/src/stm32f10x_spi.c ****       RCC_GetClocksFreq(&RCC_Clocks);      
 307:firmware/STM32F10x_StdPeriph_Lib_V3.3.0/Libraries/STM32F10x_StdPeriph_Driver/src/stm32f10x_spi.c ****       
 308:firmware/STM32F10x_StdPeriph_Lib_V3.3.0/Libraries/STM32F10x_StdPeriph_Driver/src/stm32f10x_spi.c ****       /* Get the source clock value: based on System Clock value */
 309:firmware/STM32F10x_StdPeriph_Lib_V3.3.0/Libraries/STM32F10x_StdPeriph_Driver/src/stm32f10x_spi.c ****       sourceclock = RCC_Clocks.SYSCLK_Frequency;
 310:firmware/STM32F10x_StdPeriph_Lib_V3.3.0/Libraries/STM32F10x_StdPeriph_Driver/src/stm32f10x_spi.c ****     }        
 311:firmware/STM32F10x_StdPeriph_Lib_V3.3.0/Libraries/STM32F10x_StdPeriph_Driver/src/stm32f10x_spi.c **** #else /* STM32F10X_HD */
 312:firmware/STM32F10x_StdPeriph_Lib_V3.3.0/Libraries/STM32F10x_StdPeriph_Driver/src/stm32f10x_spi.c ****     /* I2S Clock source is System clock: Get System Clock frequency */
 313:firmware/STM32F10x_StdPeriph_Lib_V3.3.0/Libraries/STM32F10x_StdPeriph_Driver/src/stm32f10x_spi.c ****     RCC_GetClocksFreq(&RCC_Clocks);      
 219              		.loc 1 313 0
 220 0026 01A8     		add	r0, sp, #4
 221              	.LVL14:
 252:firmware/STM32F10x_StdPeriph_Lib_V3.3.0/Libraries/STM32F10x_StdPeriph_Driver/src/stm32f10x_spi.c ****     if(I2S_InitStruct->I2S_DataFormat == I2S_DataFormat_16b)
 222              		.loc 1 252 0
 223 0028 8F88     		ldrh	r7, [r1, #4]
 224              		.loc 1 313 0
 225 002a FFF7FEFF 		bl	RCC_GetClocksFreq
 226              	.LVL15:
 314:firmware/STM32F10x_StdPeriph_Lib_V3.3.0/Libraries/STM32F10x_StdPeriph_Driver/src/stm32f10x_spi.c ****       
 315:firmware/STM32F10x_StdPeriph_Lib_V3.3.0/Libraries/STM32F10x_StdPeriph_Driver/src/stm32f10x_spi.c ****     /* Get the source clock value: based on System Clock value */
 316:firmware/STM32F10x_StdPeriph_Lib_V3.3.0/Libraries/STM32F10x_StdPeriph_Driver/src/stm32f10x_spi.c ****     sourceclock = RCC_Clocks.SYSCLK_Frequency;    
 317:firmware/STM32F10x_StdPeriph_Lib_V3.3.0/Libraries/STM32F10x_StdPeriph_Driver/src/stm32f10x_spi.c **** #endif /* STM32F10X_CL */    
 318:firmware/STM32F10x_StdPeriph_Lib_V3.3.0/Libraries/STM32F10x_StdPeriph_Driver/src/stm32f10x_spi.c **** 
 319:firmware/STM32F10x_StdPeriph_Lib_V3.3.0/Libraries/STM32F10x_StdPeriph_Driver/src/stm32f10x_spi.c ****     /* Compute the Real divider depending on the MCLK output state with a flaoting point */
 320:firmware/STM32F10x_StdPeriph_Lib_V3.3.0/Libraries/STM32F10x_StdPeriph_Driver/src/stm32f10x_spi.c ****     if(I2S_InitStruct->I2S_MCLKOutput == I2S_MCLKOutput_Enable)
 227              		.loc 1 320 0
 228 002e EB88     		ldrh	r3, [r5, #6]
 255:firmware/STM32F10x_StdPeriph_Lib_V3.3.0/Libraries/STM32F10x_StdPeriph_Driver/src/stm32f10x_spi.c ****       packetlength = 1;
 229              		.loc 1 255 0
 230 0030 002F     		cmp	r7, #0
 231 0032 14BF     		ite	ne
 232 0034 0227     		movne	r7, #2
 233 0036 0127     		moveq	r7, #1
 234              	.LVL16:
 235              		.loc 1 320 0
 236 0038 B3F5007F 		cmp	r3, #512
 316:firmware/STM32F10x_StdPeriph_Lib_V3.3.0/Libraries/STM32F10x_StdPeriph_Driver/src/stm32f10x_spi.c ****     sourceclock = RCC_Clocks.SYSCLK_Frequency;    
 237              		.loc 1 316 0
 238 003c 019A     		ldr	r2, [sp, #4]
 239              	.LVL17:
 240 003e 4FF00A03 		mov	r3, #10
 241              		.loc 1 320 0
 242 0042 01D1     		bne	.L12
 321:firmware/STM32F10x_StdPeriph_Lib_V3.3.0/Libraries/STM32F10x_StdPeriph_Driver/src/stm32f10x_spi.c ****     {
 322:firmware/STM32F10x_StdPeriph_Lib_V3.3.0/Libraries/STM32F10x_StdPeriph_Driver/src/stm32f10x_spi.c ****       /* MCLK output is enabled */
 323:firmware/STM32F10x_StdPeriph_Lib_V3.3.0/Libraries/STM32F10x_StdPeriph_Driver/src/stm32f10x_spi.c ****       tmp = (uint16_t)(((((sourceclock / 256) * 10) / I2S_InitStruct->I2S_AudioFreq)) + 5);
 243              		.loc 1 323 0
 244 0044 120A     		lsrs	r2, r2, #8
 245 0046 02E0     		b	.L18
 246              	.L12:
 324:firmware/STM32F10x_StdPeriph_Lib_V3.3.0/Libraries/STM32F10x_StdPeriph_Driver/src/stm32f10x_spi.c ****     }
 325:firmware/STM32F10x_StdPeriph_Lib_V3.3.0/Libraries/STM32F10x_StdPeriph_Driver/src/stm32f10x_spi.c ****     else
 326:firmware/STM32F10x_StdPeriph_Lib_V3.3.0/Libraries/STM32F10x_StdPeriph_Driver/src/stm32f10x_spi.c ****     {
 327:firmware/STM32F10x_StdPeriph_Lib_V3.3.0/Libraries/STM32F10x_StdPeriph_Driver/src/stm32f10x_spi.c ****       /* MCLK output is disabled */
 328:firmware/STM32F10x_StdPeriph_Lib_V3.3.0/Libraries/STM32F10x_StdPeriph_Driver/src/stm32f10x_spi.c ****       tmp = (uint16_t)(((((sourceclock / (32 * packetlength)) *10 ) / I2S_InitStruct->I2S_AudioFreq
 247              		.loc 1 328 0
 248 0048 7F01     		lsls	r7, r7, #5
 249              	.LVL18:
 250 004a B2FBF7F2 		udiv	r2, r2, r7
 251              	.L18:
 252 004e 5343     		muls	r3, r2, r3
 253 0050 A968     		ldr	r1, [r5, #8]
 329:firmware/STM32F10x_StdPeriph_Lib_V3.3.0/Libraries/STM32F10x_StdPeriph_Driver/src/stm32f10x_spi.c ****     }
 330:firmware/STM32F10x_StdPeriph_Lib_V3.3.0/Libraries/STM32F10x_StdPeriph_Driver/src/stm32f10x_spi.c ****     
 331:firmware/STM32F10x_StdPeriph_Lib_V3.3.0/Libraries/STM32F10x_StdPeriph_Driver/src/stm32f10x_spi.c ****     /* Remove the flaoting point */
 332:firmware/STM32F10x_StdPeriph_Lib_V3.3.0/Libraries/STM32F10x_StdPeriph_Driver/src/stm32f10x_spi.c ****     tmp = tmp / 10;  
 254              		.loc 1 332 0
 255 0052 0A22     		movs	r2, #10
 328:firmware/STM32F10x_StdPeriph_Lib_V3.3.0/Libraries/STM32F10x_StdPeriph_Driver/src/stm32f10x_spi.c ****       tmp = (uint16_t)(((((sourceclock / (32 * packetlength)) *10 ) / I2S_InitStruct->I2S_AudioFreq
 256              		.loc 1 328 0
 257 0054 B3FBF1F3 		udiv	r3, r3, r1
 258 0058 0533     		adds	r3, r3, #5
 259 005a 9BB2     		uxth	r3, r3
 260              	.LVL19:
 261              		.loc 1 332 0
 262 005c B3FBF2F3 		udiv	r3, r3, r2
 263              	.LVL20:
 333:firmware/STM32F10x_StdPeriph_Lib_V3.3.0/Libraries/STM32F10x_StdPeriph_Driver/src/stm32f10x_spi.c ****       
 334:firmware/STM32F10x_StdPeriph_Lib_V3.3.0/Libraries/STM32F10x_StdPeriph_Driver/src/stm32f10x_spi.c ****     /* Check the parity of the divider */
 335:firmware/STM32F10x_StdPeriph_Lib_V3.3.0/Libraries/STM32F10x_StdPeriph_Driver/src/stm32f10x_spi.c ****     i2sodd = (uint16_t)(tmp & (uint16_t)0x0001);
 336:firmware/STM32F10x_StdPeriph_Lib_V3.3.0/Libraries/STM32F10x_StdPeriph_Driver/src/stm32f10x_spi.c ****    
 337:firmware/STM32F10x_StdPeriph_Lib_V3.3.0/Libraries/STM32F10x_StdPeriph_Driver/src/stm32f10x_spi.c ****     /* Compute the i2sdiv prescaler */
 338:firmware/STM32F10x_StdPeriph_Lib_V3.3.0/Libraries/STM32F10x_StdPeriph_Driver/src/stm32f10x_spi.c ****     i2sdiv = (uint16_t)((tmp - i2sodd) / 2);
 264              		.loc 1 338 0
 265 0060 03F00102 		and	r2, r3, #1
 339:firmware/STM32F10x_StdPeriph_Lib_V3.3.0/Libraries/STM32F10x_StdPeriph_Driver/src/stm32f10x_spi.c ****    
 340:firmware/STM32F10x_StdPeriph_Lib_V3.3.0/Libraries/STM32F10x_StdPeriph_Driver/src/stm32f10x_spi.c ****     /* Get the Mask for the Odd bit (SPI_I2SPR[8]) register */
 341:firmware/STM32F10x_StdPeriph_Lib_V3.3.0/Libraries/STM32F10x_StdPeriph_Driver/src/stm32f10x_spi.c ****     i2sodd = (uint16_t) (i2sodd << 8);
 266              		.loc 1 341 0
 267 0064 1202     		lsls	r2, r2, #8
 338:firmware/STM32F10x_StdPeriph_Lib_V3.3.0/Libraries/STM32F10x_StdPeriph_Driver/src/stm32f10x_spi.c ****     i2sdiv = (uint16_t)((tmp - i2sodd) / 2);
 268              		.loc 1 338 0
 269 0066 5B08     		lsrs	r3, r3, #1
 270              	.LVL21:
 271 0068 9BB2     		uxth	r3, r3
 272              	.LVL22:
 273              		.loc 1 341 0
 274 006a 92B2     		uxth	r2, r2
 275              	.LVL23:
 276 006c 00E0     		b	.L10
 277              	.LVL24:
 278              	.L15:
 245:firmware/STM32F10x_StdPeriph_Lib_V3.3.0/Libraries/STM32F10x_StdPeriph_Driver/src/stm32f10x_spi.c ****     i2sodd = (uint16_t)0;
 279              		.loc 1 245 0
 280 006e 0022     		movs	r2, #0
 281              	.LVL25:
 282              	.L10:
 342:firmware/STM32F10x_StdPeriph_Lib_V3.3.0/Libraries/STM32F10x_StdPeriph_Driver/src/stm32f10x_spi.c ****   }
 343:firmware/STM32F10x_StdPeriph_Lib_V3.3.0/Libraries/STM32F10x_StdPeriph_Driver/src/stm32f10x_spi.c ****   
 344:firmware/STM32F10x_StdPeriph_Lib_V3.3.0/Libraries/STM32F10x_StdPeriph_Driver/src/stm32f10x_spi.c ****   /* Test if the divider is 1 or 0 or greater than 0xFF */
 345:firmware/STM32F10x_StdPeriph_Lib_V3.3.0/Libraries/STM32F10x_StdPeriph_Driver/src/stm32f10x_spi.c ****   if ((i2sdiv < 2) || (i2sdiv > 0xFF))
 283              		.loc 1 345 0
 284 0070 991E     		subs	r1, r3, #2
 285 0072 89B2     		uxth	r1, r1
 346:firmware/STM32F10x_StdPeriph_Lib_V3.3.0/Libraries/STM32F10x_StdPeriph_Driver/src/stm32f10x_spi.c ****   {
 347:firmware/STM32F10x_StdPeriph_Lib_V3.3.0/Libraries/STM32F10x_StdPeriph_Driver/src/stm32f10x_spi.c ****     /* Set the default values */
 348:firmware/STM32F10x_StdPeriph_Lib_V3.3.0/Libraries/STM32F10x_StdPeriph_Driver/src/stm32f10x_spi.c ****     i2sdiv = 2;
 349:firmware/STM32F10x_StdPeriph_Lib_V3.3.0/Libraries/STM32F10x_StdPeriph_Driver/src/stm32f10x_spi.c ****     i2sodd = 0;
 286              		.loc 1 349 0
 287 0074 FE29     		cmp	r1, #254
 288 0076 28BF     		it	cs
 289 0078 0022     		movcs	r2, #0
 290              	.LVL26:
 350:firmware/STM32F10x_StdPeriph_Lib_V3.3.0/Libraries/STM32F10x_StdPeriph_Driver/src/stm32f10x_spi.c ****   }
 351:firmware/STM32F10x_StdPeriph_Lib_V3.3.0/Libraries/STM32F10x_StdPeriph_Driver/src/stm32f10x_spi.c **** 
 352:firmware/STM32F10x_StdPeriph_Lib_V3.3.0/Libraries/STM32F10x_StdPeriph_Driver/src/stm32f10x_spi.c ****   /* Write to SPIx I2SPR register the computed value */
 353:firmware/STM32F10x_StdPeriph_Lib_V3.3.0/Libraries/STM32F10x_StdPeriph_Driver/src/stm32f10x_spi.c ****   SPIx->I2SPR = (uint16_t)(i2sdiv | (uint16_t)(i2sodd | (uint16_t)I2S_InitStruct->I2S_MCLKOutput));
 291              		.loc 1 353 0
 292 007a E988     		ldrh	r1, [r5, #6]
 349:firmware/STM32F10x_StdPeriph_Lib_V3.3.0/Libraries/STM32F10x_StdPeriph_Driver/src/stm32f10x_spi.c ****     i2sodd = 0;
 293              		.loc 1 349 0
 294 007c 28BF     		it	cs
 295 007e 0223     		movcs	r3, #2
 296              	.LVL27:
 297              		.loc 1 353 0
 298 0080 1343     		orrs	r3, r3, r2
 299              	.LVL28:
 300 0082 0B43     		orrs	r3, r3, r1
 301 0084 9BB2     		uxth	r3, r3
 302 0086 2384     		strh	r3, [r4, #32]	@ movhi
 354:firmware/STM32F10x_StdPeriph_Lib_V3.3.0/Libraries/STM32F10x_StdPeriph_Driver/src/stm32f10x_spi.c ****  
 355:firmware/STM32F10x_StdPeriph_Lib_V3.3.0/Libraries/STM32F10x_StdPeriph_Driver/src/stm32f10x_spi.c ****   /* Configure the I2S with the SPI_InitStruct values */
 356:firmware/STM32F10x_StdPeriph_Lib_V3.3.0/Libraries/STM32F10x_StdPeriph_Driver/src/stm32f10x_spi.c ****   tmpreg |= (uint16_t)(I2S_Mode_Select | (uint16_t)(I2S_InitStruct->I2S_Mode | \
 357:firmware/STM32F10x_StdPeriph_Lib_V3.3.0/Libraries/STM32F10x_StdPeriph_Driver/src/stm32f10x_spi.c ****                   (uint16_t)(I2S_InitStruct->I2S_Standard | (uint16_t)(I2S_InitStruct->I2S_DataForm
 303              		.loc 1 357 0
 304 0088 2B88     		ldrh	r3, [r5, #0]
 356:firmware/STM32F10x_StdPeriph_Lib_V3.3.0/Libraries/STM32F10x_StdPeriph_Driver/src/stm32f10x_spi.c ****   tmpreg |= (uint16_t)(I2S_Mode_Select | (uint16_t)(I2S_InitStruct->I2S_Mode | \
 305              		.loc 1 356 0
 306 008a 6A88     		ldrh	r2, [r5, #2]
 307              	.LVL29:
 308              		.loc 1 357 0
 309 008c 46EA0303 		orr	r3, r6, r3
 310 0090 43F40063 		orr	r3, r3, #2048
 356:firmware/STM32F10x_StdPeriph_Lib_V3.3.0/Libraries/STM32F10x_StdPeriph_Driver/src/stm32f10x_spi.c ****   tmpreg |= (uint16_t)(I2S_Mode_Select | (uint16_t)(I2S_InitStruct->I2S_Mode | \
 311              		.loc 1 356 0
 312 0094 1343     		orrs	r3, r3, r2
 313 0096 AA88     		ldrh	r2, [r5, #4]
 314 0098 1343     		orrs	r3, r3, r2
 315 009a AA89     		ldrh	r2, [r5, #12]
 316 009c 1343     		orrs	r3, r3, r2
 317 009e 9BB2     		uxth	r3, r3
 318              	.LVL30:
 358:firmware/STM32F10x_StdPeriph_Lib_V3.3.0/Libraries/STM32F10x_StdPeriph_Driver/src/stm32f10x_spi.c ****                   (uint16_t)I2S_InitStruct->I2S_CPOL))));
 359:firmware/STM32F10x_StdPeriph_Lib_V3.3.0/Libraries/STM32F10x_StdPeriph_Driver/src/stm32f10x_spi.c ****  
 360:firmware/STM32F10x_StdPeriph_Lib_V3.3.0/Libraries/STM32F10x_StdPeriph_Driver/src/stm32f10x_spi.c ****   /* Write to SPIx I2SCFGR */  
 361:firmware/STM32F10x_StdPeriph_Lib_V3.3.0/Libraries/STM32F10x_StdPeriph_Driver/src/stm32f10x_spi.c ****   SPIx->I2SCFGR = tmpreg;   
 319              		.loc 1 361 0
 320 00a0 A383     		strh	r3, [r4, #28]	@ movhi
 362:firmware/STM32F10x_StdPeriph_Lib_V3.3.0/Libraries/STM32F10x_StdPeriph_Driver/src/stm32f10x_spi.c **** }
 321              		.loc 1 362 0
 322 00a2 07B0     		add	sp, sp, #28
 323 00a4 F0BD     		pop	{r4, r5, r6, r7, pc}
 324              		.cfi_endproc
 325              	.LFE31:
 327              		.section	.text.SPI_StructInit,"ax",%progbits
 328              		.align	1
 329              		.global	SPI_StructInit
 330              		.thumb
 331              		.thumb_func
 333              	SPI_StructInit:
 334              	.LFB32:
 363:firmware/STM32F10x_StdPeriph_Lib_V3.3.0/Libraries/STM32F10x_StdPeriph_Driver/src/stm32f10x_spi.c **** 
 364:firmware/STM32F10x_StdPeriph_Lib_V3.3.0/Libraries/STM32F10x_StdPeriph_Driver/src/stm32f10x_spi.c **** /**
 365:firmware/STM32F10x_StdPeriph_Lib_V3.3.0/Libraries/STM32F10x_StdPeriph_Driver/src/stm32f10x_spi.c ****   * @brief  Fills each SPI_InitStruct member with its default value.
 366:firmware/STM32F10x_StdPeriph_Lib_V3.3.0/Libraries/STM32F10x_StdPeriph_Driver/src/stm32f10x_spi.c ****   * @param  SPI_InitStruct : pointer to a SPI_InitTypeDef structure which will be initialized.
 367:firmware/STM32F10x_StdPeriph_Lib_V3.3.0/Libraries/STM32F10x_StdPeriph_Driver/src/stm32f10x_spi.c ****   * @retval None
 368:firmware/STM32F10x_StdPeriph_Lib_V3.3.0/Libraries/STM32F10x_StdPeriph_Driver/src/stm32f10x_spi.c ****   */
 369:firmware/STM32F10x_StdPeriph_Lib_V3.3.0/Libraries/STM32F10x_StdPeriph_Driver/src/stm32f10x_spi.c **** void SPI_StructInit(SPI_InitTypeDef* SPI_InitStruct)
 370:firmware/STM32F10x_StdPeriph_Lib_V3.3.0/Libraries/STM32F10x_StdPeriph_Driver/src/stm32f10x_spi.c **** {
 335              		.loc 1 370 0
 336              		.cfi_startproc
 337              		@ args = 0, pretend = 0, frame = 0
 338              		@ frame_needed = 0, uses_anonymous_args = 0
 339              		@ link register save eliminated.
 340              	.LVL31:
 371:firmware/STM32F10x_StdPeriph_Lib_V3.3.0/Libraries/STM32F10x_StdPeriph_Driver/src/stm32f10x_spi.c **** /*--------------- Reset SPI init structure parameters values -----------------*/
 372:firmware/STM32F10x_StdPeriph_Lib_V3.3.0/Libraries/STM32F10x_StdPeriph_Driver/src/stm32f10x_spi.c ****   /* Initialize the SPI_Direction member */
 373:firmware/STM32F10x_StdPeriph_Lib_V3.3.0/Libraries/STM32F10x_StdPeriph_Driver/src/stm32f10x_spi.c ****   SPI_InitStruct->SPI_Direction = SPI_Direction_2Lines_FullDuplex;
 341              		.loc 1 373 0
 342 0000 0023     		movs	r3, #0
 343 0002 0380     		strh	r3, [r0, #0]	@ movhi
 374:firmware/STM32F10x_StdPeriph_Lib_V3.3.0/Libraries/STM32F10x_StdPeriph_Driver/src/stm32f10x_spi.c ****   /* initialize the SPI_Mode member */
 375:firmware/STM32F10x_StdPeriph_Lib_V3.3.0/Libraries/STM32F10x_StdPeriph_Driver/src/stm32f10x_spi.c ****   SPI_InitStruct->SPI_Mode = SPI_Mode_Slave;
 344              		.loc 1 375 0
 345 0004 4380     		strh	r3, [r0, #2]	@ movhi
 376:firmware/STM32F10x_StdPeriph_Lib_V3.3.0/Libraries/STM32F10x_StdPeriph_Driver/src/stm32f10x_spi.c ****   /* initialize the SPI_DataSize member */
 377:firmware/STM32F10x_StdPeriph_Lib_V3.3.0/Libraries/STM32F10x_StdPeriph_Driver/src/stm32f10x_spi.c ****   SPI_InitStruct->SPI_DataSize = SPI_DataSize_8b;
 346              		.loc 1 377 0
 347 0006 8380     		strh	r3, [r0, #4]	@ movhi
 378:firmware/STM32F10x_StdPeriph_Lib_V3.3.0/Libraries/STM32F10x_StdPeriph_Driver/src/stm32f10x_spi.c ****   /* Initialize the SPI_CPOL member */
 379:firmware/STM32F10x_StdPeriph_Lib_V3.3.0/Libraries/STM32F10x_StdPeriph_Driver/src/stm32f10x_spi.c ****   SPI_InitStruct->SPI_CPOL = SPI_CPOL_Low;
 348              		.loc 1 379 0
 349 0008 C380     		strh	r3, [r0, #6]	@ movhi
 380:firmware/STM32F10x_StdPeriph_Lib_V3.3.0/Libraries/STM32F10x_StdPeriph_Driver/src/stm32f10x_spi.c ****   /* Initialize the SPI_CPHA member */
 381:firmware/STM32F10x_StdPeriph_Lib_V3.3.0/Libraries/STM32F10x_StdPeriph_Driver/src/stm32f10x_spi.c ****   SPI_InitStruct->SPI_CPHA = SPI_CPHA_1Edge;
 350              		.loc 1 381 0
 351 000a 0381     		strh	r3, [r0, #8]	@ movhi
 382:firmware/STM32F10x_StdPeriph_Lib_V3.3.0/Libraries/STM32F10x_StdPeriph_Driver/src/stm32f10x_spi.c ****   /* Initialize the SPI_NSS member */
 383:firmware/STM32F10x_StdPeriph_Lib_V3.3.0/Libraries/STM32F10x_StdPeriph_Driver/src/stm32f10x_spi.c ****   SPI_InitStruct->SPI_NSS = SPI_NSS_Hard;
 352              		.loc 1 383 0
 353 000c 4381     		strh	r3, [r0, #10]	@ movhi
 384:firmware/STM32F10x_StdPeriph_Lib_V3.3.0/Libraries/STM32F10x_StdPeriph_Driver/src/stm32f10x_spi.c ****   /* Initialize the SPI_BaudRatePrescaler member */
 385:firmware/STM32F10x_StdPeriph_Lib_V3.3.0/Libraries/STM32F10x_StdPeriph_Driver/src/stm32f10x_spi.c ****   SPI_InitStruct->SPI_BaudRatePrescaler = SPI_BaudRatePrescaler_2;
 354              		.loc 1 385 0
 355 000e 8381     		strh	r3, [r0, #12]	@ movhi
 386:firmware/STM32F10x_StdPeriph_Lib_V3.3.0/Libraries/STM32F10x_StdPeriph_Driver/src/stm32f10x_spi.c ****   /* Initialize the SPI_FirstBit member */
 387:firmware/STM32F10x_StdPeriph_Lib_V3.3.0/Libraries/STM32F10x_StdPeriph_Driver/src/stm32f10x_spi.c ****   SPI_InitStruct->SPI_FirstBit = SPI_FirstBit_MSB;
 356              		.loc 1 387 0
 357 0010 C381     		strh	r3, [r0, #14]	@ movhi
 388:firmware/STM32F10x_StdPeriph_Lib_V3.3.0/Libraries/STM32F10x_StdPeriph_Driver/src/stm32f10x_spi.c ****   /* Initialize the SPI_CRCPolynomial member */
 389:firmware/STM32F10x_StdPeriph_Lib_V3.3.0/Libraries/STM32F10x_StdPeriph_Driver/src/stm32f10x_spi.c ****   SPI_InitStruct->SPI_CRCPolynomial = 7;
 358              		.loc 1 389 0
 359 0012 0723     		movs	r3, #7
 360 0014 0382     		strh	r3, [r0, #16]	@ movhi
 390:firmware/STM32F10x_StdPeriph_Lib_V3.3.0/Libraries/STM32F10x_StdPeriph_Driver/src/stm32f10x_spi.c **** }
 361              		.loc 1 390 0
 362 0016 7047     		bx	lr
 363              		.cfi_endproc
 364              	.LFE32:
 366              		.section	.text.I2S_StructInit,"ax",%progbits
 367              		.align	1
 368              		.global	I2S_StructInit
 369              		.thumb
 370              		.thumb_func
 372              	I2S_StructInit:
 373              	.LFB33:
 391:firmware/STM32F10x_StdPeriph_Lib_V3.3.0/Libraries/STM32F10x_StdPeriph_Driver/src/stm32f10x_spi.c **** 
 392:firmware/STM32F10x_StdPeriph_Lib_V3.3.0/Libraries/STM32F10x_StdPeriph_Driver/src/stm32f10x_spi.c **** /**
 393:firmware/STM32F10x_StdPeriph_Lib_V3.3.0/Libraries/STM32F10x_StdPeriph_Driver/src/stm32f10x_spi.c ****   * @brief  Fills each I2S_InitStruct member with its default value.
 394:firmware/STM32F10x_StdPeriph_Lib_V3.3.0/Libraries/STM32F10x_StdPeriph_Driver/src/stm32f10x_spi.c ****   * @param  I2S_InitStruct : pointer to a I2S_InitTypeDef structure which will be initialized.
 395:firmware/STM32F10x_StdPeriph_Lib_V3.3.0/Libraries/STM32F10x_StdPeriph_Driver/src/stm32f10x_spi.c ****   * @retval None
 396:firmware/STM32F10x_StdPeriph_Lib_V3.3.0/Libraries/STM32F10x_StdPeriph_Driver/src/stm32f10x_spi.c ****   */
 397:firmware/STM32F10x_StdPeriph_Lib_V3.3.0/Libraries/STM32F10x_StdPeriph_Driver/src/stm32f10x_spi.c **** void I2S_StructInit(I2S_InitTypeDef* I2S_InitStruct)
 398:firmware/STM32F10x_StdPeriph_Lib_V3.3.0/Libraries/STM32F10x_StdPeriph_Driver/src/stm32f10x_spi.c **** {
 374              		.loc 1 398 0
 375              		.cfi_startproc
 376              		@ args = 0, pretend = 0, frame = 0
 377              		@ frame_needed = 0, uses_anonymous_args = 0
 378              		@ link register save eliminated.
 379              	.LVL32:
 399:firmware/STM32F10x_StdPeriph_Lib_V3.3.0/Libraries/STM32F10x_StdPeriph_Driver/src/stm32f10x_spi.c **** /*--------------- Reset I2S init structure parameters values -----------------*/
 400:firmware/STM32F10x_StdPeriph_Lib_V3.3.0/Libraries/STM32F10x_StdPeriph_Driver/src/stm32f10x_spi.c ****   /* Initialize the I2S_Mode member */
 401:firmware/STM32F10x_StdPeriph_Lib_V3.3.0/Libraries/STM32F10x_StdPeriph_Driver/src/stm32f10x_spi.c ****   I2S_InitStruct->I2S_Mode = I2S_Mode_SlaveTx;
 380              		.loc 1 401 0
 381 0000 0023     		movs	r3, #0
 402:firmware/STM32F10x_StdPeriph_Lib_V3.3.0/Libraries/STM32F10x_StdPeriph_Driver/src/stm32f10x_spi.c ****   
 403:firmware/STM32F10x_StdPeriph_Lib_V3.3.0/Libraries/STM32F10x_StdPeriph_Driver/src/stm32f10x_spi.c ****   /* Initialize the I2S_Standard member */
 404:firmware/STM32F10x_StdPeriph_Lib_V3.3.0/Libraries/STM32F10x_StdPeriph_Driver/src/stm32f10x_spi.c ****   I2S_InitStruct->I2S_Standard = I2S_Standard_Phillips;
 405:firmware/STM32F10x_StdPeriph_Lib_V3.3.0/Libraries/STM32F10x_StdPeriph_Driver/src/stm32f10x_spi.c ****   
 406:firmware/STM32F10x_StdPeriph_Lib_V3.3.0/Libraries/STM32F10x_StdPeriph_Driver/src/stm32f10x_spi.c ****   /* Initialize the I2S_DataFormat member */
 407:firmware/STM32F10x_StdPeriph_Lib_V3.3.0/Libraries/STM32F10x_StdPeriph_Driver/src/stm32f10x_spi.c ****   I2S_InitStruct->I2S_DataFormat = I2S_DataFormat_16b;
 408:firmware/STM32F10x_StdPeriph_Lib_V3.3.0/Libraries/STM32F10x_StdPeriph_Driver/src/stm32f10x_spi.c ****   
 409:firmware/STM32F10x_StdPeriph_Lib_V3.3.0/Libraries/STM32F10x_StdPeriph_Driver/src/stm32f10x_spi.c ****   /* Initialize the I2S_MCLKOutput member */
 410:firmware/STM32F10x_StdPeriph_Lib_V3.3.0/Libraries/STM32F10x_StdPeriph_Driver/src/stm32f10x_spi.c ****   I2S_InitStruct->I2S_MCLKOutput = I2S_MCLKOutput_Disable;
 411:firmware/STM32F10x_StdPeriph_Lib_V3.3.0/Libraries/STM32F10x_StdPeriph_Driver/src/stm32f10x_spi.c ****   
 412:firmware/STM32F10x_StdPeriph_Lib_V3.3.0/Libraries/STM32F10x_StdPeriph_Driver/src/stm32f10x_spi.c ****   /* Initialize the I2S_AudioFreq member */
 413:firmware/STM32F10x_StdPeriph_Lib_V3.3.0/Libraries/STM32F10x_StdPeriph_Driver/src/stm32f10x_spi.c ****   I2S_InitStruct->I2S_AudioFreq = I2S_AudioFreq_Default;
 382              		.loc 1 413 0
 383 0002 0222     		movs	r2, #2
 401:firmware/STM32F10x_StdPeriph_Lib_V3.3.0/Libraries/STM32F10x_StdPeriph_Driver/src/stm32f10x_spi.c ****   I2S_InitStruct->I2S_Mode = I2S_Mode_SlaveTx;
 384              		.loc 1 401 0
 385 0004 0380     		strh	r3, [r0, #0]	@ movhi
 404:firmware/STM32F10x_StdPeriph_Lib_V3.3.0/Libraries/STM32F10x_StdPeriph_Driver/src/stm32f10x_spi.c ****   I2S_InitStruct->I2S_Standard = I2S_Standard_Phillips;
 386              		.loc 1 404 0
 387 0006 4380     		strh	r3, [r0, #2]	@ movhi
 407:firmware/STM32F10x_StdPeriph_Lib_V3.3.0/Libraries/STM32F10x_StdPeriph_Driver/src/stm32f10x_spi.c ****   I2S_InitStruct->I2S_DataFormat = I2S_DataFormat_16b;
 388              		.loc 1 407 0
 389 0008 8380     		strh	r3, [r0, #4]	@ movhi
 410:firmware/STM32F10x_StdPeriph_Lib_V3.3.0/Libraries/STM32F10x_StdPeriph_Driver/src/stm32f10x_spi.c ****   I2S_InitStruct->I2S_MCLKOutput = I2S_MCLKOutput_Disable;
 390              		.loc 1 410 0
 391 000a C380     		strh	r3, [r0, #6]	@ movhi
 392              		.loc 1 413 0
 393 000c 8260     		str	r2, [r0, #8]
 414:firmware/STM32F10x_StdPeriph_Lib_V3.3.0/Libraries/STM32F10x_StdPeriph_Driver/src/stm32f10x_spi.c ****   
 415:firmware/STM32F10x_StdPeriph_Lib_V3.3.0/Libraries/STM32F10x_StdPeriph_Driver/src/stm32f10x_spi.c ****   /* Initialize the I2S_CPOL member */
 416:firmware/STM32F10x_StdPeriph_Lib_V3.3.0/Libraries/STM32F10x_StdPeriph_Driver/src/stm32f10x_spi.c ****   I2S_InitStruct->I2S_CPOL = I2S_CPOL_Low;
 394              		.loc 1 416 0
 395 000e 8381     		strh	r3, [r0, #12]	@ movhi
 417:firmware/STM32F10x_StdPeriph_Lib_V3.3.0/Libraries/STM32F10x_StdPeriph_Driver/src/stm32f10x_spi.c **** }
 396              		.loc 1 417 0
 397 0010 7047     		bx	lr
 398              		.cfi_endproc
 399              	.LFE33:
 401              		.section	.text.SPI_Cmd,"ax",%progbits
 402              		.align	1
 403              		.global	SPI_Cmd
 404              		.thumb
 405              		.thumb_func
 407              	SPI_Cmd:
 408              	.LFB34:
 418:firmware/STM32F10x_StdPeriph_Lib_V3.3.0/Libraries/STM32F10x_StdPeriph_Driver/src/stm32f10x_spi.c **** 
 419:firmware/STM32F10x_StdPeriph_Lib_V3.3.0/Libraries/STM32F10x_StdPeriph_Driver/src/stm32f10x_spi.c **** /**
 420:firmware/STM32F10x_StdPeriph_Lib_V3.3.0/Libraries/STM32F10x_StdPeriph_Driver/src/stm32f10x_spi.c ****   * @brief  Enables or disables the specified SPI peripheral.
 421:firmware/STM32F10x_StdPeriph_Lib_V3.3.0/Libraries/STM32F10x_StdPeriph_Driver/src/stm32f10x_spi.c ****   * @param  SPIx: where x can be 1, 2 or 3 to select the SPI peripheral.
 422:firmware/STM32F10x_StdPeriph_Lib_V3.3.0/Libraries/STM32F10x_StdPeriph_Driver/src/stm32f10x_spi.c ****   * @param  NewState: new state of the SPIx peripheral. 
 423:firmware/STM32F10x_StdPeriph_Lib_V3.3.0/Libraries/STM32F10x_StdPeriph_Driver/src/stm32f10x_spi.c ****   *   This parameter can be: ENABLE or DISABLE.
 424:firmware/STM32F10x_StdPeriph_Lib_V3.3.0/Libraries/STM32F10x_StdPeriph_Driver/src/stm32f10x_spi.c ****   * @retval None
 425:firmware/STM32F10x_StdPeriph_Lib_V3.3.0/Libraries/STM32F10x_StdPeriph_Driver/src/stm32f10x_spi.c ****   */
 426:firmware/STM32F10x_StdPeriph_Lib_V3.3.0/Libraries/STM32F10x_StdPeriph_Driver/src/stm32f10x_spi.c **** void SPI_Cmd(SPI_TypeDef* SPIx, FunctionalState NewState)
 427:firmware/STM32F10x_StdPeriph_Lib_V3.3.0/Libraries/STM32F10x_StdPeriph_Driver/src/stm32f10x_spi.c **** {
 409              		.loc 1 427 0
 410              		.cfi_startproc
 411              		@ args = 0, pretend = 0, frame = 0
 412              		@ frame_needed = 0, uses_anonymous_args = 0
 413              		@ link register save eliminated.
 414              	.LVL33:
 428:firmware/STM32F10x_StdPeriph_Lib_V3.3.0/Libraries/STM32F10x_StdPeriph_Driver/src/stm32f10x_spi.c ****   /* Check the parameters */
 429:firmware/STM32F10x_StdPeriph_Lib_V3.3.0/Libraries/STM32F10x_StdPeriph_Driver/src/stm32f10x_spi.c ****   assert_param(IS_SPI_ALL_PERIPH(SPIx));
 430:firmware/STM32F10x_StdPeriph_Lib_V3.3.0/Libraries/STM32F10x_StdPeriph_Driver/src/stm32f10x_spi.c ****   assert_param(IS_FUNCTIONAL_STATE(NewState));
 431:firmware/STM32F10x_StdPeriph_Lib_V3.3.0/Libraries/STM32F10x_StdPeriph_Driver/src/stm32f10x_spi.c ****   if (NewState != DISABLE)
 415              		.loc 1 431 0
 416 0000 21B1     		cbz	r1, .L22
 432:firmware/STM32F10x_StdPeriph_Lib_V3.3.0/Libraries/STM32F10x_StdPeriph_Driver/src/stm32f10x_spi.c ****   {
 433:firmware/STM32F10x_StdPeriph_Lib_V3.3.0/Libraries/STM32F10x_StdPeriph_Driver/src/stm32f10x_spi.c ****     /* Enable the selected SPI peripheral */
 434:firmware/STM32F10x_StdPeriph_Lib_V3.3.0/Libraries/STM32F10x_StdPeriph_Driver/src/stm32f10x_spi.c ****     SPIx->CR1 |= CR1_SPE_Set;
 417              		.loc 1 434 0
 418 0002 0388     		ldrh	r3, [r0, #0]
 419 0004 9BB2     		uxth	r3, r3
 420 0006 43F04003 		orr	r3, r3, #64
 421 000a 04E0     		b	.L24
 422              	.L22:
 435:firmware/STM32F10x_StdPeriph_Lib_V3.3.0/Libraries/STM32F10x_StdPeriph_Driver/src/stm32f10x_spi.c ****   }
 436:firmware/STM32F10x_StdPeriph_Lib_V3.3.0/Libraries/STM32F10x_StdPeriph_Driver/src/stm32f10x_spi.c ****   else
 437:firmware/STM32F10x_StdPeriph_Lib_V3.3.0/Libraries/STM32F10x_StdPeriph_Driver/src/stm32f10x_spi.c ****   {
 438:firmware/STM32F10x_StdPeriph_Lib_V3.3.0/Libraries/STM32F10x_StdPeriph_Driver/src/stm32f10x_spi.c ****     /* Disable the selected SPI peripheral */
 439:firmware/STM32F10x_StdPeriph_Lib_V3.3.0/Libraries/STM32F10x_StdPeriph_Driver/src/stm32f10x_spi.c ****     SPIx->CR1 &= CR1_SPE_Reset;
 423              		.loc 1 439 0
 424 000c 0388     		ldrh	r3, [r0, #0]
 425 000e 23F04003 		bic	r3, r3, #64
 426 0012 1B04     		lsls	r3, r3, #16
 427 0014 1B0C     		lsrs	r3, r3, #16
 428              	.L24:
 429 0016 0380     		strh	r3, [r0, #0]	@ movhi
 430 0018 7047     		bx	lr
 431              		.cfi_endproc
 432              	.LFE34:
 434              		.section	.text.I2S_Cmd,"ax",%progbits
 435              		.align	1
 436              		.global	I2S_Cmd
 437              		.thumb
 438              		.thumb_func
 440              	I2S_Cmd:
 441              	.LFB35:
 440:firmware/STM32F10x_StdPeriph_Lib_V3.3.0/Libraries/STM32F10x_StdPeriph_Driver/src/stm32f10x_spi.c ****   }
 441:firmware/STM32F10x_StdPeriph_Lib_V3.3.0/Libraries/STM32F10x_StdPeriph_Driver/src/stm32f10x_spi.c **** }
 442:firmware/STM32F10x_StdPeriph_Lib_V3.3.0/Libraries/STM32F10x_StdPeriph_Driver/src/stm32f10x_spi.c **** 
 443:firmware/STM32F10x_StdPeriph_Lib_V3.3.0/Libraries/STM32F10x_StdPeriph_Driver/src/stm32f10x_spi.c **** /**
 444:firmware/STM32F10x_StdPeriph_Lib_V3.3.0/Libraries/STM32F10x_StdPeriph_Driver/src/stm32f10x_spi.c ****   * @brief  Enables or disables the specified SPI peripheral (in I2S mode).
 445:firmware/STM32F10x_StdPeriph_Lib_V3.3.0/Libraries/STM32F10x_StdPeriph_Driver/src/stm32f10x_spi.c ****   * @param  SPIx: where x can be 2 or 3 to select the SPI peripheral.
 446:firmware/STM32F10x_StdPeriph_Lib_V3.3.0/Libraries/STM32F10x_StdPeriph_Driver/src/stm32f10x_spi.c ****   * @param  NewState: new state of the SPIx peripheral. 
 447:firmware/STM32F10x_StdPeriph_Lib_V3.3.0/Libraries/STM32F10x_StdPeriph_Driver/src/stm32f10x_spi.c ****   *   This parameter can be: ENABLE or DISABLE.
 448:firmware/STM32F10x_StdPeriph_Lib_V3.3.0/Libraries/STM32F10x_StdPeriph_Driver/src/stm32f10x_spi.c ****   * @retval None
 449:firmware/STM32F10x_StdPeriph_Lib_V3.3.0/Libraries/STM32F10x_StdPeriph_Driver/src/stm32f10x_spi.c ****   */
 450:firmware/STM32F10x_StdPeriph_Lib_V3.3.0/Libraries/STM32F10x_StdPeriph_Driver/src/stm32f10x_spi.c **** void I2S_Cmd(SPI_TypeDef* SPIx, FunctionalState NewState)
 451:firmware/STM32F10x_StdPeriph_Lib_V3.3.0/Libraries/STM32F10x_StdPeriph_Driver/src/stm32f10x_spi.c **** {
 442              		.loc 1 451 0
 443              		.cfi_startproc
 444              		@ args = 0, pretend = 0, frame = 0
 445              		@ frame_needed = 0, uses_anonymous_args = 0
 446              		@ link register save eliminated.
 447              	.LVL34:
 452:firmware/STM32F10x_StdPeriph_Lib_V3.3.0/Libraries/STM32F10x_StdPeriph_Driver/src/stm32f10x_spi.c ****   /* Check the parameters */
 453:firmware/STM32F10x_StdPeriph_Lib_V3.3.0/Libraries/STM32F10x_StdPeriph_Driver/src/stm32f10x_spi.c ****   assert_param(IS_SPI_23_PERIPH(SPIx));
 454:firmware/STM32F10x_StdPeriph_Lib_V3.3.0/Libraries/STM32F10x_StdPeriph_Driver/src/stm32f10x_spi.c ****   assert_param(IS_FUNCTIONAL_STATE(NewState));
 455:firmware/STM32F10x_StdPeriph_Lib_V3.3.0/Libraries/STM32F10x_StdPeriph_Driver/src/stm32f10x_spi.c ****   if (NewState != DISABLE)
 448              		.loc 1 455 0
 449 0000 21B1     		cbz	r1, .L26
 456:firmware/STM32F10x_StdPeriph_Lib_V3.3.0/Libraries/STM32F10x_StdPeriph_Driver/src/stm32f10x_spi.c ****   {
 457:firmware/STM32F10x_StdPeriph_Lib_V3.3.0/Libraries/STM32F10x_StdPeriph_Driver/src/stm32f10x_spi.c ****     /* Enable the selected SPI peripheral (in I2S mode) */
 458:firmware/STM32F10x_StdPeriph_Lib_V3.3.0/Libraries/STM32F10x_StdPeriph_Driver/src/stm32f10x_spi.c ****     SPIx->I2SCFGR |= I2SCFGR_I2SE_Set;
 450              		.loc 1 458 0
 451 0002 838B     		ldrh	r3, [r0, #28]
 452 0004 9BB2     		uxth	r3, r3
 453 0006 43F48063 		orr	r3, r3, #1024
 454 000a 04E0     		b	.L28
 455              	.L26:
 459:firmware/STM32F10x_StdPeriph_Lib_V3.3.0/Libraries/STM32F10x_StdPeriph_Driver/src/stm32f10x_spi.c ****   }
 460:firmware/STM32F10x_StdPeriph_Lib_V3.3.0/Libraries/STM32F10x_StdPeriph_Driver/src/stm32f10x_spi.c ****   else
 461:firmware/STM32F10x_StdPeriph_Lib_V3.3.0/Libraries/STM32F10x_StdPeriph_Driver/src/stm32f10x_spi.c ****   {
 462:firmware/STM32F10x_StdPeriph_Lib_V3.3.0/Libraries/STM32F10x_StdPeriph_Driver/src/stm32f10x_spi.c ****     /* Disable the selected SPI peripheral (in I2S mode) */
 463:firmware/STM32F10x_StdPeriph_Lib_V3.3.0/Libraries/STM32F10x_StdPeriph_Driver/src/stm32f10x_spi.c ****     SPIx->I2SCFGR &= I2SCFGR_I2SE_Reset;
 456              		.loc 1 463 0
 457 000c 838B     		ldrh	r3, [r0, #28]
 458 000e 23F48063 		bic	r3, r3, #1024
 459 0012 1B04     		lsls	r3, r3, #16
 460 0014 1B0C     		lsrs	r3, r3, #16
 461              	.L28:
 462 0016 8383     		strh	r3, [r0, #28]	@ movhi
 463 0018 7047     		bx	lr
 464              		.cfi_endproc
 465              	.LFE35:
 467              		.section	.text.SPI_I2S_ITConfig,"ax",%progbits
 468              		.align	1
 469              		.global	SPI_I2S_ITConfig
 470              		.thumb
 471              		.thumb_func
 473              	SPI_I2S_ITConfig:
 474              	.LFB36:
 464:firmware/STM32F10x_StdPeriph_Lib_V3.3.0/Libraries/STM32F10x_StdPeriph_Driver/src/stm32f10x_spi.c ****   }
 465:firmware/STM32F10x_StdPeriph_Lib_V3.3.0/Libraries/STM32F10x_StdPeriph_Driver/src/stm32f10x_spi.c **** }
 466:firmware/STM32F10x_StdPeriph_Lib_V3.3.0/Libraries/STM32F10x_StdPeriph_Driver/src/stm32f10x_spi.c **** 
 467:firmware/STM32F10x_StdPeriph_Lib_V3.3.0/Libraries/STM32F10x_StdPeriph_Driver/src/stm32f10x_spi.c **** /**
 468:firmware/STM32F10x_StdPeriph_Lib_V3.3.0/Libraries/STM32F10x_StdPeriph_Driver/src/stm32f10x_spi.c ****   * @brief  Enables or disables the specified SPI/I2S interrupts.
 469:firmware/STM32F10x_StdPeriph_Lib_V3.3.0/Libraries/STM32F10x_StdPeriph_Driver/src/stm32f10x_spi.c ****   * @param  SPIx: where x can be
 470:firmware/STM32F10x_StdPeriph_Lib_V3.3.0/Libraries/STM32F10x_StdPeriph_Driver/src/stm32f10x_spi.c ****   *   - 1, 2 or 3 in SPI mode 
 471:firmware/STM32F10x_StdPeriph_Lib_V3.3.0/Libraries/STM32F10x_StdPeriph_Driver/src/stm32f10x_spi.c ****   *   - 2 or 3 in I2S mode
 472:firmware/STM32F10x_StdPeriph_Lib_V3.3.0/Libraries/STM32F10x_StdPeriph_Driver/src/stm32f10x_spi.c ****   * @param  SPI_I2S_IT: specifies the SPI/I2S interrupt source to be enabled or disabled. 
 473:firmware/STM32F10x_StdPeriph_Lib_V3.3.0/Libraries/STM32F10x_StdPeriph_Driver/src/stm32f10x_spi.c ****   *   This parameter can be one of the following values:
 474:firmware/STM32F10x_StdPeriph_Lib_V3.3.0/Libraries/STM32F10x_StdPeriph_Driver/src/stm32f10x_spi.c ****   *     @arg SPI_I2S_IT_TXE: Tx buffer empty interrupt mask
 475:firmware/STM32F10x_StdPeriph_Lib_V3.3.0/Libraries/STM32F10x_StdPeriph_Driver/src/stm32f10x_spi.c ****   *     @arg SPI_I2S_IT_RXNE: Rx buffer not empty interrupt mask
 476:firmware/STM32F10x_StdPeriph_Lib_V3.3.0/Libraries/STM32F10x_StdPeriph_Driver/src/stm32f10x_spi.c ****   *     @arg SPI_I2S_IT_ERR: Error interrupt mask
 477:firmware/STM32F10x_StdPeriph_Lib_V3.3.0/Libraries/STM32F10x_StdPeriph_Driver/src/stm32f10x_spi.c ****   * @param  NewState: new state of the specified SPI/I2S interrupt.
 478:firmware/STM32F10x_StdPeriph_Lib_V3.3.0/Libraries/STM32F10x_StdPeriph_Driver/src/stm32f10x_spi.c ****   *   This parameter can be: ENABLE or DISABLE.
 479:firmware/STM32F10x_StdPeriph_Lib_V3.3.0/Libraries/STM32F10x_StdPeriph_Driver/src/stm32f10x_spi.c ****   * @retval None
 480:firmware/STM32F10x_StdPeriph_Lib_V3.3.0/Libraries/STM32F10x_StdPeriph_Driver/src/stm32f10x_spi.c ****   */
 481:firmware/STM32F10x_StdPeriph_Lib_V3.3.0/Libraries/STM32F10x_StdPeriph_Driver/src/stm32f10x_spi.c **** void SPI_I2S_ITConfig(SPI_TypeDef* SPIx, uint8_t SPI_I2S_IT, FunctionalState NewState)
 482:firmware/STM32F10x_StdPeriph_Lib_V3.3.0/Libraries/STM32F10x_StdPeriph_Driver/src/stm32f10x_spi.c **** {
 475              		.loc 1 482 0
 476              		.cfi_startproc
 477              		@ args = 0, pretend = 0, frame = 0
 478              		@ frame_needed = 0, uses_anonymous_args = 0
 479              		@ link register save eliminated.
 480              	.LVL35:
 483:firmware/STM32F10x_StdPeriph_Lib_V3.3.0/Libraries/STM32F10x_StdPeriph_Driver/src/stm32f10x_spi.c ****   uint16_t itpos = 0, itmask = 0 ;
 484:firmware/STM32F10x_StdPeriph_Lib_V3.3.0/Libraries/STM32F10x_StdPeriph_Driver/src/stm32f10x_spi.c ****   /* Check the parameters */
 485:firmware/STM32F10x_StdPeriph_Lib_V3.3.0/Libraries/STM32F10x_StdPeriph_Driver/src/stm32f10x_spi.c ****   assert_param(IS_SPI_ALL_PERIPH(SPIx));
 486:firmware/STM32F10x_StdPeriph_Lib_V3.3.0/Libraries/STM32F10x_StdPeriph_Driver/src/stm32f10x_spi.c ****   assert_param(IS_FUNCTIONAL_STATE(NewState));
 487:firmware/STM32F10x_StdPeriph_Lib_V3.3.0/Libraries/STM32F10x_StdPeriph_Driver/src/stm32f10x_spi.c ****   assert_param(IS_SPI_I2S_CONFIG_IT(SPI_I2S_IT));
 488:firmware/STM32F10x_StdPeriph_Lib_V3.3.0/Libraries/STM32F10x_StdPeriph_Driver/src/stm32f10x_spi.c **** 
 489:firmware/STM32F10x_StdPeriph_Lib_V3.3.0/Libraries/STM32F10x_StdPeriph_Driver/src/stm32f10x_spi.c ****   /* Get the SPI/I2S IT index */
 490:firmware/STM32F10x_StdPeriph_Lib_V3.3.0/Libraries/STM32F10x_StdPeriph_Driver/src/stm32f10x_spi.c ****   itpos = SPI_I2S_IT >> 4;
 491:firmware/STM32F10x_StdPeriph_Lib_V3.3.0/Libraries/STM32F10x_StdPeriph_Driver/src/stm32f10x_spi.c **** 
 492:firmware/STM32F10x_StdPeriph_Lib_V3.3.0/Libraries/STM32F10x_StdPeriph_Driver/src/stm32f10x_spi.c ****   /* Set the IT mask */
 493:firmware/STM32F10x_StdPeriph_Lib_V3.3.0/Libraries/STM32F10x_StdPeriph_Driver/src/stm32f10x_spi.c ****   itmask = (uint16_t)1 << (uint16_t)itpos;
 481              		.loc 1 493 0
 482 0000 0909     		lsrs	r1, r1, #4
 483              	.LVL36:
 484 0002 0123     		movs	r3, #1
 485 0004 8B40     		lsls	r3, r3, r1
 486 0006 9BB2     		uxth	r3, r3
 487              	.LVL37:
 494:firmware/STM32F10x_StdPeriph_Lib_V3.3.0/Libraries/STM32F10x_StdPeriph_Driver/src/stm32f10x_spi.c **** 
 495:firmware/STM32F10x_StdPeriph_Lib_V3.3.0/Libraries/STM32F10x_StdPeriph_Driver/src/stm32f10x_spi.c ****   if (NewState != DISABLE)
 488              		.loc 1 495 0
 489 0008 1AB1     		cbz	r2, .L30
 496:firmware/STM32F10x_StdPeriph_Lib_V3.3.0/Libraries/STM32F10x_StdPeriph_Driver/src/stm32f10x_spi.c ****   {
 497:firmware/STM32F10x_StdPeriph_Lib_V3.3.0/Libraries/STM32F10x_StdPeriph_Driver/src/stm32f10x_spi.c ****     /* Enable the selected SPI/I2S interrupt */
 498:firmware/STM32F10x_StdPeriph_Lib_V3.3.0/Libraries/STM32F10x_StdPeriph_Driver/src/stm32f10x_spi.c ****     SPIx->CR2 |= itmask;
 490              		.loc 1 498 0
 491 000a 8288     		ldrh	r2, [r0, #4]
 492              	.LVL38:
 493 000c 92B2     		uxth	r2, r2
 494 000e 1343     		orrs	r3, r3, r2
 495              	.LVL39:
 496 0010 03E0     		b	.L32
 497              	.LVL40:
 498              	.L30:
 499:firmware/STM32F10x_StdPeriph_Lib_V3.3.0/Libraries/STM32F10x_StdPeriph_Driver/src/stm32f10x_spi.c ****   }
 500:firmware/STM32F10x_StdPeriph_Lib_V3.3.0/Libraries/STM32F10x_StdPeriph_Driver/src/stm32f10x_spi.c ****   else
 501:firmware/STM32F10x_StdPeriph_Lib_V3.3.0/Libraries/STM32F10x_StdPeriph_Driver/src/stm32f10x_spi.c ****   {
 502:firmware/STM32F10x_StdPeriph_Lib_V3.3.0/Libraries/STM32F10x_StdPeriph_Driver/src/stm32f10x_spi.c ****     /* Disable the selected SPI/I2S interrupt */
 503:firmware/STM32F10x_StdPeriph_Lib_V3.3.0/Libraries/STM32F10x_StdPeriph_Driver/src/stm32f10x_spi.c ****     SPIx->CR2 &= (uint16_t)~itmask;
 499              		.loc 1 503 0
 500 0012 8288     		ldrh	r2, [r0, #4]
 501              	.LVL41:
 502 0014 92B2     		uxth	r2, r2
 503 0016 22EA0303 		bic	r3, r2, r3
 504              	.LVL42:
 505              	.L32:
 506 001a 8380     		strh	r3, [r0, #4]	@ movhi
 507 001c 7047     		bx	lr
 508              		.cfi_endproc
 509              	.LFE36:
 511              		.section	.text.SPI_I2S_DMACmd,"ax",%progbits
 512              		.align	1
 513              		.global	SPI_I2S_DMACmd
 514              		.thumb
 515              		.thumb_func
 517              	SPI_I2S_DMACmd:
 518              	.LFB37:
 504:firmware/STM32F10x_StdPeriph_Lib_V3.3.0/Libraries/STM32F10x_StdPeriph_Driver/src/stm32f10x_spi.c ****   }
 505:firmware/STM32F10x_StdPeriph_Lib_V3.3.0/Libraries/STM32F10x_StdPeriph_Driver/src/stm32f10x_spi.c **** }
 506:firmware/STM32F10x_StdPeriph_Lib_V3.3.0/Libraries/STM32F10x_StdPeriph_Driver/src/stm32f10x_spi.c **** 
 507:firmware/STM32F10x_StdPeriph_Lib_V3.3.0/Libraries/STM32F10x_StdPeriph_Driver/src/stm32f10x_spi.c **** /**
 508:firmware/STM32F10x_StdPeriph_Lib_V3.3.0/Libraries/STM32F10x_StdPeriph_Driver/src/stm32f10x_spi.c ****   * @brief  Enables or disables the SPIx/I2Sx DMA interface.
 509:firmware/STM32F10x_StdPeriph_Lib_V3.3.0/Libraries/STM32F10x_StdPeriph_Driver/src/stm32f10x_spi.c ****   * @param  SPIx: where x can be
 510:firmware/STM32F10x_StdPeriph_Lib_V3.3.0/Libraries/STM32F10x_StdPeriph_Driver/src/stm32f10x_spi.c ****   *   - 1, 2 or 3 in SPI mode 
 511:firmware/STM32F10x_StdPeriph_Lib_V3.3.0/Libraries/STM32F10x_StdPeriph_Driver/src/stm32f10x_spi.c ****   *   - 2 or 3 in I2S mode
 512:firmware/STM32F10x_StdPeriph_Lib_V3.3.0/Libraries/STM32F10x_StdPeriph_Driver/src/stm32f10x_spi.c ****   * @param  SPI_I2S_DMAReq: specifies the SPI/I2S DMA transfer request to be enabled or disabled. 
 513:firmware/STM32F10x_StdPeriph_Lib_V3.3.0/Libraries/STM32F10x_StdPeriph_Driver/src/stm32f10x_spi.c ****   *   This parameter can be any combination of the following values:
 514:firmware/STM32F10x_StdPeriph_Lib_V3.3.0/Libraries/STM32F10x_StdPeriph_Driver/src/stm32f10x_spi.c ****   *     @arg SPI_I2S_DMAReq_Tx: Tx buffer DMA transfer request
 515:firmware/STM32F10x_StdPeriph_Lib_V3.3.0/Libraries/STM32F10x_StdPeriph_Driver/src/stm32f10x_spi.c ****   *     @arg SPI_I2S_DMAReq_Rx: Rx buffer DMA transfer request
 516:firmware/STM32F10x_StdPeriph_Lib_V3.3.0/Libraries/STM32F10x_StdPeriph_Driver/src/stm32f10x_spi.c ****   * @param  NewState: new state of the selected SPI/I2S DMA transfer request.
 517:firmware/STM32F10x_StdPeriph_Lib_V3.3.0/Libraries/STM32F10x_StdPeriph_Driver/src/stm32f10x_spi.c ****   *   This parameter can be: ENABLE or DISABLE.
 518:firmware/STM32F10x_StdPeriph_Lib_V3.3.0/Libraries/STM32F10x_StdPeriph_Driver/src/stm32f10x_spi.c ****   * @retval None
 519:firmware/STM32F10x_StdPeriph_Lib_V3.3.0/Libraries/STM32F10x_StdPeriph_Driver/src/stm32f10x_spi.c ****   */
 520:firmware/STM32F10x_StdPeriph_Lib_V3.3.0/Libraries/STM32F10x_StdPeriph_Driver/src/stm32f10x_spi.c **** void SPI_I2S_DMACmd(SPI_TypeDef* SPIx, uint16_t SPI_I2S_DMAReq, FunctionalState NewState)
 521:firmware/STM32F10x_StdPeriph_Lib_V3.3.0/Libraries/STM32F10x_StdPeriph_Driver/src/stm32f10x_spi.c **** {
 519              		.loc 1 521 0
 520              		.cfi_startproc
 521              		@ args = 0, pretend = 0, frame = 0
 522              		@ frame_needed = 0, uses_anonymous_args = 0
 523              		@ link register save eliminated.
 524              	.LVL43:
 522:firmware/STM32F10x_StdPeriph_Lib_V3.3.0/Libraries/STM32F10x_StdPeriph_Driver/src/stm32f10x_spi.c ****   /* Check the parameters */
 523:firmware/STM32F10x_StdPeriph_Lib_V3.3.0/Libraries/STM32F10x_StdPeriph_Driver/src/stm32f10x_spi.c ****   assert_param(IS_SPI_ALL_PERIPH(SPIx));
 524:firmware/STM32F10x_StdPeriph_Lib_V3.3.0/Libraries/STM32F10x_StdPeriph_Driver/src/stm32f10x_spi.c ****   assert_param(IS_FUNCTIONAL_STATE(NewState));
 525:firmware/STM32F10x_StdPeriph_Lib_V3.3.0/Libraries/STM32F10x_StdPeriph_Driver/src/stm32f10x_spi.c ****   assert_param(IS_SPI_I2S_DMAREQ(SPI_I2S_DMAReq));
 526:firmware/STM32F10x_StdPeriph_Lib_V3.3.0/Libraries/STM32F10x_StdPeriph_Driver/src/stm32f10x_spi.c ****   if (NewState != DISABLE)
 525              		.loc 1 526 0
 526 0000 1AB1     		cbz	r2, .L34
 527:firmware/STM32F10x_StdPeriph_Lib_V3.3.0/Libraries/STM32F10x_StdPeriph_Driver/src/stm32f10x_spi.c ****   {
 528:firmware/STM32F10x_StdPeriph_Lib_V3.3.0/Libraries/STM32F10x_StdPeriph_Driver/src/stm32f10x_spi.c ****     /* Enable the selected SPI/I2S DMA requests */
 529:firmware/STM32F10x_StdPeriph_Lib_V3.3.0/Libraries/STM32F10x_StdPeriph_Driver/src/stm32f10x_spi.c ****     SPIx->CR2 |= SPI_I2S_DMAReq;
 527              		.loc 1 529 0
 528 0002 8388     		ldrh	r3, [r0, #4]
 529 0004 9BB2     		uxth	r3, r3
 530 0006 1943     		orrs	r1, r1, r3
 531              	.LVL44:
 532 0008 03E0     		b	.L36
 533              	.LVL45:
 534              	.L34:
 530:firmware/STM32F10x_StdPeriph_Lib_V3.3.0/Libraries/STM32F10x_StdPeriph_Driver/src/stm32f10x_spi.c ****   }
 531:firmware/STM32F10x_StdPeriph_Lib_V3.3.0/Libraries/STM32F10x_StdPeriph_Driver/src/stm32f10x_spi.c ****   else
 532:firmware/STM32F10x_StdPeriph_Lib_V3.3.0/Libraries/STM32F10x_StdPeriph_Driver/src/stm32f10x_spi.c ****   {
 533:firmware/STM32F10x_StdPeriph_Lib_V3.3.0/Libraries/STM32F10x_StdPeriph_Driver/src/stm32f10x_spi.c ****     /* Disable the selected SPI/I2S DMA requests */
 534:firmware/STM32F10x_StdPeriph_Lib_V3.3.0/Libraries/STM32F10x_StdPeriph_Driver/src/stm32f10x_spi.c ****     SPIx->CR2 &= (uint16_t)~SPI_I2S_DMAReq;
 535              		.loc 1 534 0
 536 000a 8388     		ldrh	r3, [r0, #4]
 537 000c 9BB2     		uxth	r3, r3
 538 000e 23EA0101 		bic	r1, r3, r1
 539              	.LVL46:
 540              	.L36:
 541 0012 8180     		strh	r1, [r0, #4]	@ movhi
 542 0014 7047     		bx	lr
 543              		.cfi_endproc
 544              	.LFE37:
 546              		.section	.text.SPI_I2S_SendData,"ax",%progbits
 547              		.align	1
 548              		.global	SPI_I2S_SendData
 549              		.thumb
 550              		.thumb_func
 552              	SPI_I2S_SendData:
 553              	.LFB38:
 535:firmware/STM32F10x_StdPeriph_Lib_V3.3.0/Libraries/STM32F10x_StdPeriph_Driver/src/stm32f10x_spi.c ****   }
 536:firmware/STM32F10x_StdPeriph_Lib_V3.3.0/Libraries/STM32F10x_StdPeriph_Driver/src/stm32f10x_spi.c **** }
 537:firmware/STM32F10x_StdPeriph_Lib_V3.3.0/Libraries/STM32F10x_StdPeriph_Driver/src/stm32f10x_spi.c **** 
 538:firmware/STM32F10x_StdPeriph_Lib_V3.3.0/Libraries/STM32F10x_StdPeriph_Driver/src/stm32f10x_spi.c **** /**
 539:firmware/STM32F10x_StdPeriph_Lib_V3.3.0/Libraries/STM32F10x_StdPeriph_Driver/src/stm32f10x_spi.c ****   * @brief  Transmits a Data through the SPIx/I2Sx peripheral.
 540:firmware/STM32F10x_StdPeriph_Lib_V3.3.0/Libraries/STM32F10x_StdPeriph_Driver/src/stm32f10x_spi.c ****   * @param  SPIx: where x can be
 541:firmware/STM32F10x_StdPeriph_Lib_V3.3.0/Libraries/STM32F10x_StdPeriph_Driver/src/stm32f10x_spi.c ****   *   - 1, 2 or 3 in SPI mode 
 542:firmware/STM32F10x_StdPeriph_Lib_V3.3.0/Libraries/STM32F10x_StdPeriph_Driver/src/stm32f10x_spi.c ****   *   - 2 or 3 in I2S mode
 543:firmware/STM32F10x_StdPeriph_Lib_V3.3.0/Libraries/STM32F10x_StdPeriph_Driver/src/stm32f10x_spi.c ****   * @param  Data : Data to be transmitted.
 544:firmware/STM32F10x_StdPeriph_Lib_V3.3.0/Libraries/STM32F10x_StdPeriph_Driver/src/stm32f10x_spi.c ****   * @retval None
 545:firmware/STM32F10x_StdPeriph_Lib_V3.3.0/Libraries/STM32F10x_StdPeriph_Driver/src/stm32f10x_spi.c ****   */
 546:firmware/STM32F10x_StdPeriph_Lib_V3.3.0/Libraries/STM32F10x_StdPeriph_Driver/src/stm32f10x_spi.c **** void SPI_I2S_SendData(SPI_TypeDef* SPIx, uint16_t Data)
 547:firmware/STM32F10x_StdPeriph_Lib_V3.3.0/Libraries/STM32F10x_StdPeriph_Driver/src/stm32f10x_spi.c **** {
 554              		.loc 1 547 0
 555              		.cfi_startproc
 556              		@ args = 0, pretend = 0, frame = 0
 557              		@ frame_needed = 0, uses_anonymous_args = 0
 558              		@ link register save eliminated.
 559              	.LVL47:
 548:firmware/STM32F10x_StdPeriph_Lib_V3.3.0/Libraries/STM32F10x_StdPeriph_Driver/src/stm32f10x_spi.c ****   /* Check the parameters */
 549:firmware/STM32F10x_StdPeriph_Lib_V3.3.0/Libraries/STM32F10x_StdPeriph_Driver/src/stm32f10x_spi.c ****   assert_param(IS_SPI_ALL_PERIPH(SPIx));
 550:firmware/STM32F10x_StdPeriph_Lib_V3.3.0/Libraries/STM32F10x_StdPeriph_Driver/src/stm32f10x_spi.c ****   
 551:firmware/STM32F10x_StdPeriph_Lib_V3.3.0/Libraries/STM32F10x_StdPeriph_Driver/src/stm32f10x_spi.c ****   /* Write in the DR register the data to be sent */
 552:firmware/STM32F10x_StdPeriph_Lib_V3.3.0/Libraries/STM32F10x_StdPeriph_Driver/src/stm32f10x_spi.c ****   SPIx->DR = Data;
 560              		.loc 1 552 0
 561 0000 8181     		strh	r1, [r0, #12]	@ movhi
 553:firmware/STM32F10x_StdPeriph_Lib_V3.3.0/Libraries/STM32F10x_StdPeriph_Driver/src/stm32f10x_spi.c **** }
 562              		.loc 1 553 0
 563 0002 7047     		bx	lr
 564              		.cfi_endproc
 565              	.LFE38:
 567              		.section	.text.SPI_I2S_ReceiveData,"ax",%progbits
 568              		.align	1
 569              		.global	SPI_I2S_ReceiveData
 570              		.thumb
 571              		.thumb_func
 573              	SPI_I2S_ReceiveData:
 574              	.LFB39:
 554:firmware/STM32F10x_StdPeriph_Lib_V3.3.0/Libraries/STM32F10x_StdPeriph_Driver/src/stm32f10x_spi.c **** 
 555:firmware/STM32F10x_StdPeriph_Lib_V3.3.0/Libraries/STM32F10x_StdPeriph_Driver/src/stm32f10x_spi.c **** /**
 556:firmware/STM32F10x_StdPeriph_Lib_V3.3.0/Libraries/STM32F10x_StdPeriph_Driver/src/stm32f10x_spi.c ****   * @brief  Returns the most recent received data by the SPIx/I2Sx peripheral. 
 557:firmware/STM32F10x_StdPeriph_Lib_V3.3.0/Libraries/STM32F10x_StdPeriph_Driver/src/stm32f10x_spi.c ****   * @param  SPIx: where x can be
 558:firmware/STM32F10x_StdPeriph_Lib_V3.3.0/Libraries/STM32F10x_StdPeriph_Driver/src/stm32f10x_spi.c ****   *   - 1, 2 or 3 in SPI mode 
 559:firmware/STM32F10x_StdPeriph_Lib_V3.3.0/Libraries/STM32F10x_StdPeriph_Driver/src/stm32f10x_spi.c ****   *   - 2 or 3 in I2S mode
 560:firmware/STM32F10x_StdPeriph_Lib_V3.3.0/Libraries/STM32F10x_StdPeriph_Driver/src/stm32f10x_spi.c ****   * @retval The value of the received data.
 561:firmware/STM32F10x_StdPeriph_Lib_V3.3.0/Libraries/STM32F10x_StdPeriph_Driver/src/stm32f10x_spi.c ****   */
 562:firmware/STM32F10x_StdPeriph_Lib_V3.3.0/Libraries/STM32F10x_StdPeriph_Driver/src/stm32f10x_spi.c **** uint16_t SPI_I2S_ReceiveData(SPI_TypeDef* SPIx)
 563:firmware/STM32F10x_StdPeriph_Lib_V3.3.0/Libraries/STM32F10x_StdPeriph_Driver/src/stm32f10x_spi.c **** {
 575              		.loc 1 563 0
 576              		.cfi_startproc
 577              		@ args = 0, pretend = 0, frame = 0
 578              		@ frame_needed = 0, uses_anonymous_args = 0
 579              		@ link register save eliminated.
 580              	.LVL48:
 564:firmware/STM32F10x_StdPeriph_Lib_V3.3.0/Libraries/STM32F10x_StdPeriph_Driver/src/stm32f10x_spi.c ****   /* Check the parameters */
 565:firmware/STM32F10x_StdPeriph_Lib_V3.3.0/Libraries/STM32F10x_StdPeriph_Driver/src/stm32f10x_spi.c ****   assert_param(IS_SPI_ALL_PERIPH(SPIx));
 566:firmware/STM32F10x_StdPeriph_Lib_V3.3.0/Libraries/STM32F10x_StdPeriph_Driver/src/stm32f10x_spi.c ****   
 567:firmware/STM32F10x_StdPeriph_Lib_V3.3.0/Libraries/STM32F10x_StdPeriph_Driver/src/stm32f10x_spi.c ****   /* Return the data in the DR register */
 568:firmware/STM32F10x_StdPeriph_Lib_V3.3.0/Libraries/STM32F10x_StdPeriph_Driver/src/stm32f10x_spi.c ****   return SPIx->DR;
 581              		.loc 1 568 0
 582 0000 8089     		ldrh	r0, [r0, #12]
 583              	.LVL49:
 569:firmware/STM32F10x_StdPeriph_Lib_V3.3.0/Libraries/STM32F10x_StdPeriph_Driver/src/stm32f10x_spi.c **** }
 584              		.loc 1 569 0
 585 0002 80B2     		uxth	r0, r0
 586 0004 7047     		bx	lr
 587              		.cfi_endproc
 588              	.LFE39:
 590              		.section	.text.SPI_NSSInternalSoftwareConfig,"ax",%progbits
 591              		.align	1
 592              		.global	SPI_NSSInternalSoftwareConfig
 593              		.thumb
 594              		.thumb_func
 596              	SPI_NSSInternalSoftwareConfig:
 597              	.LFB40:
 570:firmware/STM32F10x_StdPeriph_Lib_V3.3.0/Libraries/STM32F10x_StdPeriph_Driver/src/stm32f10x_spi.c **** 
 571:firmware/STM32F10x_StdPeriph_Lib_V3.3.0/Libraries/STM32F10x_StdPeriph_Driver/src/stm32f10x_spi.c **** /**
 572:firmware/STM32F10x_StdPeriph_Lib_V3.3.0/Libraries/STM32F10x_StdPeriph_Driver/src/stm32f10x_spi.c ****   * @brief  Configures internally by software the NSS pin for the selected SPI.
 573:firmware/STM32F10x_StdPeriph_Lib_V3.3.0/Libraries/STM32F10x_StdPeriph_Driver/src/stm32f10x_spi.c ****   * @param  SPIx: where x can be 1, 2 or 3 to select the SPI peripheral.
 574:firmware/STM32F10x_StdPeriph_Lib_V3.3.0/Libraries/STM32F10x_StdPeriph_Driver/src/stm32f10x_spi.c ****   * @param  SPI_NSSInternalSoft: specifies the SPI NSS internal state.
 575:firmware/STM32F10x_StdPeriph_Lib_V3.3.0/Libraries/STM32F10x_StdPeriph_Driver/src/stm32f10x_spi.c ****   *   This parameter can be one of the following values:
 576:firmware/STM32F10x_StdPeriph_Lib_V3.3.0/Libraries/STM32F10x_StdPeriph_Driver/src/stm32f10x_spi.c ****   *     @arg SPI_NSSInternalSoft_Set: Set NSS pin internally
 577:firmware/STM32F10x_StdPeriph_Lib_V3.3.0/Libraries/STM32F10x_StdPeriph_Driver/src/stm32f10x_spi.c ****   *     @arg SPI_NSSInternalSoft_Reset: Reset NSS pin internally
 578:firmware/STM32F10x_StdPeriph_Lib_V3.3.0/Libraries/STM32F10x_StdPeriph_Driver/src/stm32f10x_spi.c ****   * @retval None
 579:firmware/STM32F10x_StdPeriph_Lib_V3.3.0/Libraries/STM32F10x_StdPeriph_Driver/src/stm32f10x_spi.c ****   */
 580:firmware/STM32F10x_StdPeriph_Lib_V3.3.0/Libraries/STM32F10x_StdPeriph_Driver/src/stm32f10x_spi.c **** void SPI_NSSInternalSoftwareConfig(SPI_TypeDef* SPIx, uint16_t SPI_NSSInternalSoft)
 581:firmware/STM32F10x_StdPeriph_Lib_V3.3.0/Libraries/STM32F10x_StdPeriph_Driver/src/stm32f10x_spi.c **** {
 598              		.loc 1 581 0
 599              		.cfi_startproc
 600              		@ args = 0, pretend = 0, frame = 0
 601              		@ frame_needed = 0, uses_anonymous_args = 0
 602              		@ link register save eliminated.
 603              	.LVL50:
 582:firmware/STM32F10x_StdPeriph_Lib_V3.3.0/Libraries/STM32F10x_StdPeriph_Driver/src/stm32f10x_spi.c ****   /* Check the parameters */
 583:firmware/STM32F10x_StdPeriph_Lib_V3.3.0/Libraries/STM32F10x_StdPeriph_Driver/src/stm32f10x_spi.c ****   assert_param(IS_SPI_ALL_PERIPH(SPIx));
 584:firmware/STM32F10x_StdPeriph_Lib_V3.3.0/Libraries/STM32F10x_StdPeriph_Driver/src/stm32f10x_spi.c ****   assert_param(IS_SPI_NSS_INTERNAL(SPI_NSSInternalSoft));
 585:firmware/STM32F10x_StdPeriph_Lib_V3.3.0/Libraries/STM32F10x_StdPeriph_Driver/src/stm32f10x_spi.c ****   if (SPI_NSSInternalSoft != SPI_NSSInternalSoft_Reset)
 604              		.loc 1 585 0
 605 0000 4FF6FF63 		movw	r3, #65279
 606 0004 9942     		cmp	r1, r3
 607 0006 04D0     		beq	.L40
 586:firmware/STM32F10x_StdPeriph_Lib_V3.3.0/Libraries/STM32F10x_StdPeriph_Driver/src/stm32f10x_spi.c ****   {
 587:firmware/STM32F10x_StdPeriph_Lib_V3.3.0/Libraries/STM32F10x_StdPeriph_Driver/src/stm32f10x_spi.c ****     /* Set NSS pin internally by software */
 588:firmware/STM32F10x_StdPeriph_Lib_V3.3.0/Libraries/STM32F10x_StdPeriph_Driver/src/stm32f10x_spi.c ****     SPIx->CR1 |= SPI_NSSInternalSoft_Set;
 608              		.loc 1 588 0
 609 0008 0388     		ldrh	r3, [r0, #0]
 610 000a 9BB2     		uxth	r3, r3
 611 000c 43F48073 		orr	r3, r3, #256
 612 0010 04E0     		b	.L42
 613              	.L40:
 589:firmware/STM32F10x_StdPeriph_Lib_V3.3.0/Libraries/STM32F10x_StdPeriph_Driver/src/stm32f10x_spi.c ****   }
 590:firmware/STM32F10x_StdPeriph_Lib_V3.3.0/Libraries/STM32F10x_StdPeriph_Driver/src/stm32f10x_spi.c ****   else
 591:firmware/STM32F10x_StdPeriph_Lib_V3.3.0/Libraries/STM32F10x_StdPeriph_Driver/src/stm32f10x_spi.c ****   {
 592:firmware/STM32F10x_StdPeriph_Lib_V3.3.0/Libraries/STM32F10x_StdPeriph_Driver/src/stm32f10x_spi.c ****     /* Reset NSS pin internally by software */
 593:firmware/STM32F10x_StdPeriph_Lib_V3.3.0/Libraries/STM32F10x_StdPeriph_Driver/src/stm32f10x_spi.c ****     SPIx->CR1 &= SPI_NSSInternalSoft_Reset;
 614              		.loc 1 593 0
 615 0012 0388     		ldrh	r3, [r0, #0]
 616 0014 23F48073 		bic	r3, r3, #256
 617 0018 1B04     		lsls	r3, r3, #16
 618 001a 1B0C     		lsrs	r3, r3, #16
 619              	.L42:
 620 001c 0380     		strh	r3, [r0, #0]	@ movhi
 621 001e 7047     		bx	lr
 622              		.cfi_endproc
 623              	.LFE40:
 625              		.section	.text.SPI_SSOutputCmd,"ax",%progbits
 626              		.align	1
 627              		.global	SPI_SSOutputCmd
 628              		.thumb
 629              		.thumb_func
 631              	SPI_SSOutputCmd:
 632              	.LFB41:
 594:firmware/STM32F10x_StdPeriph_Lib_V3.3.0/Libraries/STM32F10x_StdPeriph_Driver/src/stm32f10x_spi.c ****   }
 595:firmware/STM32F10x_StdPeriph_Lib_V3.3.0/Libraries/STM32F10x_StdPeriph_Driver/src/stm32f10x_spi.c **** }
 596:firmware/STM32F10x_StdPeriph_Lib_V3.3.0/Libraries/STM32F10x_StdPeriph_Driver/src/stm32f10x_spi.c **** 
 597:firmware/STM32F10x_StdPeriph_Lib_V3.3.0/Libraries/STM32F10x_StdPeriph_Driver/src/stm32f10x_spi.c **** /**
 598:firmware/STM32F10x_StdPeriph_Lib_V3.3.0/Libraries/STM32F10x_StdPeriph_Driver/src/stm32f10x_spi.c ****   * @brief  Enables or disables the SS output for the selected SPI.
 599:firmware/STM32F10x_StdPeriph_Lib_V3.3.0/Libraries/STM32F10x_StdPeriph_Driver/src/stm32f10x_spi.c ****   * @param  SPIx: where x can be 1, 2 or 3 to select the SPI peripheral.
 600:firmware/STM32F10x_StdPeriph_Lib_V3.3.0/Libraries/STM32F10x_StdPeriph_Driver/src/stm32f10x_spi.c ****   * @param  NewState: new state of the SPIx SS output. 
 601:firmware/STM32F10x_StdPeriph_Lib_V3.3.0/Libraries/STM32F10x_StdPeriph_Driver/src/stm32f10x_spi.c ****   *   This parameter can be: ENABLE or DISABLE.
 602:firmware/STM32F10x_StdPeriph_Lib_V3.3.0/Libraries/STM32F10x_StdPeriph_Driver/src/stm32f10x_spi.c ****   * @retval None
 603:firmware/STM32F10x_StdPeriph_Lib_V3.3.0/Libraries/STM32F10x_StdPeriph_Driver/src/stm32f10x_spi.c ****   */
 604:firmware/STM32F10x_StdPeriph_Lib_V3.3.0/Libraries/STM32F10x_StdPeriph_Driver/src/stm32f10x_spi.c **** void SPI_SSOutputCmd(SPI_TypeDef* SPIx, FunctionalState NewState)
 605:firmware/STM32F10x_StdPeriph_Lib_V3.3.0/Libraries/STM32F10x_StdPeriph_Driver/src/stm32f10x_spi.c **** {
 633              		.loc 1 605 0
 634              		.cfi_startproc
 635              		@ args = 0, pretend = 0, frame = 0
 636              		@ frame_needed = 0, uses_anonymous_args = 0
 637              		@ link register save eliminated.
 638              	.LVL51:
 606:firmware/STM32F10x_StdPeriph_Lib_V3.3.0/Libraries/STM32F10x_StdPeriph_Driver/src/stm32f10x_spi.c ****   /* Check the parameters */
 607:firmware/STM32F10x_StdPeriph_Lib_V3.3.0/Libraries/STM32F10x_StdPeriph_Driver/src/stm32f10x_spi.c ****   assert_param(IS_SPI_ALL_PERIPH(SPIx));
 608:firmware/STM32F10x_StdPeriph_Lib_V3.3.0/Libraries/STM32F10x_StdPeriph_Driver/src/stm32f10x_spi.c ****   assert_param(IS_FUNCTIONAL_STATE(NewState));
 609:firmware/STM32F10x_StdPeriph_Lib_V3.3.0/Libraries/STM32F10x_StdPeriph_Driver/src/stm32f10x_spi.c ****   if (NewState != DISABLE)
 639              		.loc 1 609 0
 640 0000 21B1     		cbz	r1, .L44
 610:firmware/STM32F10x_StdPeriph_Lib_V3.3.0/Libraries/STM32F10x_StdPeriph_Driver/src/stm32f10x_spi.c ****   {
 611:firmware/STM32F10x_StdPeriph_Lib_V3.3.0/Libraries/STM32F10x_StdPeriph_Driver/src/stm32f10x_spi.c ****     /* Enable the selected SPI SS output */
 612:firmware/STM32F10x_StdPeriph_Lib_V3.3.0/Libraries/STM32F10x_StdPeriph_Driver/src/stm32f10x_spi.c ****     SPIx->CR2 |= CR2_SSOE_Set;
 641              		.loc 1 612 0
 642 0002 8388     		ldrh	r3, [r0, #4]
 643 0004 9BB2     		uxth	r3, r3
 644 0006 43F00403 		orr	r3, r3, #4
 645 000a 04E0     		b	.L46
 646              	.L44:
 613:firmware/STM32F10x_StdPeriph_Lib_V3.3.0/Libraries/STM32F10x_StdPeriph_Driver/src/stm32f10x_spi.c ****   }
 614:firmware/STM32F10x_StdPeriph_Lib_V3.3.0/Libraries/STM32F10x_StdPeriph_Driver/src/stm32f10x_spi.c ****   else
 615:firmware/STM32F10x_StdPeriph_Lib_V3.3.0/Libraries/STM32F10x_StdPeriph_Driver/src/stm32f10x_spi.c ****   {
 616:firmware/STM32F10x_StdPeriph_Lib_V3.3.0/Libraries/STM32F10x_StdPeriph_Driver/src/stm32f10x_spi.c ****     /* Disable the selected SPI SS output */
 617:firmware/STM32F10x_StdPeriph_Lib_V3.3.0/Libraries/STM32F10x_StdPeriph_Driver/src/stm32f10x_spi.c ****     SPIx->CR2 &= CR2_SSOE_Reset;
 647              		.loc 1 617 0
 648 000c 8388     		ldrh	r3, [r0, #4]
 649 000e 23F00403 		bic	r3, r3, #4
 650 0012 1B04     		lsls	r3, r3, #16
 651 0014 1B0C     		lsrs	r3, r3, #16
 652              	.L46:
 653 0016 8380     		strh	r3, [r0, #4]	@ movhi
 654 0018 7047     		bx	lr
 655              		.cfi_endproc
 656              	.LFE41:
 658              		.section	.text.SPI_DataSizeConfig,"ax",%progbits
 659              		.align	1
 660              		.global	SPI_DataSizeConfig
 661              		.thumb
 662              		.thumb_func
 664              	SPI_DataSizeConfig:
 665              	.LFB42:
 618:firmware/STM32F10x_StdPeriph_Lib_V3.3.0/Libraries/STM32F10x_StdPeriph_Driver/src/stm32f10x_spi.c ****   }
 619:firmware/STM32F10x_StdPeriph_Lib_V3.3.0/Libraries/STM32F10x_StdPeriph_Driver/src/stm32f10x_spi.c **** }
 620:firmware/STM32F10x_StdPeriph_Lib_V3.3.0/Libraries/STM32F10x_StdPeriph_Driver/src/stm32f10x_spi.c **** 
 621:firmware/STM32F10x_StdPeriph_Lib_V3.3.0/Libraries/STM32F10x_StdPeriph_Driver/src/stm32f10x_spi.c **** /**
 622:firmware/STM32F10x_StdPeriph_Lib_V3.3.0/Libraries/STM32F10x_StdPeriph_Driver/src/stm32f10x_spi.c ****   * @brief  Configures the data size for the selected SPI.
 623:firmware/STM32F10x_StdPeriph_Lib_V3.3.0/Libraries/STM32F10x_StdPeriph_Driver/src/stm32f10x_spi.c ****   * @param  SPIx: where x can be 1, 2 or 3 to select the SPI peripheral.
 624:firmware/STM32F10x_StdPeriph_Lib_V3.3.0/Libraries/STM32F10x_StdPeriph_Driver/src/stm32f10x_spi.c ****   * @param  SPI_DataSize: specifies the SPI data size.
 625:firmware/STM32F10x_StdPeriph_Lib_V3.3.0/Libraries/STM32F10x_StdPeriph_Driver/src/stm32f10x_spi.c ****   *   This parameter can be one of the following values:
 626:firmware/STM32F10x_StdPeriph_Lib_V3.3.0/Libraries/STM32F10x_StdPeriph_Driver/src/stm32f10x_spi.c ****   *     @arg SPI_DataSize_16b: Set data frame format to 16bit
 627:firmware/STM32F10x_StdPeriph_Lib_V3.3.0/Libraries/STM32F10x_StdPeriph_Driver/src/stm32f10x_spi.c ****   *     @arg SPI_DataSize_8b: Set data frame format to 8bit
 628:firmware/STM32F10x_StdPeriph_Lib_V3.3.0/Libraries/STM32F10x_StdPeriph_Driver/src/stm32f10x_spi.c ****   * @retval None
 629:firmware/STM32F10x_StdPeriph_Lib_V3.3.0/Libraries/STM32F10x_StdPeriph_Driver/src/stm32f10x_spi.c ****   */
 630:firmware/STM32F10x_StdPeriph_Lib_V3.3.0/Libraries/STM32F10x_StdPeriph_Driver/src/stm32f10x_spi.c **** void SPI_DataSizeConfig(SPI_TypeDef* SPIx, uint16_t SPI_DataSize)
 631:firmware/STM32F10x_StdPeriph_Lib_V3.3.0/Libraries/STM32F10x_StdPeriph_Driver/src/stm32f10x_spi.c **** {
 666              		.loc 1 631 0
 667              		.cfi_startproc
 668              		@ args = 0, pretend = 0, frame = 0
 669              		@ frame_needed = 0, uses_anonymous_args = 0
 670              		@ link register save eliminated.
 671              	.LVL52:
 632:firmware/STM32F10x_StdPeriph_Lib_V3.3.0/Libraries/STM32F10x_StdPeriph_Driver/src/stm32f10x_spi.c ****   /* Check the parameters */
 633:firmware/STM32F10x_StdPeriph_Lib_V3.3.0/Libraries/STM32F10x_StdPeriph_Driver/src/stm32f10x_spi.c ****   assert_param(IS_SPI_ALL_PERIPH(SPIx));
 634:firmware/STM32F10x_StdPeriph_Lib_V3.3.0/Libraries/STM32F10x_StdPeriph_Driver/src/stm32f10x_spi.c ****   assert_param(IS_SPI_DATASIZE(SPI_DataSize));
 635:firmware/STM32F10x_StdPeriph_Lib_V3.3.0/Libraries/STM32F10x_StdPeriph_Driver/src/stm32f10x_spi.c ****   /* Clear DFF bit */
 636:firmware/STM32F10x_StdPeriph_Lib_V3.3.0/Libraries/STM32F10x_StdPeriph_Driver/src/stm32f10x_spi.c ****   SPIx->CR1 &= (uint16_t)~SPI_DataSize_16b;
 672              		.loc 1 636 0
 673 0000 0388     		ldrh	r3, [r0, #0]
 674 0002 23F40063 		bic	r3, r3, #2048
 675 0006 1B04     		lsls	r3, r3, #16
 676 0008 1B0C     		lsrs	r3, r3, #16
 677 000a 0380     		strh	r3, [r0, #0]	@ movhi
 637:firmware/STM32F10x_StdPeriph_Lib_V3.3.0/Libraries/STM32F10x_StdPeriph_Driver/src/stm32f10x_spi.c ****   /* Set new DFF bit value */
 638:firmware/STM32F10x_StdPeriph_Lib_V3.3.0/Libraries/STM32F10x_StdPeriph_Driver/src/stm32f10x_spi.c ****   SPIx->CR1 |= SPI_DataSize;
 678              		.loc 1 638 0
 679 000c 0388     		ldrh	r3, [r0, #0]
 680 000e 9BB2     		uxth	r3, r3
 681 0010 41EA0303 		orr	r3, r1, r3
 682 0014 0380     		strh	r3, [r0, #0]	@ movhi
 639:firmware/STM32F10x_StdPeriph_Lib_V3.3.0/Libraries/STM32F10x_StdPeriph_Driver/src/stm32f10x_spi.c **** }
 683              		.loc 1 639 0
 684 0016 7047     		bx	lr
 685              		.cfi_endproc
 686              	.LFE42:
 688              		.section	.text.SPI_TransmitCRC,"ax",%progbits
 689              		.align	1
 690              		.global	SPI_TransmitCRC
 691              		.thumb
 692              		.thumb_func
 694              	SPI_TransmitCRC:
 695              	.LFB43:
 640:firmware/STM32F10x_StdPeriph_Lib_V3.3.0/Libraries/STM32F10x_StdPeriph_Driver/src/stm32f10x_spi.c **** 
 641:firmware/STM32F10x_StdPeriph_Lib_V3.3.0/Libraries/STM32F10x_StdPeriph_Driver/src/stm32f10x_spi.c **** /**
 642:firmware/STM32F10x_StdPeriph_Lib_V3.3.0/Libraries/STM32F10x_StdPeriph_Driver/src/stm32f10x_spi.c ****   * @brief  Transmit the SPIx CRC value.
 643:firmware/STM32F10x_StdPeriph_Lib_V3.3.0/Libraries/STM32F10x_StdPeriph_Driver/src/stm32f10x_spi.c ****   * @param  SPIx: where x can be 1, 2 or 3 to select the SPI peripheral.
 644:firmware/STM32F10x_StdPeriph_Lib_V3.3.0/Libraries/STM32F10x_StdPeriph_Driver/src/stm32f10x_spi.c ****   * @retval None
 645:firmware/STM32F10x_StdPeriph_Lib_V3.3.0/Libraries/STM32F10x_StdPeriph_Driver/src/stm32f10x_spi.c ****   */
 646:firmware/STM32F10x_StdPeriph_Lib_V3.3.0/Libraries/STM32F10x_StdPeriph_Driver/src/stm32f10x_spi.c **** void SPI_TransmitCRC(SPI_TypeDef* SPIx)
 647:firmware/STM32F10x_StdPeriph_Lib_V3.3.0/Libraries/STM32F10x_StdPeriph_Driver/src/stm32f10x_spi.c **** {
 696              		.loc 1 647 0
 697              		.cfi_startproc
 698              		@ args = 0, pretend = 0, frame = 0
 699              		@ frame_needed = 0, uses_anonymous_args = 0
 700              		@ link register save eliminated.
 701              	.LVL53:
 648:firmware/STM32F10x_StdPeriph_Lib_V3.3.0/Libraries/STM32F10x_StdPeriph_Driver/src/stm32f10x_spi.c ****   /* Check the parameters */
 649:firmware/STM32F10x_StdPeriph_Lib_V3.3.0/Libraries/STM32F10x_StdPeriph_Driver/src/stm32f10x_spi.c ****   assert_param(IS_SPI_ALL_PERIPH(SPIx));
 650:firmware/STM32F10x_StdPeriph_Lib_V3.3.0/Libraries/STM32F10x_StdPeriph_Driver/src/stm32f10x_spi.c ****   
 651:firmware/STM32F10x_StdPeriph_Lib_V3.3.0/Libraries/STM32F10x_StdPeriph_Driver/src/stm32f10x_spi.c ****   /* Enable the selected SPI CRC transmission */
 652:firmware/STM32F10x_StdPeriph_Lib_V3.3.0/Libraries/STM32F10x_StdPeriph_Driver/src/stm32f10x_spi.c ****   SPIx->CR1 |= CR1_CRCNext_Set;
 702              		.loc 1 652 0
 703 0000 0388     		ldrh	r3, [r0, #0]
 704 0002 9BB2     		uxth	r3, r3
 705 0004 43F48053 		orr	r3, r3, #4096
 706 0008 0380     		strh	r3, [r0, #0]	@ movhi
 653:firmware/STM32F10x_StdPeriph_Lib_V3.3.0/Libraries/STM32F10x_StdPeriph_Driver/src/stm32f10x_spi.c **** }
 707              		.loc 1 653 0
 708 000a 7047     		bx	lr
 709              		.cfi_endproc
 710              	.LFE43:
 712              		.section	.text.SPI_CalculateCRC,"ax",%progbits
 713              		.align	1
 714              		.global	SPI_CalculateCRC
 715              		.thumb
 716              		.thumb_func
 718              	SPI_CalculateCRC:
 719              	.LFB44:
 654:firmware/STM32F10x_StdPeriph_Lib_V3.3.0/Libraries/STM32F10x_StdPeriph_Driver/src/stm32f10x_spi.c **** 
 655:firmware/STM32F10x_StdPeriph_Lib_V3.3.0/Libraries/STM32F10x_StdPeriph_Driver/src/stm32f10x_spi.c **** /**
 656:firmware/STM32F10x_StdPeriph_Lib_V3.3.0/Libraries/STM32F10x_StdPeriph_Driver/src/stm32f10x_spi.c ****   * @brief  Enables or disables the CRC value calculation of the transfered bytes.
 657:firmware/STM32F10x_StdPeriph_Lib_V3.3.0/Libraries/STM32F10x_StdPeriph_Driver/src/stm32f10x_spi.c ****   * @param  SPIx: where x can be 1, 2 or 3 to select the SPI peripheral.
 658:firmware/STM32F10x_StdPeriph_Lib_V3.3.0/Libraries/STM32F10x_StdPeriph_Driver/src/stm32f10x_spi.c ****   * @param  NewState: new state of the SPIx CRC value calculation.
 659:firmware/STM32F10x_StdPeriph_Lib_V3.3.0/Libraries/STM32F10x_StdPeriph_Driver/src/stm32f10x_spi.c ****   *   This parameter can be: ENABLE or DISABLE.
 660:firmware/STM32F10x_StdPeriph_Lib_V3.3.0/Libraries/STM32F10x_StdPeriph_Driver/src/stm32f10x_spi.c ****   * @retval None
 661:firmware/STM32F10x_StdPeriph_Lib_V3.3.0/Libraries/STM32F10x_StdPeriph_Driver/src/stm32f10x_spi.c ****   */
 662:firmware/STM32F10x_StdPeriph_Lib_V3.3.0/Libraries/STM32F10x_StdPeriph_Driver/src/stm32f10x_spi.c **** void SPI_CalculateCRC(SPI_TypeDef* SPIx, FunctionalState NewState)
 663:firmware/STM32F10x_StdPeriph_Lib_V3.3.0/Libraries/STM32F10x_StdPeriph_Driver/src/stm32f10x_spi.c **** {
 720              		.loc 1 663 0
 721              		.cfi_startproc
 722              		@ args = 0, pretend = 0, frame = 0
 723              		@ frame_needed = 0, uses_anonymous_args = 0
 724              		@ link register save eliminated.
 725              	.LVL54:
 664:firmware/STM32F10x_StdPeriph_Lib_V3.3.0/Libraries/STM32F10x_StdPeriph_Driver/src/stm32f10x_spi.c ****   /* Check the parameters */
 665:firmware/STM32F10x_StdPeriph_Lib_V3.3.0/Libraries/STM32F10x_StdPeriph_Driver/src/stm32f10x_spi.c ****   assert_param(IS_SPI_ALL_PERIPH(SPIx));
 666:firmware/STM32F10x_StdPeriph_Lib_V3.3.0/Libraries/STM32F10x_StdPeriph_Driver/src/stm32f10x_spi.c ****   assert_param(IS_FUNCTIONAL_STATE(NewState));
 667:firmware/STM32F10x_StdPeriph_Lib_V3.3.0/Libraries/STM32F10x_StdPeriph_Driver/src/stm32f10x_spi.c ****   if (NewState != DISABLE)
 726              		.loc 1 667 0
 727 0000 21B1     		cbz	r1, .L50
 668:firmware/STM32F10x_StdPeriph_Lib_V3.3.0/Libraries/STM32F10x_StdPeriph_Driver/src/stm32f10x_spi.c ****   {
 669:firmware/STM32F10x_StdPeriph_Lib_V3.3.0/Libraries/STM32F10x_StdPeriph_Driver/src/stm32f10x_spi.c ****     /* Enable the selected SPI CRC calculation */
 670:firmware/STM32F10x_StdPeriph_Lib_V3.3.0/Libraries/STM32F10x_StdPeriph_Driver/src/stm32f10x_spi.c ****     SPIx->CR1 |= CR1_CRCEN_Set;
 728              		.loc 1 670 0
 729 0002 0388     		ldrh	r3, [r0, #0]
 730 0004 9BB2     		uxth	r3, r3
 731 0006 43F40053 		orr	r3, r3, #8192
 732 000a 04E0     		b	.L52
 733              	.L50:
 671:firmware/STM32F10x_StdPeriph_Lib_V3.3.0/Libraries/STM32F10x_StdPeriph_Driver/src/stm32f10x_spi.c ****   }
 672:firmware/STM32F10x_StdPeriph_Lib_V3.3.0/Libraries/STM32F10x_StdPeriph_Driver/src/stm32f10x_spi.c ****   else
 673:firmware/STM32F10x_StdPeriph_Lib_V3.3.0/Libraries/STM32F10x_StdPeriph_Driver/src/stm32f10x_spi.c ****   {
 674:firmware/STM32F10x_StdPeriph_Lib_V3.3.0/Libraries/STM32F10x_StdPeriph_Driver/src/stm32f10x_spi.c ****     /* Disable the selected SPI CRC calculation */
 675:firmware/STM32F10x_StdPeriph_Lib_V3.3.0/Libraries/STM32F10x_StdPeriph_Driver/src/stm32f10x_spi.c ****     SPIx->CR1 &= CR1_CRCEN_Reset;
 734              		.loc 1 675 0
 735 000c 0388     		ldrh	r3, [r0, #0]
 736 000e 23F40053 		bic	r3, r3, #8192
 737 0012 1B04     		lsls	r3, r3, #16
 738 0014 1B0C     		lsrs	r3, r3, #16
 739              	.L52:
 740 0016 0380     		strh	r3, [r0, #0]	@ movhi
 741 0018 7047     		bx	lr
 742              		.cfi_endproc
 743              	.LFE44:
 745              		.section	.text.SPI_GetCRC,"ax",%progbits
 746              		.align	1
 747              		.global	SPI_GetCRC
 748              		.thumb
 749              		.thumb_func
 751              	SPI_GetCRC:
 752              	.LFB45:
 676:firmware/STM32F10x_StdPeriph_Lib_V3.3.0/Libraries/STM32F10x_StdPeriph_Driver/src/stm32f10x_spi.c ****   }
 677:firmware/STM32F10x_StdPeriph_Lib_V3.3.0/Libraries/STM32F10x_StdPeriph_Driver/src/stm32f10x_spi.c **** }
 678:firmware/STM32F10x_StdPeriph_Lib_V3.3.0/Libraries/STM32F10x_StdPeriph_Driver/src/stm32f10x_spi.c **** 
 679:firmware/STM32F10x_StdPeriph_Lib_V3.3.0/Libraries/STM32F10x_StdPeriph_Driver/src/stm32f10x_spi.c **** /**
 680:firmware/STM32F10x_StdPeriph_Lib_V3.3.0/Libraries/STM32F10x_StdPeriph_Driver/src/stm32f10x_spi.c ****   * @brief  Returns the transmit or the receive CRC register value for the specified SPI.
 681:firmware/STM32F10x_StdPeriph_Lib_V3.3.0/Libraries/STM32F10x_StdPeriph_Driver/src/stm32f10x_spi.c ****   * @param  SPIx: where x can be 1, 2 or 3 to select the SPI peripheral.
 682:firmware/STM32F10x_StdPeriph_Lib_V3.3.0/Libraries/STM32F10x_StdPeriph_Driver/src/stm32f10x_spi.c ****   * @param  SPI_CRC: specifies the CRC register to be read.
 683:firmware/STM32F10x_StdPeriph_Lib_V3.3.0/Libraries/STM32F10x_StdPeriph_Driver/src/stm32f10x_spi.c ****   *   This parameter can be one of the following values:
 684:firmware/STM32F10x_StdPeriph_Lib_V3.3.0/Libraries/STM32F10x_StdPeriph_Driver/src/stm32f10x_spi.c ****   *     @arg SPI_CRC_Tx: Selects Tx CRC register
 685:firmware/STM32F10x_StdPeriph_Lib_V3.3.0/Libraries/STM32F10x_StdPeriph_Driver/src/stm32f10x_spi.c ****   *     @arg SPI_CRC_Rx: Selects Rx CRC register
 686:firmware/STM32F10x_StdPeriph_Lib_V3.3.0/Libraries/STM32F10x_StdPeriph_Driver/src/stm32f10x_spi.c ****   * @retval The selected CRC register value..
 687:firmware/STM32F10x_StdPeriph_Lib_V3.3.0/Libraries/STM32F10x_StdPeriph_Driver/src/stm32f10x_spi.c ****   */
 688:firmware/STM32F10x_StdPeriph_Lib_V3.3.0/Libraries/STM32F10x_StdPeriph_Driver/src/stm32f10x_spi.c **** uint16_t SPI_GetCRC(SPI_TypeDef* SPIx, uint8_t SPI_CRC)
 689:firmware/STM32F10x_StdPeriph_Lib_V3.3.0/Libraries/STM32F10x_StdPeriph_Driver/src/stm32f10x_spi.c **** {
 753              		.loc 1 689 0
 754              		.cfi_startproc
 755              		@ args = 0, pretend = 0, frame = 0
 756              		@ frame_needed = 0, uses_anonymous_args = 0
 757              		@ link register save eliminated.
 758              	.LVL55:
 690:firmware/STM32F10x_StdPeriph_Lib_V3.3.0/Libraries/STM32F10x_StdPeriph_Driver/src/stm32f10x_spi.c ****   uint16_t crcreg = 0;
 691:firmware/STM32F10x_StdPeriph_Lib_V3.3.0/Libraries/STM32F10x_StdPeriph_Driver/src/stm32f10x_spi.c ****   /* Check the parameters */
 692:firmware/STM32F10x_StdPeriph_Lib_V3.3.0/Libraries/STM32F10x_StdPeriph_Driver/src/stm32f10x_spi.c ****   assert_param(IS_SPI_ALL_PERIPH(SPIx));
 693:firmware/STM32F10x_StdPeriph_Lib_V3.3.0/Libraries/STM32F10x_StdPeriph_Driver/src/stm32f10x_spi.c ****   assert_param(IS_SPI_CRC(SPI_CRC));
 694:firmware/STM32F10x_StdPeriph_Lib_V3.3.0/Libraries/STM32F10x_StdPeriph_Driver/src/stm32f10x_spi.c ****   if (SPI_CRC != SPI_CRC_Rx)
 759              		.loc 1 694 0
 760 0000 0129     		cmp	r1, #1
 761 0002 02D0     		beq	.L54
 695:firmware/STM32F10x_StdPeriph_Lib_V3.3.0/Libraries/STM32F10x_StdPeriph_Driver/src/stm32f10x_spi.c ****   {
 696:firmware/STM32F10x_StdPeriph_Lib_V3.3.0/Libraries/STM32F10x_StdPeriph_Driver/src/stm32f10x_spi.c ****     /* Get the Tx CRC register */
 697:firmware/STM32F10x_StdPeriph_Lib_V3.3.0/Libraries/STM32F10x_StdPeriph_Driver/src/stm32f10x_spi.c ****     crcreg = SPIx->TXCRCR;
 762              		.loc 1 697 0
 763 0004 008B     		ldrh	r0, [r0, #24]
 764              	.LVL56:
 765 0006 80B2     		uxth	r0, r0
 766              	.LVL57:
 767 0008 7047     		bx	lr
 768              	.LVL58:
 769              	.L54:
 698:firmware/STM32F10x_StdPeriph_Lib_V3.3.0/Libraries/STM32F10x_StdPeriph_Driver/src/stm32f10x_spi.c ****   }
 699:firmware/STM32F10x_StdPeriph_Lib_V3.3.0/Libraries/STM32F10x_StdPeriph_Driver/src/stm32f10x_spi.c ****   else
 700:firmware/STM32F10x_StdPeriph_Lib_V3.3.0/Libraries/STM32F10x_StdPeriph_Driver/src/stm32f10x_spi.c ****   {
 701:firmware/STM32F10x_StdPeriph_Lib_V3.3.0/Libraries/STM32F10x_StdPeriph_Driver/src/stm32f10x_spi.c ****     /* Get the Rx CRC register */
 702:firmware/STM32F10x_StdPeriph_Lib_V3.3.0/Libraries/STM32F10x_StdPeriph_Driver/src/stm32f10x_spi.c ****     crcreg = SPIx->RXCRCR;
 770              		.loc 1 702 0
 771 000a 808A     		ldrh	r0, [r0, #20]
 772              	.LVL59:
 773 000c 80B2     		uxth	r0, r0
 774              	.LVL60:
 703:firmware/STM32F10x_StdPeriph_Lib_V3.3.0/Libraries/STM32F10x_StdPeriph_Driver/src/stm32f10x_spi.c ****   }
 704:firmware/STM32F10x_StdPeriph_Lib_V3.3.0/Libraries/STM32F10x_StdPeriph_Driver/src/stm32f10x_spi.c ****   /* Return the selected CRC register */
 705:firmware/STM32F10x_StdPeriph_Lib_V3.3.0/Libraries/STM32F10x_StdPeriph_Driver/src/stm32f10x_spi.c ****   return crcreg;
 706:firmware/STM32F10x_StdPeriph_Lib_V3.3.0/Libraries/STM32F10x_StdPeriph_Driver/src/stm32f10x_spi.c **** }
 775              		.loc 1 706 0
 776 000e 7047     		bx	lr
 777              		.cfi_endproc
 778              	.LFE45:
 780              		.section	.text.SPI_GetCRCPolynomial,"ax",%progbits
 781              		.align	1
 782              		.global	SPI_GetCRCPolynomial
 783              		.thumb
 784              		.thumb_func
 786              	SPI_GetCRCPolynomial:
 787              	.LFB46:
 707:firmware/STM32F10x_StdPeriph_Lib_V3.3.0/Libraries/STM32F10x_StdPeriph_Driver/src/stm32f10x_spi.c **** 
 708:firmware/STM32F10x_StdPeriph_Lib_V3.3.0/Libraries/STM32F10x_StdPeriph_Driver/src/stm32f10x_spi.c **** /**
 709:firmware/STM32F10x_StdPeriph_Lib_V3.3.0/Libraries/STM32F10x_StdPeriph_Driver/src/stm32f10x_spi.c ****   * @brief  Returns the CRC Polynomial register value for the specified SPI.
 710:firmware/STM32F10x_StdPeriph_Lib_V3.3.0/Libraries/STM32F10x_StdPeriph_Driver/src/stm32f10x_spi.c ****   * @param  SPIx: where x can be 1, 2 or 3 to select the SPI peripheral.
 711:firmware/STM32F10x_StdPeriph_Lib_V3.3.0/Libraries/STM32F10x_StdPeriph_Driver/src/stm32f10x_spi.c ****   * @retval The CRC Polynomial register value.
 712:firmware/STM32F10x_StdPeriph_Lib_V3.3.0/Libraries/STM32F10x_StdPeriph_Driver/src/stm32f10x_spi.c ****   */
 713:firmware/STM32F10x_StdPeriph_Lib_V3.3.0/Libraries/STM32F10x_StdPeriph_Driver/src/stm32f10x_spi.c **** uint16_t SPI_GetCRCPolynomial(SPI_TypeDef* SPIx)
 714:firmware/STM32F10x_StdPeriph_Lib_V3.3.0/Libraries/STM32F10x_StdPeriph_Driver/src/stm32f10x_spi.c **** {
 788              		.loc 1 714 0
 789              		.cfi_startproc
 790              		@ args = 0, pretend = 0, frame = 0
 791              		@ frame_needed = 0, uses_anonymous_args = 0
 792              		@ link register save eliminated.
 793              	.LVL61:
 715:firmware/STM32F10x_StdPeriph_Lib_V3.3.0/Libraries/STM32F10x_StdPeriph_Driver/src/stm32f10x_spi.c ****   /* Check the parameters */
 716:firmware/STM32F10x_StdPeriph_Lib_V3.3.0/Libraries/STM32F10x_StdPeriph_Driver/src/stm32f10x_spi.c ****   assert_param(IS_SPI_ALL_PERIPH(SPIx));
 717:firmware/STM32F10x_StdPeriph_Lib_V3.3.0/Libraries/STM32F10x_StdPeriph_Driver/src/stm32f10x_spi.c ****   
 718:firmware/STM32F10x_StdPeriph_Lib_V3.3.0/Libraries/STM32F10x_StdPeriph_Driver/src/stm32f10x_spi.c ****   /* Return the CRC polynomial register */
 719:firmware/STM32F10x_StdPeriph_Lib_V3.3.0/Libraries/STM32F10x_StdPeriph_Driver/src/stm32f10x_spi.c ****   return SPIx->CRCPR;
 794              		.loc 1 719 0
 795 0000 008A     		ldrh	r0, [r0, #16]
 796              	.LVL62:
 720:firmware/STM32F10x_StdPeriph_Lib_V3.3.0/Libraries/STM32F10x_StdPeriph_Driver/src/stm32f10x_spi.c **** }
 797              		.loc 1 720 0
 798 0002 80B2     		uxth	r0, r0
 799 0004 7047     		bx	lr
 800              		.cfi_endproc
 801              	.LFE46:
 803              		.section	.text.SPI_BiDirectionalLineConfig,"ax",%progbits
 804              		.align	1
 805              		.global	SPI_BiDirectionalLineConfig
 806              		.thumb
 807              		.thumb_func
 809              	SPI_BiDirectionalLineConfig:
 810              	.LFB47:
 721:firmware/STM32F10x_StdPeriph_Lib_V3.3.0/Libraries/STM32F10x_StdPeriph_Driver/src/stm32f10x_spi.c **** 
 722:firmware/STM32F10x_StdPeriph_Lib_V3.3.0/Libraries/STM32F10x_StdPeriph_Driver/src/stm32f10x_spi.c **** /**
 723:firmware/STM32F10x_StdPeriph_Lib_V3.3.0/Libraries/STM32F10x_StdPeriph_Driver/src/stm32f10x_spi.c ****   * @brief  Selects the data transfer direction in bi-directional mode for the specified SPI.
 724:firmware/STM32F10x_StdPeriph_Lib_V3.3.0/Libraries/STM32F10x_StdPeriph_Driver/src/stm32f10x_spi.c ****   * @param  SPIx: where x can be 1, 2 or 3 to select the SPI peripheral.
 725:firmware/STM32F10x_StdPeriph_Lib_V3.3.0/Libraries/STM32F10x_StdPeriph_Driver/src/stm32f10x_spi.c ****   * @param  SPI_Direction: specifies the data transfer direction in bi-directional mode. 
 726:firmware/STM32F10x_StdPeriph_Lib_V3.3.0/Libraries/STM32F10x_StdPeriph_Driver/src/stm32f10x_spi.c ****   *   This parameter can be one of the following values:
 727:firmware/STM32F10x_StdPeriph_Lib_V3.3.0/Libraries/STM32F10x_StdPeriph_Driver/src/stm32f10x_spi.c ****   *     @arg SPI_Direction_Tx: Selects Tx transmission direction
 728:firmware/STM32F10x_StdPeriph_Lib_V3.3.0/Libraries/STM32F10x_StdPeriph_Driver/src/stm32f10x_spi.c ****   *     @arg SPI_Direction_Rx: Selects Rx receive direction
 729:firmware/STM32F10x_StdPeriph_Lib_V3.3.0/Libraries/STM32F10x_StdPeriph_Driver/src/stm32f10x_spi.c ****   * @retval None
 730:firmware/STM32F10x_StdPeriph_Lib_V3.3.0/Libraries/STM32F10x_StdPeriph_Driver/src/stm32f10x_spi.c ****   */
 731:firmware/STM32F10x_StdPeriph_Lib_V3.3.0/Libraries/STM32F10x_StdPeriph_Driver/src/stm32f10x_spi.c **** void SPI_BiDirectionalLineConfig(SPI_TypeDef* SPIx, uint16_t SPI_Direction)
 732:firmware/STM32F10x_StdPeriph_Lib_V3.3.0/Libraries/STM32F10x_StdPeriph_Driver/src/stm32f10x_spi.c **** {
 811              		.loc 1 732 0
 812              		.cfi_startproc
 813              		@ args = 0, pretend = 0, frame = 0
 814              		@ frame_needed = 0, uses_anonymous_args = 0
 815              		@ link register save eliminated.
 816              	.LVL63:
 733:firmware/STM32F10x_StdPeriph_Lib_V3.3.0/Libraries/STM32F10x_StdPeriph_Driver/src/stm32f10x_spi.c ****   /* Check the parameters */
 734:firmware/STM32F10x_StdPeriph_Lib_V3.3.0/Libraries/STM32F10x_StdPeriph_Driver/src/stm32f10x_spi.c ****   assert_param(IS_SPI_ALL_PERIPH(SPIx));
 735:firmware/STM32F10x_StdPeriph_Lib_V3.3.0/Libraries/STM32F10x_StdPeriph_Driver/src/stm32f10x_spi.c ****   assert_param(IS_SPI_DIRECTION(SPI_Direction));
 736:firmware/STM32F10x_StdPeriph_Lib_V3.3.0/Libraries/STM32F10x_StdPeriph_Driver/src/stm32f10x_spi.c ****   if (SPI_Direction == SPI_Direction_Tx)
 817              		.loc 1 736 0
 818 0000 B1F5804F 		cmp	r1, #16384
 819 0004 04D1     		bne	.L58
 737:firmware/STM32F10x_StdPeriph_Lib_V3.3.0/Libraries/STM32F10x_StdPeriph_Driver/src/stm32f10x_spi.c ****   {
 738:firmware/STM32F10x_StdPeriph_Lib_V3.3.0/Libraries/STM32F10x_StdPeriph_Driver/src/stm32f10x_spi.c ****     /* Set the Tx only mode */
 739:firmware/STM32F10x_StdPeriph_Lib_V3.3.0/Libraries/STM32F10x_StdPeriph_Driver/src/stm32f10x_spi.c ****     SPIx->CR1 |= SPI_Direction_Tx;
 820              		.loc 1 739 0
 821 0006 0388     		ldrh	r3, [r0, #0]
 822 0008 9BB2     		uxth	r3, r3
 823 000a 43F48043 		orr	r3, r3, #16384
 824 000e 04E0     		b	.L60
 825              	.L58:
 740:firmware/STM32F10x_StdPeriph_Lib_V3.3.0/Libraries/STM32F10x_StdPeriph_Driver/src/stm32f10x_spi.c ****   }
 741:firmware/STM32F10x_StdPeriph_Lib_V3.3.0/Libraries/STM32F10x_StdPeriph_Driver/src/stm32f10x_spi.c ****   else
 742:firmware/STM32F10x_StdPeriph_Lib_V3.3.0/Libraries/STM32F10x_StdPeriph_Driver/src/stm32f10x_spi.c ****   {
 743:firmware/STM32F10x_StdPeriph_Lib_V3.3.0/Libraries/STM32F10x_StdPeriph_Driver/src/stm32f10x_spi.c ****     /* Set the Rx only mode */
 744:firmware/STM32F10x_StdPeriph_Lib_V3.3.0/Libraries/STM32F10x_StdPeriph_Driver/src/stm32f10x_spi.c ****     SPIx->CR1 &= SPI_Direction_Rx;
 826              		.loc 1 744 0
 827 0010 0388     		ldrh	r3, [r0, #0]
 828 0012 23F48043 		bic	r3, r3, #16384
 829 0016 1B04     		lsls	r3, r3, #16
 830 0018 1B0C     		lsrs	r3, r3, #16
 831              	.L60:
 832 001a 0380     		strh	r3, [r0, #0]	@ movhi
 833 001c 7047     		bx	lr
 834              		.cfi_endproc
 835              	.LFE47:
 837              		.section	.text.SPI_I2S_GetFlagStatus,"ax",%progbits
 838              		.align	1
 839              		.global	SPI_I2S_GetFlagStatus
 840              		.thumb
 841              		.thumb_func
 843              	SPI_I2S_GetFlagStatus:
 844              	.LFB48:
 745:firmware/STM32F10x_StdPeriph_Lib_V3.3.0/Libraries/STM32F10x_StdPeriph_Driver/src/stm32f10x_spi.c ****   }
 746:firmware/STM32F10x_StdPeriph_Lib_V3.3.0/Libraries/STM32F10x_StdPeriph_Driver/src/stm32f10x_spi.c **** }
 747:firmware/STM32F10x_StdPeriph_Lib_V3.3.0/Libraries/STM32F10x_StdPeriph_Driver/src/stm32f10x_spi.c **** 
 748:firmware/STM32F10x_StdPeriph_Lib_V3.3.0/Libraries/STM32F10x_StdPeriph_Driver/src/stm32f10x_spi.c **** /**
 749:firmware/STM32F10x_StdPeriph_Lib_V3.3.0/Libraries/STM32F10x_StdPeriph_Driver/src/stm32f10x_spi.c ****   * @brief  Checks whether the specified SPI/I2S flag is set or not.
 750:firmware/STM32F10x_StdPeriph_Lib_V3.3.0/Libraries/STM32F10x_StdPeriph_Driver/src/stm32f10x_spi.c ****   * @param  SPIx: where x can be
 751:firmware/STM32F10x_StdPeriph_Lib_V3.3.0/Libraries/STM32F10x_StdPeriph_Driver/src/stm32f10x_spi.c ****   *   - 1, 2 or 3 in SPI mode 
 752:firmware/STM32F10x_StdPeriph_Lib_V3.3.0/Libraries/STM32F10x_StdPeriph_Driver/src/stm32f10x_spi.c ****   *   - 2 or 3 in I2S mode
 753:firmware/STM32F10x_StdPeriph_Lib_V3.3.0/Libraries/STM32F10x_StdPeriph_Driver/src/stm32f10x_spi.c ****   * @param  SPI_I2S_FLAG: specifies the SPI/I2S flag to check. 
 754:firmware/STM32F10x_StdPeriph_Lib_V3.3.0/Libraries/STM32F10x_StdPeriph_Driver/src/stm32f10x_spi.c ****   *   This parameter can be one of the following values:
 755:firmware/STM32F10x_StdPeriph_Lib_V3.3.0/Libraries/STM32F10x_StdPeriph_Driver/src/stm32f10x_spi.c ****   *     @arg SPI_I2S_FLAG_TXE: Transmit buffer empty flag.
 756:firmware/STM32F10x_StdPeriph_Lib_V3.3.0/Libraries/STM32F10x_StdPeriph_Driver/src/stm32f10x_spi.c ****   *     @arg SPI_I2S_FLAG_RXNE: Receive buffer not empty flag.
 757:firmware/STM32F10x_StdPeriph_Lib_V3.3.0/Libraries/STM32F10x_StdPeriph_Driver/src/stm32f10x_spi.c ****   *     @arg SPI_I2S_FLAG_BSY: Busy flag.
 758:firmware/STM32F10x_StdPeriph_Lib_V3.3.0/Libraries/STM32F10x_StdPeriph_Driver/src/stm32f10x_spi.c ****   *     @arg SPI_I2S_FLAG_OVR: Overrun flag.
 759:firmware/STM32F10x_StdPeriph_Lib_V3.3.0/Libraries/STM32F10x_StdPeriph_Driver/src/stm32f10x_spi.c ****   *     @arg SPI_FLAG_MODF: Mode Fault flag.
 760:firmware/STM32F10x_StdPeriph_Lib_V3.3.0/Libraries/STM32F10x_StdPeriph_Driver/src/stm32f10x_spi.c ****   *     @arg SPI_FLAG_CRCERR: CRC Error flag.
 761:firmware/STM32F10x_StdPeriph_Lib_V3.3.0/Libraries/STM32F10x_StdPeriph_Driver/src/stm32f10x_spi.c ****   *     @arg I2S_FLAG_UDR: Underrun Error flag.
 762:firmware/STM32F10x_StdPeriph_Lib_V3.3.0/Libraries/STM32F10x_StdPeriph_Driver/src/stm32f10x_spi.c ****   *     @arg I2S_FLAG_CHSIDE: Channel Side flag.
 763:firmware/STM32F10x_StdPeriph_Lib_V3.3.0/Libraries/STM32F10x_StdPeriph_Driver/src/stm32f10x_spi.c ****   * @retval The new state of SPI_I2S_FLAG (SET or RESET).
 764:firmware/STM32F10x_StdPeriph_Lib_V3.3.0/Libraries/STM32F10x_StdPeriph_Driver/src/stm32f10x_spi.c ****   */
 765:firmware/STM32F10x_StdPeriph_Lib_V3.3.0/Libraries/STM32F10x_StdPeriph_Driver/src/stm32f10x_spi.c **** FlagStatus SPI_I2S_GetFlagStatus(SPI_TypeDef* SPIx, uint16_t SPI_I2S_FLAG)
 766:firmware/STM32F10x_StdPeriph_Lib_V3.3.0/Libraries/STM32F10x_StdPeriph_Driver/src/stm32f10x_spi.c **** {
 845              		.loc 1 766 0
 846              		.cfi_startproc
 847              		@ args = 0, pretend = 0, frame = 0
 848              		@ frame_needed = 0, uses_anonymous_args = 0
 849              		@ link register save eliminated.
 850              	.LVL64:
 767:firmware/STM32F10x_StdPeriph_Lib_V3.3.0/Libraries/STM32F10x_StdPeriph_Driver/src/stm32f10x_spi.c ****   FlagStatus bitstatus = RESET;
 768:firmware/STM32F10x_StdPeriph_Lib_V3.3.0/Libraries/STM32F10x_StdPeriph_Driver/src/stm32f10x_spi.c ****   /* Check the parameters */
 769:firmware/STM32F10x_StdPeriph_Lib_V3.3.0/Libraries/STM32F10x_StdPeriph_Driver/src/stm32f10x_spi.c ****   assert_param(IS_SPI_ALL_PERIPH(SPIx));
 770:firmware/STM32F10x_StdPeriph_Lib_V3.3.0/Libraries/STM32F10x_StdPeriph_Driver/src/stm32f10x_spi.c ****   assert_param(IS_SPI_I2S_GET_FLAG(SPI_I2S_FLAG));
 771:firmware/STM32F10x_StdPeriph_Lib_V3.3.0/Libraries/STM32F10x_StdPeriph_Driver/src/stm32f10x_spi.c ****   /* Check the status of the specified SPI/I2S flag */
 772:firmware/STM32F10x_StdPeriph_Lib_V3.3.0/Libraries/STM32F10x_StdPeriph_Driver/src/stm32f10x_spi.c ****   if ((SPIx->SR & SPI_I2S_FLAG) != (uint16_t)RESET)
 851              		.loc 1 772 0
 852 0000 0389     		ldrh	r3, [r0, #8]
 853              	.LVL65:
 773:firmware/STM32F10x_StdPeriph_Lib_V3.3.0/Libraries/STM32F10x_StdPeriph_Driver/src/stm32f10x_spi.c ****   {
 774:firmware/STM32F10x_StdPeriph_Lib_V3.3.0/Libraries/STM32F10x_StdPeriph_Driver/src/stm32f10x_spi.c ****     /* SPI_I2S_FLAG is set */
 775:firmware/STM32F10x_StdPeriph_Lib_V3.3.0/Libraries/STM32F10x_StdPeriph_Driver/src/stm32f10x_spi.c ****     bitstatus = SET;
 854              		.loc 1 775 0
 855 0002 1942     		tst	r1, r3
 776:firmware/STM32F10x_StdPeriph_Lib_V3.3.0/Libraries/STM32F10x_StdPeriph_Driver/src/stm32f10x_spi.c ****   }
 777:firmware/STM32F10x_StdPeriph_Lib_V3.3.0/Libraries/STM32F10x_StdPeriph_Driver/src/stm32f10x_spi.c ****   else
 778:firmware/STM32F10x_StdPeriph_Lib_V3.3.0/Libraries/STM32F10x_StdPeriph_Driver/src/stm32f10x_spi.c ****   {
 779:firmware/STM32F10x_StdPeriph_Lib_V3.3.0/Libraries/STM32F10x_StdPeriph_Driver/src/stm32f10x_spi.c ****     /* SPI_I2S_FLAG is reset */
 780:firmware/STM32F10x_StdPeriph_Lib_V3.3.0/Libraries/STM32F10x_StdPeriph_Driver/src/stm32f10x_spi.c ****     bitstatus = RESET;
 781:firmware/STM32F10x_StdPeriph_Lib_V3.3.0/Libraries/STM32F10x_StdPeriph_Driver/src/stm32f10x_spi.c ****   }
 782:firmware/STM32F10x_StdPeriph_Lib_V3.3.0/Libraries/STM32F10x_StdPeriph_Driver/src/stm32f10x_spi.c ****   /* Return the SPI_I2S_FLAG status */
 783:firmware/STM32F10x_StdPeriph_Lib_V3.3.0/Libraries/STM32F10x_StdPeriph_Driver/src/stm32f10x_spi.c ****   return  bitstatus;
 784:firmware/STM32F10x_StdPeriph_Lib_V3.3.0/Libraries/STM32F10x_StdPeriph_Driver/src/stm32f10x_spi.c **** }
 856              		.loc 1 784 0
 857 0004 0CBF     		ite	eq
 858 0006 0020     		moveq	r0, #0
 859 0008 0120     		movne	r0, #1
 860              	.LVL66:
 861 000a 7047     		bx	lr
 862              		.cfi_endproc
 863              	.LFE48:
 865              		.section	.text.SPI_I2S_ClearFlag,"ax",%progbits
 866              		.align	1
 867              		.global	SPI_I2S_ClearFlag
 868              		.thumb
 869              		.thumb_func
 871              	SPI_I2S_ClearFlag:
 872              	.LFB49:
 785:firmware/STM32F10x_StdPeriph_Lib_V3.3.0/Libraries/STM32F10x_StdPeriph_Driver/src/stm32f10x_spi.c **** 
 786:firmware/STM32F10x_StdPeriph_Lib_V3.3.0/Libraries/STM32F10x_StdPeriph_Driver/src/stm32f10x_spi.c **** /**
 787:firmware/STM32F10x_StdPeriph_Lib_V3.3.0/Libraries/STM32F10x_StdPeriph_Driver/src/stm32f10x_spi.c ****   * @brief  Clears the SPIx CRC Error (CRCERR) flag.
 788:firmware/STM32F10x_StdPeriph_Lib_V3.3.0/Libraries/STM32F10x_StdPeriph_Driver/src/stm32f10x_spi.c ****   * @param  SPIx: where x can be
 789:firmware/STM32F10x_StdPeriph_Lib_V3.3.0/Libraries/STM32F10x_StdPeriph_Driver/src/stm32f10x_spi.c ****   *   - 1, 2 or 3 in SPI mode 
 790:firmware/STM32F10x_StdPeriph_Lib_V3.3.0/Libraries/STM32F10x_StdPeriph_Driver/src/stm32f10x_spi.c ****   * @param  SPI_I2S_FLAG: specifies the SPI flag to clear. 
 791:firmware/STM32F10x_StdPeriph_Lib_V3.3.0/Libraries/STM32F10x_StdPeriph_Driver/src/stm32f10x_spi.c ****   *   This function clears only CRCERR flag.
 792:firmware/STM32F10x_StdPeriph_Lib_V3.3.0/Libraries/STM32F10x_StdPeriph_Driver/src/stm32f10x_spi.c ****   * @note
 793:firmware/STM32F10x_StdPeriph_Lib_V3.3.0/Libraries/STM32F10x_StdPeriph_Driver/src/stm32f10x_spi.c ****   *   - OVR (OverRun error) flag is cleared by software sequence: a read 
 794:firmware/STM32F10x_StdPeriph_Lib_V3.3.0/Libraries/STM32F10x_StdPeriph_Driver/src/stm32f10x_spi.c ****   *     operation to SPI_DR register (SPI_I2S_ReceiveData()) followed by a read 
 795:firmware/STM32F10x_StdPeriph_Lib_V3.3.0/Libraries/STM32F10x_StdPeriph_Driver/src/stm32f10x_spi.c ****   *     operation to SPI_SR register (SPI_I2S_GetFlagStatus()).
 796:firmware/STM32F10x_StdPeriph_Lib_V3.3.0/Libraries/STM32F10x_StdPeriph_Driver/src/stm32f10x_spi.c ****   *   - UDR (UnderRun error) flag is cleared by a read operation to 
 797:firmware/STM32F10x_StdPeriph_Lib_V3.3.0/Libraries/STM32F10x_StdPeriph_Driver/src/stm32f10x_spi.c ****   *     SPI_SR register (SPI_I2S_GetFlagStatus()).
 798:firmware/STM32F10x_StdPeriph_Lib_V3.3.0/Libraries/STM32F10x_StdPeriph_Driver/src/stm32f10x_spi.c ****   *   - MODF (Mode Fault) flag is cleared by software sequence: a read/write 
 799:firmware/STM32F10x_StdPeriph_Lib_V3.3.0/Libraries/STM32F10x_StdPeriph_Driver/src/stm32f10x_spi.c ****   *     operation to SPI_SR register (SPI_I2S_GetFlagStatus()) followed by a 
 800:firmware/STM32F10x_StdPeriph_Lib_V3.3.0/Libraries/STM32F10x_StdPeriph_Driver/src/stm32f10x_spi.c ****   *     write operation to SPI_CR1 register (SPI_Cmd() to enable the SPI).
 801:firmware/STM32F10x_StdPeriph_Lib_V3.3.0/Libraries/STM32F10x_StdPeriph_Driver/src/stm32f10x_spi.c ****   * @retval None
 802:firmware/STM32F10x_StdPeriph_Lib_V3.3.0/Libraries/STM32F10x_StdPeriph_Driver/src/stm32f10x_spi.c ****   */
 803:firmware/STM32F10x_StdPeriph_Lib_V3.3.0/Libraries/STM32F10x_StdPeriph_Driver/src/stm32f10x_spi.c **** void SPI_I2S_ClearFlag(SPI_TypeDef* SPIx, uint16_t SPI_I2S_FLAG)
 804:firmware/STM32F10x_StdPeriph_Lib_V3.3.0/Libraries/STM32F10x_StdPeriph_Driver/src/stm32f10x_spi.c **** {
 873              		.loc 1 804 0
 874              		.cfi_startproc
 875              		@ args = 0, pretend = 0, frame = 0
 876              		@ frame_needed = 0, uses_anonymous_args = 0
 877              		@ link register save eliminated.
 878              	.LVL67:
 805:firmware/STM32F10x_StdPeriph_Lib_V3.3.0/Libraries/STM32F10x_StdPeriph_Driver/src/stm32f10x_spi.c ****   /* Check the parameters */
 806:firmware/STM32F10x_StdPeriph_Lib_V3.3.0/Libraries/STM32F10x_StdPeriph_Driver/src/stm32f10x_spi.c ****   assert_param(IS_SPI_ALL_PERIPH(SPIx));
 807:firmware/STM32F10x_StdPeriph_Lib_V3.3.0/Libraries/STM32F10x_StdPeriph_Driver/src/stm32f10x_spi.c ****   assert_param(IS_SPI_I2S_CLEAR_FLAG(SPI_I2S_FLAG));
 808:firmware/STM32F10x_StdPeriph_Lib_V3.3.0/Libraries/STM32F10x_StdPeriph_Driver/src/stm32f10x_spi.c ****     
 809:firmware/STM32F10x_StdPeriph_Lib_V3.3.0/Libraries/STM32F10x_StdPeriph_Driver/src/stm32f10x_spi.c ****     /* Clear the selected SPI CRC Error (CRCERR) flag */
 810:firmware/STM32F10x_StdPeriph_Lib_V3.3.0/Libraries/STM32F10x_StdPeriph_Driver/src/stm32f10x_spi.c ****     SPIx->SR = (uint16_t)~SPI_I2S_FLAG;
 879              		.loc 1 810 0
 880 0000 C943     		mvns	r1, r1
 881              	.LVL68:
 882 0002 89B2     		uxth	r1, r1
 883 0004 0181     		strh	r1, [r0, #8]	@ movhi
 811:firmware/STM32F10x_StdPeriph_Lib_V3.3.0/Libraries/STM32F10x_StdPeriph_Driver/src/stm32f10x_spi.c **** }
 884              		.loc 1 811 0
 885 0006 7047     		bx	lr
 886              		.cfi_endproc
 887              	.LFE49:
 889              		.section	.text.SPI_I2S_GetITStatus,"ax",%progbits
 890              		.align	1
 891              		.global	SPI_I2S_GetITStatus
 892              		.thumb
 893              		.thumb_func
 895              	SPI_I2S_GetITStatus:
 896              	.LFB50:
 812:firmware/STM32F10x_StdPeriph_Lib_V3.3.0/Libraries/STM32F10x_StdPeriph_Driver/src/stm32f10x_spi.c **** 
 813:firmware/STM32F10x_StdPeriph_Lib_V3.3.0/Libraries/STM32F10x_StdPeriph_Driver/src/stm32f10x_spi.c **** /**
 814:firmware/STM32F10x_StdPeriph_Lib_V3.3.0/Libraries/STM32F10x_StdPeriph_Driver/src/stm32f10x_spi.c ****   * @brief  Checks whether the specified SPI/I2S interrupt has occurred or not.
 815:firmware/STM32F10x_StdPeriph_Lib_V3.3.0/Libraries/STM32F10x_StdPeriph_Driver/src/stm32f10x_spi.c ****   * @param  SPIx: where x can be
 816:firmware/STM32F10x_StdPeriph_Lib_V3.3.0/Libraries/STM32F10x_StdPeriph_Driver/src/stm32f10x_spi.c ****   *   - 1, 2 or 3 in SPI mode 
 817:firmware/STM32F10x_StdPeriph_Lib_V3.3.0/Libraries/STM32F10x_StdPeriph_Driver/src/stm32f10x_spi.c ****   *   - 2 or 3 in I2S mode
 818:firmware/STM32F10x_StdPeriph_Lib_V3.3.0/Libraries/STM32F10x_StdPeriph_Driver/src/stm32f10x_spi.c ****   * @param  SPI_I2S_IT: specifies the SPI/I2S interrupt source to check. 
 819:firmware/STM32F10x_StdPeriph_Lib_V3.3.0/Libraries/STM32F10x_StdPeriph_Driver/src/stm32f10x_spi.c ****   *   This parameter can be one of the following values:
 820:firmware/STM32F10x_StdPeriph_Lib_V3.3.0/Libraries/STM32F10x_StdPeriph_Driver/src/stm32f10x_spi.c ****   *     @arg SPI_I2S_IT_TXE: Transmit buffer empty interrupt.
 821:firmware/STM32F10x_StdPeriph_Lib_V3.3.0/Libraries/STM32F10x_StdPeriph_Driver/src/stm32f10x_spi.c ****   *     @arg SPI_I2S_IT_RXNE: Receive buffer not empty interrupt.
 822:firmware/STM32F10x_StdPeriph_Lib_V3.3.0/Libraries/STM32F10x_StdPeriph_Driver/src/stm32f10x_spi.c ****   *     @arg SPI_I2S_IT_OVR: Overrun interrupt.
 823:firmware/STM32F10x_StdPeriph_Lib_V3.3.0/Libraries/STM32F10x_StdPeriph_Driver/src/stm32f10x_spi.c ****   *     @arg SPI_IT_MODF: Mode Fault interrupt.
 824:firmware/STM32F10x_StdPeriph_Lib_V3.3.0/Libraries/STM32F10x_StdPeriph_Driver/src/stm32f10x_spi.c ****   *     @arg SPI_IT_CRCERR: CRC Error interrupt.
 825:firmware/STM32F10x_StdPeriph_Lib_V3.3.0/Libraries/STM32F10x_StdPeriph_Driver/src/stm32f10x_spi.c ****   *     @arg I2S_IT_UDR: Underrun Error interrupt.
 826:firmware/STM32F10x_StdPeriph_Lib_V3.3.0/Libraries/STM32F10x_StdPeriph_Driver/src/stm32f10x_spi.c ****   * @retval The new state of SPI_I2S_IT (SET or RESET).
 827:firmware/STM32F10x_StdPeriph_Lib_V3.3.0/Libraries/STM32F10x_StdPeriph_Driver/src/stm32f10x_spi.c ****   */
 828:firmware/STM32F10x_StdPeriph_Lib_V3.3.0/Libraries/STM32F10x_StdPeriph_Driver/src/stm32f10x_spi.c **** ITStatus SPI_I2S_GetITStatus(SPI_TypeDef* SPIx, uint8_t SPI_I2S_IT)
 829:firmware/STM32F10x_StdPeriph_Lib_V3.3.0/Libraries/STM32F10x_StdPeriph_Driver/src/stm32f10x_spi.c **** {
 897              		.loc 1 829 0
 898              		.cfi_startproc
 899              		@ args = 0, pretend = 0, frame = 0
 900              		@ frame_needed = 0, uses_anonymous_args = 0
 901              	.LVL69:
 830:firmware/STM32F10x_StdPeriph_Lib_V3.3.0/Libraries/STM32F10x_StdPeriph_Driver/src/stm32f10x_spi.c ****   ITStatus bitstatus = RESET;
 831:firmware/STM32F10x_StdPeriph_Lib_V3.3.0/Libraries/STM32F10x_StdPeriph_Driver/src/stm32f10x_spi.c ****   uint16_t itpos = 0, itmask = 0, enablestatus = 0;
 832:firmware/STM32F10x_StdPeriph_Lib_V3.3.0/Libraries/STM32F10x_StdPeriph_Driver/src/stm32f10x_spi.c **** 
 833:firmware/STM32F10x_StdPeriph_Lib_V3.3.0/Libraries/STM32F10x_StdPeriph_Driver/src/stm32f10x_spi.c ****   /* Check the parameters */
 834:firmware/STM32F10x_StdPeriph_Lib_V3.3.0/Libraries/STM32F10x_StdPeriph_Driver/src/stm32f10x_spi.c ****   assert_param(IS_SPI_ALL_PERIPH(SPIx));
 835:firmware/STM32F10x_StdPeriph_Lib_V3.3.0/Libraries/STM32F10x_StdPeriph_Driver/src/stm32f10x_spi.c ****   assert_param(IS_SPI_I2S_GET_IT(SPI_I2S_IT));
 836:firmware/STM32F10x_StdPeriph_Lib_V3.3.0/Libraries/STM32F10x_StdPeriph_Driver/src/stm32f10x_spi.c **** 
 837:firmware/STM32F10x_StdPeriph_Lib_V3.3.0/Libraries/STM32F10x_StdPeriph_Driver/src/stm32f10x_spi.c ****   /* Get the SPI/I2S IT index */
 838:firmware/STM32F10x_StdPeriph_Lib_V3.3.0/Libraries/STM32F10x_StdPeriph_Driver/src/stm32f10x_spi.c ****   itpos = 0x01 << (SPI_I2S_IT & 0x0F);
 902              		.loc 1 838 0
 903 0000 0123     		movs	r3, #1
 904 0002 01F00F02 		and	r2, r1, #15
 905 0006 13FA02F2 		lsls	r2, r3, r2
 829:firmware/STM32F10x_StdPeriph_Lib_V3.3.0/Libraries/STM32F10x_StdPeriph_Driver/src/stm32f10x_spi.c **** {
 906              		.loc 1 829 0
 907 000a 10B5     		push	{r4, lr}
 908              	.LCFI4:
 909              		.cfi_def_cfa_offset 8
 839:firmware/STM32F10x_StdPeriph_Lib_V3.3.0/Libraries/STM32F10x_StdPeriph_Driver/src/stm32f10x_spi.c **** 
 840:firmware/STM32F10x_StdPeriph_Lib_V3.3.0/Libraries/STM32F10x_StdPeriph_Driver/src/stm32f10x_spi.c ****   /* Get the SPI/I2S IT mask */
 841:firmware/STM32F10x_StdPeriph_Lib_V3.3.0/Libraries/STM32F10x_StdPeriph_Driver/src/stm32f10x_spi.c ****   itmask = SPI_I2S_IT >> 4;
 842:firmware/STM32F10x_StdPeriph_Lib_V3.3.0/Libraries/STM32F10x_StdPeriph_Driver/src/stm32f10x_spi.c **** 
 843:firmware/STM32F10x_StdPeriph_Lib_V3.3.0/Libraries/STM32F10x_StdPeriph_Driver/src/stm32f10x_spi.c ****   /* Set the IT mask */
 844:firmware/STM32F10x_StdPeriph_Lib_V3.3.0/Libraries/STM32F10x_StdPeriph_Driver/src/stm32f10x_spi.c ****   itmask = 0x01 << itmask;
 845:firmware/STM32F10x_StdPeriph_Lib_V3.3.0/Libraries/STM32F10x_StdPeriph_Driver/src/stm32f10x_spi.c **** 
 846:firmware/STM32F10x_StdPeriph_Lib_V3.3.0/Libraries/STM32F10x_StdPeriph_Driver/src/stm32f10x_spi.c ****   /* Get the SPI_I2S_IT enable bit status */
 847:firmware/STM32F10x_StdPeriph_Lib_V3.3.0/Libraries/STM32F10x_StdPeriph_Driver/src/stm32f10x_spi.c ****   enablestatus = (SPIx->CR2 & itmask) ;
 910              		.loc 1 847 0
 911 000c 8488     		ldrh	r4, [r0, #4]
 912              		.cfi_offset 14, -4
 913              		.cfi_offset 4, -8
 848:firmware/STM32F10x_StdPeriph_Lib_V3.3.0/Libraries/STM32F10x_StdPeriph_Driver/src/stm32f10x_spi.c **** 
 849:firmware/STM32F10x_StdPeriph_Lib_V3.3.0/Libraries/STM32F10x_StdPeriph_Driver/src/stm32f10x_spi.c ****   /* Check the status of the specified SPI/I2S interrupt */
 850:firmware/STM32F10x_StdPeriph_Lib_V3.3.0/Libraries/STM32F10x_StdPeriph_Driver/src/stm32f10x_spi.c ****   if (((SPIx->SR & itpos) != (uint16_t)RESET) && enablestatus)
 914              		.loc 1 850 0
 915 000e 0089     		ldrh	r0, [r0, #8]
 916              	.LVL70:
 847:firmware/STM32F10x_StdPeriph_Lib_V3.3.0/Libraries/STM32F10x_StdPeriph_Driver/src/stm32f10x_spi.c ****   enablestatus = (SPIx->CR2 & itmask) ;
 917              		.loc 1 847 0
 918 0010 A4B2     		uxth	r4, r4
 919              	.LVL71:
 920              		.loc 1 850 0
 921 0012 80B2     		uxth	r0, r0
 922 0014 1040     		ands	r0, r0, r2
 923 0016 05D0     		beq	.L64
 844:firmware/STM32F10x_StdPeriph_Lib_V3.3.0/Libraries/STM32F10x_StdPeriph_Driver/src/stm32f10x_spi.c ****   itmask = 0x01 << itmask;
 924              		.loc 1 844 0 discriminator 1
 925 0018 0909     		lsrs	r1, r1, #4
 926              	.LVL72:
 927 001a 8B40     		lsls	r3, r3, r1
 828:firmware/STM32F10x_StdPeriph_Lib_V3.3.0/Libraries/STM32F10x_StdPeriph_Driver/src/stm32f10x_spi.c **** ITStatus SPI_I2S_GetITStatus(SPI_TypeDef* SPIx, uint8_t SPI_I2S_IT)
 928              		.loc 1 828 0 discriminator 1
 929 001c 1C42     		tst	r4, r3
 851:firmware/STM32F10x_StdPeriph_Lib_V3.3.0/Libraries/STM32F10x_StdPeriph_Driver/src/stm32f10x_spi.c ****   {
 852:firmware/STM32F10x_StdPeriph_Lib_V3.3.0/Libraries/STM32F10x_StdPeriph_Driver/src/stm32f10x_spi.c ****     /* SPI_I2S_IT is set */
 853:firmware/STM32F10x_StdPeriph_Lib_V3.3.0/Libraries/STM32F10x_StdPeriph_Driver/src/stm32f10x_spi.c ****     bitstatus = SET;
 930              		.loc 1 853 0 discriminator 1
 931 001e 0CBF     		ite	eq
 932 0020 0020     		moveq	r0, #0
 933 0022 0120     		movne	r0, #1
 934              	.L64:
 935              	.LVL73:
 854:firmware/STM32F10x_StdPeriph_Lib_V3.3.0/Libraries/STM32F10x_StdPeriph_Driver/src/stm32f10x_spi.c ****   }
 855:firmware/STM32F10x_StdPeriph_Lib_V3.3.0/Libraries/STM32F10x_StdPeriph_Driver/src/stm32f10x_spi.c ****   else
 856:firmware/STM32F10x_StdPeriph_Lib_V3.3.0/Libraries/STM32F10x_StdPeriph_Driver/src/stm32f10x_spi.c ****   {
 857:firmware/STM32F10x_StdPeriph_Lib_V3.3.0/Libraries/STM32F10x_StdPeriph_Driver/src/stm32f10x_spi.c ****     /* SPI_I2S_IT is reset */
 858:firmware/STM32F10x_StdPeriph_Lib_V3.3.0/Libraries/STM32F10x_StdPeriph_Driver/src/stm32f10x_spi.c ****     bitstatus = RESET;
 859:firmware/STM32F10x_StdPeriph_Lib_V3.3.0/Libraries/STM32F10x_StdPeriph_Driver/src/stm32f10x_spi.c ****   }
 860:firmware/STM32F10x_StdPeriph_Lib_V3.3.0/Libraries/STM32F10x_StdPeriph_Driver/src/stm32f10x_spi.c ****   /* Return the SPI_I2S_IT status */
 861:firmware/STM32F10x_StdPeriph_Lib_V3.3.0/Libraries/STM32F10x_StdPeriph_Driver/src/stm32f10x_spi.c ****   return bitstatus;
 862:firmware/STM32F10x_StdPeriph_Lib_V3.3.0/Libraries/STM32F10x_StdPeriph_Driver/src/stm32f10x_spi.c **** }
 936              		.loc 1 862 0
 937 0024 10BD     		pop	{r4, pc}
 938              		.cfi_endproc
 939              	.LFE50:
 941              		.section	.text.SPI_I2S_ClearITPendingBit,"ax",%progbits
 942              		.align	1
 943              		.global	SPI_I2S_ClearITPendingBit
 944              		.thumb
 945              		.thumb_func
 947              	SPI_I2S_ClearITPendingBit:
 948              	.LFB51:
 863:firmware/STM32F10x_StdPeriph_Lib_V3.3.0/Libraries/STM32F10x_StdPeriph_Driver/src/stm32f10x_spi.c **** 
 864:firmware/STM32F10x_StdPeriph_Lib_V3.3.0/Libraries/STM32F10x_StdPeriph_Driver/src/stm32f10x_spi.c **** /**
 865:firmware/STM32F10x_StdPeriph_Lib_V3.3.0/Libraries/STM32F10x_StdPeriph_Driver/src/stm32f10x_spi.c ****   * @brief  Clears the SPIx CRC Error (CRCERR) interrupt pending bit.
 866:firmware/STM32F10x_StdPeriph_Lib_V3.3.0/Libraries/STM32F10x_StdPeriph_Driver/src/stm32f10x_spi.c ****   * @param  SPIx: where x can be
 867:firmware/STM32F10x_StdPeriph_Lib_V3.3.0/Libraries/STM32F10x_StdPeriph_Driver/src/stm32f10x_spi.c ****   *   - 1, 2 or 3 in SPI mode 
 868:firmware/STM32F10x_StdPeriph_Lib_V3.3.0/Libraries/STM32F10x_StdPeriph_Driver/src/stm32f10x_spi.c ****   * @param  SPI_I2S_IT: specifies the SPI interrupt pending bit to clear.
 869:firmware/STM32F10x_StdPeriph_Lib_V3.3.0/Libraries/STM32F10x_StdPeriph_Driver/src/stm32f10x_spi.c ****   *   This function clears only CRCERR intetrrupt pending bit.   
 870:firmware/STM32F10x_StdPeriph_Lib_V3.3.0/Libraries/STM32F10x_StdPeriph_Driver/src/stm32f10x_spi.c ****   * @note
 871:firmware/STM32F10x_StdPeriph_Lib_V3.3.0/Libraries/STM32F10x_StdPeriph_Driver/src/stm32f10x_spi.c ****   *   - OVR (OverRun Error) interrupt pending bit is cleared by software 
 872:firmware/STM32F10x_StdPeriph_Lib_V3.3.0/Libraries/STM32F10x_StdPeriph_Driver/src/stm32f10x_spi.c ****   *     sequence: a read operation to SPI_DR register (SPI_I2S_ReceiveData()) 
 873:firmware/STM32F10x_StdPeriph_Lib_V3.3.0/Libraries/STM32F10x_StdPeriph_Driver/src/stm32f10x_spi.c ****   *     followed by a read operation to SPI_SR register (SPI_I2S_GetITStatus()).
 874:firmware/STM32F10x_StdPeriph_Lib_V3.3.0/Libraries/STM32F10x_StdPeriph_Driver/src/stm32f10x_spi.c ****   *   - UDR (UnderRun Error) interrupt pending bit is cleared by a read 
 875:firmware/STM32F10x_StdPeriph_Lib_V3.3.0/Libraries/STM32F10x_StdPeriph_Driver/src/stm32f10x_spi.c ****   *     operation to SPI_SR register (SPI_I2S_GetITStatus()).
 876:firmware/STM32F10x_StdPeriph_Lib_V3.3.0/Libraries/STM32F10x_StdPeriph_Driver/src/stm32f10x_spi.c ****   *   - MODF (Mode Fault) interrupt pending bit is cleared by software sequence:
 877:firmware/STM32F10x_StdPeriph_Lib_V3.3.0/Libraries/STM32F10x_StdPeriph_Driver/src/stm32f10x_spi.c ****   *     a read/write operation to SPI_SR register (SPI_I2S_GetITStatus()) 
 878:firmware/STM32F10x_StdPeriph_Lib_V3.3.0/Libraries/STM32F10x_StdPeriph_Driver/src/stm32f10x_spi.c ****   *     followed by a write operation to SPI_CR1 register (SPI_Cmd() to enable 
 879:firmware/STM32F10x_StdPeriph_Lib_V3.3.0/Libraries/STM32F10x_StdPeriph_Driver/src/stm32f10x_spi.c ****   *     the SPI).
 880:firmware/STM32F10x_StdPeriph_Lib_V3.3.0/Libraries/STM32F10x_StdPeriph_Driver/src/stm32f10x_spi.c ****   * @retval None
 881:firmware/STM32F10x_StdPeriph_Lib_V3.3.0/Libraries/STM32F10x_StdPeriph_Driver/src/stm32f10x_spi.c ****   */
 882:firmware/STM32F10x_StdPeriph_Lib_V3.3.0/Libraries/STM32F10x_StdPeriph_Driver/src/stm32f10x_spi.c **** void SPI_I2S_ClearITPendingBit(SPI_TypeDef* SPIx, uint8_t SPI_I2S_IT)
 883:firmware/STM32F10x_StdPeriph_Lib_V3.3.0/Libraries/STM32F10x_StdPeriph_Driver/src/stm32f10x_spi.c **** {
 949              		.loc 1 883 0
 950              		.cfi_startproc
 951              		@ args = 0, pretend = 0, frame = 0
 952              		@ frame_needed = 0, uses_anonymous_args = 0
 953              		@ link register save eliminated.
 954              	.LVL74:
 884:firmware/STM32F10x_StdPeriph_Lib_V3.3.0/Libraries/STM32F10x_StdPeriph_Driver/src/stm32f10x_spi.c ****   uint16_t itpos = 0;
 885:firmware/STM32F10x_StdPeriph_Lib_V3.3.0/Libraries/STM32F10x_StdPeriph_Driver/src/stm32f10x_spi.c ****   /* Check the parameters */
 886:firmware/STM32F10x_StdPeriph_Lib_V3.3.0/Libraries/STM32F10x_StdPeriph_Driver/src/stm32f10x_spi.c ****   assert_param(IS_SPI_ALL_PERIPH(SPIx));
 887:firmware/STM32F10x_StdPeriph_Lib_V3.3.0/Libraries/STM32F10x_StdPeriph_Driver/src/stm32f10x_spi.c ****   assert_param(IS_SPI_I2S_CLEAR_IT(SPI_I2S_IT));
 888:firmware/STM32F10x_StdPeriph_Lib_V3.3.0/Libraries/STM32F10x_StdPeriph_Driver/src/stm32f10x_spi.c **** 
 889:firmware/STM32F10x_StdPeriph_Lib_V3.3.0/Libraries/STM32F10x_StdPeriph_Driver/src/stm32f10x_spi.c ****   /* Get the SPI IT index */
 890:firmware/STM32F10x_StdPeriph_Lib_V3.3.0/Libraries/STM32F10x_StdPeriph_Driver/src/stm32f10x_spi.c ****   itpos = 0x01 << (SPI_I2S_IT & 0x0F);
 955              		.loc 1 890 0
 956 0000 01F00F01 		and	r1, r1, #15
 957              	.LVL75:
 958 0004 0123     		movs	r3, #1
 959 0006 8B40     		lsls	r3, r3, r1
 891:firmware/STM32F10x_StdPeriph_Lib_V3.3.0/Libraries/STM32F10x_StdPeriph_Driver/src/stm32f10x_spi.c **** 
 892:firmware/STM32F10x_StdPeriph_Lib_V3.3.0/Libraries/STM32F10x_StdPeriph_Driver/src/stm32f10x_spi.c ****   /* Clear the selected SPI CRC Error (CRCERR) interrupt pending bit */
 893:firmware/STM32F10x_StdPeriph_Lib_V3.3.0/Libraries/STM32F10x_StdPeriph_Driver/src/stm32f10x_spi.c ****   SPIx->SR = (uint16_t)~itpos;
 960              		.loc 1 893 0
 961 0008 DB43     		mvns	r3, r3
 962 000a 9BB2     		uxth	r3, r3
 963 000c 0381     		strh	r3, [r0, #8]	@ movhi
 894:firmware/STM32F10x_StdPeriph_Lib_V3.3.0/Libraries/STM32F10x_StdPeriph_Driver/src/stm32f10x_spi.c **** }
 964              		.loc 1 894 0
 965 000e 7047     		bx	lr
 966              		.cfi_endproc
 967              	.LFE51:
 969              		.text
 970              	.Letext0: