   1              		.syntax unified
   2              		.cpu cortex-m3
   3              		.fpu softvfp
   4              		.eabi_attribute 20, 1
   5              		.eabi_attribute 21, 1
   6              		.eabi_attribute 23, 3
   7              		.eabi_attribute 24, 1
   8              		.eabi_attribute 25, 1
   9              		.eabi_attribute 26, 1
  10              		.eabi_attribute 30, 4
  11              		.eabi_attribute 18, 4
  12              		.thumb
  13              		.file	"stm32f10x_rcc.c"
  21              	.Ltext0:
  22              		.cfi_sections	.debug_frame
  23              		.section	.text.RCC_DeInit,"ax",%progbits
  24              		.align	1
  25              		.global	RCC_DeInit
  26              		.thumb
  27              		.thumb_func
  29              	RCC_DeInit:
  30              	.LFB29:
  31              		.file 1 "firmware/STM32F10x_StdPeriph_Lib_V3.3.0/Libraries/STM32F10x_StdPeriph_Driver/src/stm32f10
   1:firmware/STM32F10x_StdPeriph_Lib_V3.3.0/Libraries/STM32F10x_StdPeriph_Driver/src/stm32f10x_rcc.c **** /**
   2:firmware/STM32F10x_StdPeriph_Lib_V3.3.0/Libraries/STM32F10x_StdPeriph_Driver/src/stm32f10x_rcc.c ****   ******************************************************************************
   3:firmware/STM32F10x_StdPeriph_Lib_V3.3.0/Libraries/STM32F10x_StdPeriph_Driver/src/stm32f10x_rcc.c ****   * @file    stm32f10x_rcc.c
   4:firmware/STM32F10x_StdPeriph_Lib_V3.3.0/Libraries/STM32F10x_StdPeriph_Driver/src/stm32f10x_rcc.c ****   * @author  MCD Application Team
   5:firmware/STM32F10x_StdPeriph_Lib_V3.3.0/Libraries/STM32F10x_StdPeriph_Driver/src/stm32f10x_rcc.c ****   * @version V3.3.0
   6:firmware/STM32F10x_StdPeriph_Lib_V3.3.0/Libraries/STM32F10x_StdPeriph_Driver/src/stm32f10x_rcc.c ****   * @date    04/16/2010
   7:firmware/STM32F10x_StdPeriph_Lib_V3.3.0/Libraries/STM32F10x_StdPeriph_Driver/src/stm32f10x_rcc.c ****   * @brief   This file provides all the RCC firmware functions.
   8:firmware/STM32F10x_StdPeriph_Lib_V3.3.0/Libraries/STM32F10x_StdPeriph_Driver/src/stm32f10x_rcc.c ****   ******************************************************************************
   9:firmware/STM32F10x_StdPeriph_Lib_V3.3.0/Libraries/STM32F10x_StdPeriph_Driver/src/stm32f10x_rcc.c ****   * @copy
  10:firmware/STM32F10x_StdPeriph_Lib_V3.3.0/Libraries/STM32F10x_StdPeriph_Driver/src/stm32f10x_rcc.c ****   *
  11:firmware/STM32F10x_StdPeriph_Lib_V3.3.0/Libraries/STM32F10x_StdPeriph_Driver/src/stm32f10x_rcc.c ****   * THE PRESENT FIRMWARE WHICH IS FOR GUIDANCE ONLY AIMS AT PROVIDING CUSTOMERS
  12:firmware/STM32F10x_StdPeriph_Lib_V3.3.0/Libraries/STM32F10x_StdPeriph_Driver/src/stm32f10x_rcc.c ****   * WITH CODING INFORMATION REGARDING THEIR PRODUCTS IN ORDER FOR THEM TO SAVE
  13:firmware/STM32F10x_StdPeriph_Lib_V3.3.0/Libraries/STM32F10x_StdPeriph_Driver/src/stm32f10x_rcc.c ****   * TIME. AS A RESULT, STMICROELECTRONICS SHALL NOT BE HELD LIABLE FOR ANY
  14:firmware/STM32F10x_StdPeriph_Lib_V3.3.0/Libraries/STM32F10x_StdPeriph_Driver/src/stm32f10x_rcc.c ****   * DIRECT, INDIRECT OR CONSEQUENTIAL DAMAGES WITH RESPECT TO ANY CLAIMS ARISING
  15:firmware/STM32F10x_StdPeriph_Lib_V3.3.0/Libraries/STM32F10x_StdPeriph_Driver/src/stm32f10x_rcc.c ****   * FROM THE CONTENT OF SUCH FIRMWARE AND/OR THE USE MADE BY CUSTOMERS OF THE
  16:firmware/STM32F10x_StdPeriph_Lib_V3.3.0/Libraries/STM32F10x_StdPeriph_Driver/src/stm32f10x_rcc.c ****   * CODING INFORMATION CONTAINED HEREIN IN CONNECTION WITH THEIR PRODUCTS.
  17:firmware/STM32F10x_StdPeriph_Lib_V3.3.0/Libraries/STM32F10x_StdPeriph_Driver/src/stm32f10x_rcc.c ****   *
  18:firmware/STM32F10x_StdPeriph_Lib_V3.3.0/Libraries/STM32F10x_StdPeriph_Driver/src/stm32f10x_rcc.c ****   * <h2><center>&copy; COPYRIGHT 2010 STMicroelectronics</center></h2>
  19:firmware/STM32F10x_StdPeriph_Lib_V3.3.0/Libraries/STM32F10x_StdPeriph_Driver/src/stm32f10x_rcc.c ****   */ 
  20:firmware/STM32F10x_StdPeriph_Lib_V3.3.0/Libraries/STM32F10x_StdPeriph_Driver/src/stm32f10x_rcc.c **** 
  21:firmware/STM32F10x_StdPeriph_Lib_V3.3.0/Libraries/STM32F10x_StdPeriph_Driver/src/stm32f10x_rcc.c **** /* Includes ------------------------------------------------------------------*/
  22:firmware/STM32F10x_StdPeriph_Lib_V3.3.0/Libraries/STM32F10x_StdPeriph_Driver/src/stm32f10x_rcc.c **** #include "stm32f10x_rcc.h"
  23:firmware/STM32F10x_StdPeriph_Lib_V3.3.0/Libraries/STM32F10x_StdPeriph_Driver/src/stm32f10x_rcc.c **** 
  24:firmware/STM32F10x_StdPeriph_Lib_V3.3.0/Libraries/STM32F10x_StdPeriph_Driver/src/stm32f10x_rcc.c **** /** @addtogroup STM32F10x_StdPeriph_Driver
  25:firmware/STM32F10x_StdPeriph_Lib_V3.3.0/Libraries/STM32F10x_StdPeriph_Driver/src/stm32f10x_rcc.c ****   * @{
  26:firmware/STM32F10x_StdPeriph_Lib_V3.3.0/Libraries/STM32F10x_StdPeriph_Driver/src/stm32f10x_rcc.c ****   */
  27:firmware/STM32F10x_StdPeriph_Lib_V3.3.0/Libraries/STM32F10x_StdPeriph_Driver/src/stm32f10x_rcc.c **** 
  28:firmware/STM32F10x_StdPeriph_Lib_V3.3.0/Libraries/STM32F10x_StdPeriph_Driver/src/stm32f10x_rcc.c **** /** @defgroup RCC 
  29:firmware/STM32F10x_StdPeriph_Lib_V3.3.0/Libraries/STM32F10x_StdPeriph_Driver/src/stm32f10x_rcc.c ****   * @brief RCC driver modules
  30:firmware/STM32F10x_StdPeriph_Lib_V3.3.0/Libraries/STM32F10x_StdPeriph_Driver/src/stm32f10x_rcc.c ****   * @{
  31:firmware/STM32F10x_StdPeriph_Lib_V3.3.0/Libraries/STM32F10x_StdPeriph_Driver/src/stm32f10x_rcc.c ****   */ 
  32:firmware/STM32F10x_StdPeriph_Lib_V3.3.0/Libraries/STM32F10x_StdPeriph_Driver/src/stm32f10x_rcc.c **** 
  33:firmware/STM32F10x_StdPeriph_Lib_V3.3.0/Libraries/STM32F10x_StdPeriph_Driver/src/stm32f10x_rcc.c **** /** @defgroup RCC_Private_TypesDefinitions
  34:firmware/STM32F10x_StdPeriph_Lib_V3.3.0/Libraries/STM32F10x_StdPeriph_Driver/src/stm32f10x_rcc.c ****   * @{
  35:firmware/STM32F10x_StdPeriph_Lib_V3.3.0/Libraries/STM32F10x_StdPeriph_Driver/src/stm32f10x_rcc.c ****   */
  36:firmware/STM32F10x_StdPeriph_Lib_V3.3.0/Libraries/STM32F10x_StdPeriph_Driver/src/stm32f10x_rcc.c **** 
  37:firmware/STM32F10x_StdPeriph_Lib_V3.3.0/Libraries/STM32F10x_StdPeriph_Driver/src/stm32f10x_rcc.c **** /**
  38:firmware/STM32F10x_StdPeriph_Lib_V3.3.0/Libraries/STM32F10x_StdPeriph_Driver/src/stm32f10x_rcc.c ****   * @}
  39:firmware/STM32F10x_StdPeriph_Lib_V3.3.0/Libraries/STM32F10x_StdPeriph_Driver/src/stm32f10x_rcc.c ****   */
  40:firmware/STM32F10x_StdPeriph_Lib_V3.3.0/Libraries/STM32F10x_StdPeriph_Driver/src/stm32f10x_rcc.c **** 
  41:firmware/STM32F10x_StdPeriph_Lib_V3.3.0/Libraries/STM32F10x_StdPeriph_Driver/src/stm32f10x_rcc.c **** /** @defgroup RCC_Private_Defines
  42:firmware/STM32F10x_StdPeriph_Lib_V3.3.0/Libraries/STM32F10x_StdPeriph_Driver/src/stm32f10x_rcc.c ****   * @{
  43:firmware/STM32F10x_StdPeriph_Lib_V3.3.0/Libraries/STM32F10x_StdPeriph_Driver/src/stm32f10x_rcc.c ****   */
  44:firmware/STM32F10x_StdPeriph_Lib_V3.3.0/Libraries/STM32F10x_StdPeriph_Driver/src/stm32f10x_rcc.c **** 
  45:firmware/STM32F10x_StdPeriph_Lib_V3.3.0/Libraries/STM32F10x_StdPeriph_Driver/src/stm32f10x_rcc.c **** /* ------------ RCC registers bit address in the alias region ----------- */
  46:firmware/STM32F10x_StdPeriph_Lib_V3.3.0/Libraries/STM32F10x_StdPeriph_Driver/src/stm32f10x_rcc.c **** #define RCC_OFFSET                (RCC_BASE - PERIPH_BASE)
  47:firmware/STM32F10x_StdPeriph_Lib_V3.3.0/Libraries/STM32F10x_StdPeriph_Driver/src/stm32f10x_rcc.c **** 
  48:firmware/STM32F10x_StdPeriph_Lib_V3.3.0/Libraries/STM32F10x_StdPeriph_Driver/src/stm32f10x_rcc.c **** /* --- CR Register ---*/
  49:firmware/STM32F10x_StdPeriph_Lib_V3.3.0/Libraries/STM32F10x_StdPeriph_Driver/src/stm32f10x_rcc.c **** 
  50:firmware/STM32F10x_StdPeriph_Lib_V3.3.0/Libraries/STM32F10x_StdPeriph_Driver/src/stm32f10x_rcc.c **** /* Alias word address of HSION bit */
  51:firmware/STM32F10x_StdPeriph_Lib_V3.3.0/Libraries/STM32F10x_StdPeriph_Driver/src/stm32f10x_rcc.c **** #define CR_OFFSET                 (RCC_OFFSET + 0x00)
  52:firmware/STM32F10x_StdPeriph_Lib_V3.3.0/Libraries/STM32F10x_StdPeriph_Driver/src/stm32f10x_rcc.c **** #define HSION_BitNumber           0x00
  53:firmware/STM32F10x_StdPeriph_Lib_V3.3.0/Libraries/STM32F10x_StdPeriph_Driver/src/stm32f10x_rcc.c **** #define CR_HSION_BB               (PERIPH_BB_BASE + (CR_OFFSET * 32) + (HSION_BitNumber * 4))
  54:firmware/STM32F10x_StdPeriph_Lib_V3.3.0/Libraries/STM32F10x_StdPeriph_Driver/src/stm32f10x_rcc.c **** 
  55:firmware/STM32F10x_StdPeriph_Lib_V3.3.0/Libraries/STM32F10x_StdPeriph_Driver/src/stm32f10x_rcc.c **** /* Alias word address of PLLON bit */
  56:firmware/STM32F10x_StdPeriph_Lib_V3.3.0/Libraries/STM32F10x_StdPeriph_Driver/src/stm32f10x_rcc.c **** #define PLLON_BitNumber           0x18
  57:firmware/STM32F10x_StdPeriph_Lib_V3.3.0/Libraries/STM32F10x_StdPeriph_Driver/src/stm32f10x_rcc.c **** #define CR_PLLON_BB               (PERIPH_BB_BASE + (CR_OFFSET * 32) + (PLLON_BitNumber * 4))
  58:firmware/STM32F10x_StdPeriph_Lib_V3.3.0/Libraries/STM32F10x_StdPeriph_Driver/src/stm32f10x_rcc.c **** 
  59:firmware/STM32F10x_StdPeriph_Lib_V3.3.0/Libraries/STM32F10x_StdPeriph_Driver/src/stm32f10x_rcc.c **** #ifdef STM32F10X_CL
  60:firmware/STM32F10x_StdPeriph_Lib_V3.3.0/Libraries/STM32F10x_StdPeriph_Driver/src/stm32f10x_rcc.c ****  /* Alias word address of PLL2ON bit */
  61:firmware/STM32F10x_StdPeriph_Lib_V3.3.0/Libraries/STM32F10x_StdPeriph_Driver/src/stm32f10x_rcc.c ****  #define PLL2ON_BitNumber          0x1A
  62:firmware/STM32F10x_StdPeriph_Lib_V3.3.0/Libraries/STM32F10x_StdPeriph_Driver/src/stm32f10x_rcc.c ****  #define CR_PLL2ON_BB              (PERIPH_BB_BASE + (CR_OFFSET * 32) + (PLL2ON_BitNumber * 4))
  63:firmware/STM32F10x_StdPeriph_Lib_V3.3.0/Libraries/STM32F10x_StdPeriph_Driver/src/stm32f10x_rcc.c **** 
  64:firmware/STM32F10x_StdPeriph_Lib_V3.3.0/Libraries/STM32F10x_StdPeriph_Driver/src/stm32f10x_rcc.c ****  /* Alias word address of PLL3ON bit */
  65:firmware/STM32F10x_StdPeriph_Lib_V3.3.0/Libraries/STM32F10x_StdPeriph_Driver/src/stm32f10x_rcc.c ****  #define PLL3ON_BitNumber          0x1C
  66:firmware/STM32F10x_StdPeriph_Lib_V3.3.0/Libraries/STM32F10x_StdPeriph_Driver/src/stm32f10x_rcc.c ****  #define CR_PLL3ON_BB              (PERIPH_BB_BASE + (CR_OFFSET * 32) + (PLL3ON_BitNumber * 4))
  67:firmware/STM32F10x_StdPeriph_Lib_V3.3.0/Libraries/STM32F10x_StdPeriph_Driver/src/stm32f10x_rcc.c **** #endif /* STM32F10X_CL */ 
  68:firmware/STM32F10x_StdPeriph_Lib_V3.3.0/Libraries/STM32F10x_StdPeriph_Driver/src/stm32f10x_rcc.c **** 
  69:firmware/STM32F10x_StdPeriph_Lib_V3.3.0/Libraries/STM32F10x_StdPeriph_Driver/src/stm32f10x_rcc.c **** /* Alias word address of CSSON bit */
  70:firmware/STM32F10x_StdPeriph_Lib_V3.3.0/Libraries/STM32F10x_StdPeriph_Driver/src/stm32f10x_rcc.c **** #define CSSON_BitNumber           0x13
  71:firmware/STM32F10x_StdPeriph_Lib_V3.3.0/Libraries/STM32F10x_StdPeriph_Driver/src/stm32f10x_rcc.c **** #define CR_CSSON_BB               (PERIPH_BB_BASE + (CR_OFFSET * 32) + (CSSON_BitNumber * 4))
  72:firmware/STM32F10x_StdPeriph_Lib_V3.3.0/Libraries/STM32F10x_StdPeriph_Driver/src/stm32f10x_rcc.c **** 
  73:firmware/STM32F10x_StdPeriph_Lib_V3.3.0/Libraries/STM32F10x_StdPeriph_Driver/src/stm32f10x_rcc.c **** /* --- CFGR Register ---*/
  74:firmware/STM32F10x_StdPeriph_Lib_V3.3.0/Libraries/STM32F10x_StdPeriph_Driver/src/stm32f10x_rcc.c **** 
  75:firmware/STM32F10x_StdPeriph_Lib_V3.3.0/Libraries/STM32F10x_StdPeriph_Driver/src/stm32f10x_rcc.c **** /* Alias word address of USBPRE bit */
  76:firmware/STM32F10x_StdPeriph_Lib_V3.3.0/Libraries/STM32F10x_StdPeriph_Driver/src/stm32f10x_rcc.c **** #define CFGR_OFFSET               (RCC_OFFSET + 0x04)
  77:firmware/STM32F10x_StdPeriph_Lib_V3.3.0/Libraries/STM32F10x_StdPeriph_Driver/src/stm32f10x_rcc.c **** 
  78:firmware/STM32F10x_StdPeriph_Lib_V3.3.0/Libraries/STM32F10x_StdPeriph_Driver/src/stm32f10x_rcc.c **** #ifndef STM32F10X_CL
  79:firmware/STM32F10x_StdPeriph_Lib_V3.3.0/Libraries/STM32F10x_StdPeriph_Driver/src/stm32f10x_rcc.c ****  #define USBPRE_BitNumber          0x16
  80:firmware/STM32F10x_StdPeriph_Lib_V3.3.0/Libraries/STM32F10x_StdPeriph_Driver/src/stm32f10x_rcc.c ****  #define CFGR_USBPRE_BB            (PERIPH_BB_BASE + (CFGR_OFFSET * 32) + (USBPRE_BitNumber * 4))
  81:firmware/STM32F10x_StdPeriph_Lib_V3.3.0/Libraries/STM32F10x_StdPeriph_Driver/src/stm32f10x_rcc.c **** #else
  82:firmware/STM32F10x_StdPeriph_Lib_V3.3.0/Libraries/STM32F10x_StdPeriph_Driver/src/stm32f10x_rcc.c ****  #define OTGFSPRE_BitNumber        0x16
  83:firmware/STM32F10x_StdPeriph_Lib_V3.3.0/Libraries/STM32F10x_StdPeriph_Driver/src/stm32f10x_rcc.c ****  #define CFGR_OTGFSPRE_BB          (PERIPH_BB_BASE + (CFGR_OFFSET * 32) + (OTGFSPRE_BitNumber * 4))
  84:firmware/STM32F10x_StdPeriph_Lib_V3.3.0/Libraries/STM32F10x_StdPeriph_Driver/src/stm32f10x_rcc.c **** #endif /* STM32F10X_CL */ 
  85:firmware/STM32F10x_StdPeriph_Lib_V3.3.0/Libraries/STM32F10x_StdPeriph_Driver/src/stm32f10x_rcc.c **** 
  86:firmware/STM32F10x_StdPeriph_Lib_V3.3.0/Libraries/STM32F10x_StdPeriph_Driver/src/stm32f10x_rcc.c **** /* --- BDCR Register ---*/
  87:firmware/STM32F10x_StdPeriph_Lib_V3.3.0/Libraries/STM32F10x_StdPeriph_Driver/src/stm32f10x_rcc.c **** 
  88:firmware/STM32F10x_StdPeriph_Lib_V3.3.0/Libraries/STM32F10x_StdPeriph_Driver/src/stm32f10x_rcc.c **** /* Alias word address of RTCEN bit */
  89:firmware/STM32F10x_StdPeriph_Lib_V3.3.0/Libraries/STM32F10x_StdPeriph_Driver/src/stm32f10x_rcc.c **** #define BDCR_OFFSET               (RCC_OFFSET + 0x20)
  90:firmware/STM32F10x_StdPeriph_Lib_V3.3.0/Libraries/STM32F10x_StdPeriph_Driver/src/stm32f10x_rcc.c **** #define RTCEN_BitNumber           0x0F
  91:firmware/STM32F10x_StdPeriph_Lib_V3.3.0/Libraries/STM32F10x_StdPeriph_Driver/src/stm32f10x_rcc.c **** #define BDCR_RTCEN_BB             (PERIPH_BB_BASE + (BDCR_OFFSET * 32) + (RTCEN_BitNumber * 4))
  92:firmware/STM32F10x_StdPeriph_Lib_V3.3.0/Libraries/STM32F10x_StdPeriph_Driver/src/stm32f10x_rcc.c **** 
  93:firmware/STM32F10x_StdPeriph_Lib_V3.3.0/Libraries/STM32F10x_StdPeriph_Driver/src/stm32f10x_rcc.c **** /* Alias word address of BDRST bit */
  94:firmware/STM32F10x_StdPeriph_Lib_V3.3.0/Libraries/STM32F10x_StdPeriph_Driver/src/stm32f10x_rcc.c **** #define BDRST_BitNumber           0x10
  95:firmware/STM32F10x_StdPeriph_Lib_V3.3.0/Libraries/STM32F10x_StdPeriph_Driver/src/stm32f10x_rcc.c **** #define BDCR_BDRST_BB             (PERIPH_BB_BASE + (BDCR_OFFSET * 32) + (BDRST_BitNumber * 4))
  96:firmware/STM32F10x_StdPeriph_Lib_V3.3.0/Libraries/STM32F10x_StdPeriph_Driver/src/stm32f10x_rcc.c **** 
  97:firmware/STM32F10x_StdPeriph_Lib_V3.3.0/Libraries/STM32F10x_StdPeriph_Driver/src/stm32f10x_rcc.c **** /* --- CSR Register ---*/
  98:firmware/STM32F10x_StdPeriph_Lib_V3.3.0/Libraries/STM32F10x_StdPeriph_Driver/src/stm32f10x_rcc.c **** 
  99:firmware/STM32F10x_StdPeriph_Lib_V3.3.0/Libraries/STM32F10x_StdPeriph_Driver/src/stm32f10x_rcc.c **** /* Alias word address of LSION bit */
 100:firmware/STM32F10x_StdPeriph_Lib_V3.3.0/Libraries/STM32F10x_StdPeriph_Driver/src/stm32f10x_rcc.c **** #define CSR_OFFSET                (RCC_OFFSET + 0x24)
 101:firmware/STM32F10x_StdPeriph_Lib_V3.3.0/Libraries/STM32F10x_StdPeriph_Driver/src/stm32f10x_rcc.c **** #define LSION_BitNumber           0x00
 102:firmware/STM32F10x_StdPeriph_Lib_V3.3.0/Libraries/STM32F10x_StdPeriph_Driver/src/stm32f10x_rcc.c **** #define CSR_LSION_BB              (PERIPH_BB_BASE + (CSR_OFFSET * 32) + (LSION_BitNumber * 4))
 103:firmware/STM32F10x_StdPeriph_Lib_V3.3.0/Libraries/STM32F10x_StdPeriph_Driver/src/stm32f10x_rcc.c **** 
 104:firmware/STM32F10x_StdPeriph_Lib_V3.3.0/Libraries/STM32F10x_StdPeriph_Driver/src/stm32f10x_rcc.c **** #ifdef STM32F10X_CL
 105:firmware/STM32F10x_StdPeriph_Lib_V3.3.0/Libraries/STM32F10x_StdPeriph_Driver/src/stm32f10x_rcc.c **** /* --- CFGR2 Register ---*/
 106:firmware/STM32F10x_StdPeriph_Lib_V3.3.0/Libraries/STM32F10x_StdPeriph_Driver/src/stm32f10x_rcc.c **** 
 107:firmware/STM32F10x_StdPeriph_Lib_V3.3.0/Libraries/STM32F10x_StdPeriph_Driver/src/stm32f10x_rcc.c ****  /* Alias word address of I2S2SRC bit */
 108:firmware/STM32F10x_StdPeriph_Lib_V3.3.0/Libraries/STM32F10x_StdPeriph_Driver/src/stm32f10x_rcc.c ****  #define CFGR2_OFFSET              (RCC_OFFSET + 0x2C)
 109:firmware/STM32F10x_StdPeriph_Lib_V3.3.0/Libraries/STM32F10x_StdPeriph_Driver/src/stm32f10x_rcc.c ****  #define I2S2SRC_BitNumber         0x11
 110:firmware/STM32F10x_StdPeriph_Lib_V3.3.0/Libraries/STM32F10x_StdPeriph_Driver/src/stm32f10x_rcc.c ****  #define CFGR2_I2S2SRC_BB          (PERIPH_BB_BASE + (CFGR2_OFFSET * 32) + (I2S2SRC_BitNumber * 4))
 111:firmware/STM32F10x_StdPeriph_Lib_V3.3.0/Libraries/STM32F10x_StdPeriph_Driver/src/stm32f10x_rcc.c **** 
 112:firmware/STM32F10x_StdPeriph_Lib_V3.3.0/Libraries/STM32F10x_StdPeriph_Driver/src/stm32f10x_rcc.c ****  /* Alias word address of I2S3SRC bit */
 113:firmware/STM32F10x_StdPeriph_Lib_V3.3.0/Libraries/STM32F10x_StdPeriph_Driver/src/stm32f10x_rcc.c ****  #define I2S3SRC_BitNumber         0x12
 114:firmware/STM32F10x_StdPeriph_Lib_V3.3.0/Libraries/STM32F10x_StdPeriph_Driver/src/stm32f10x_rcc.c ****  #define CFGR2_I2S3SRC_BB          (PERIPH_BB_BASE + (CFGR2_OFFSET * 32) + (I2S3SRC_BitNumber * 4))
 115:firmware/STM32F10x_StdPeriph_Lib_V3.3.0/Libraries/STM32F10x_StdPeriph_Driver/src/stm32f10x_rcc.c **** #endif /* STM32F10X_CL */
 116:firmware/STM32F10x_StdPeriph_Lib_V3.3.0/Libraries/STM32F10x_StdPeriph_Driver/src/stm32f10x_rcc.c **** 
 117:firmware/STM32F10x_StdPeriph_Lib_V3.3.0/Libraries/STM32F10x_StdPeriph_Driver/src/stm32f10x_rcc.c **** /* ---------------------- RCC registers bit mask ------------------------ */
 118:firmware/STM32F10x_StdPeriph_Lib_V3.3.0/Libraries/STM32F10x_StdPeriph_Driver/src/stm32f10x_rcc.c **** 
 119:firmware/STM32F10x_StdPeriph_Lib_V3.3.0/Libraries/STM32F10x_StdPeriph_Driver/src/stm32f10x_rcc.c **** /* CR register bit mask */
 120:firmware/STM32F10x_StdPeriph_Lib_V3.3.0/Libraries/STM32F10x_StdPeriph_Driver/src/stm32f10x_rcc.c **** #define CR_HSEBYP_Reset           ((uint32_t)0xFFFBFFFF)
 121:firmware/STM32F10x_StdPeriph_Lib_V3.3.0/Libraries/STM32F10x_StdPeriph_Driver/src/stm32f10x_rcc.c **** #define CR_HSEBYP_Set             ((uint32_t)0x00040000)
 122:firmware/STM32F10x_StdPeriph_Lib_V3.3.0/Libraries/STM32F10x_StdPeriph_Driver/src/stm32f10x_rcc.c **** #define CR_HSEON_Reset            ((uint32_t)0xFFFEFFFF)
 123:firmware/STM32F10x_StdPeriph_Lib_V3.3.0/Libraries/STM32F10x_StdPeriph_Driver/src/stm32f10x_rcc.c **** #define CR_HSEON_Set              ((uint32_t)0x00010000)
 124:firmware/STM32F10x_StdPeriph_Lib_V3.3.0/Libraries/STM32F10x_StdPeriph_Driver/src/stm32f10x_rcc.c **** #define CR_HSITRIM_Mask           ((uint32_t)0xFFFFFF07)
 125:firmware/STM32F10x_StdPeriph_Lib_V3.3.0/Libraries/STM32F10x_StdPeriph_Driver/src/stm32f10x_rcc.c **** 
 126:firmware/STM32F10x_StdPeriph_Lib_V3.3.0/Libraries/STM32F10x_StdPeriph_Driver/src/stm32f10x_rcc.c **** /* CFGR register bit mask */
 127:firmware/STM32F10x_StdPeriph_Lib_V3.3.0/Libraries/STM32F10x_StdPeriph_Driver/src/stm32f10x_rcc.c **** #if defined (STM32F10X_LD_VL) || defined (STM32F10X_MD_VL) || defined (STM32F10X_CL) 
 128:firmware/STM32F10x_StdPeriph_Lib_V3.3.0/Libraries/STM32F10x_StdPeriph_Driver/src/stm32f10x_rcc.c ****  #define CFGR_PLL_Mask            ((uint32_t)0xFFC2FFFF)
 129:firmware/STM32F10x_StdPeriph_Lib_V3.3.0/Libraries/STM32F10x_StdPeriph_Driver/src/stm32f10x_rcc.c **** #else
 130:firmware/STM32F10x_StdPeriph_Lib_V3.3.0/Libraries/STM32F10x_StdPeriph_Driver/src/stm32f10x_rcc.c ****  #define CFGR_PLL_Mask            ((uint32_t)0xFFC0FFFF)
 131:firmware/STM32F10x_StdPeriph_Lib_V3.3.0/Libraries/STM32F10x_StdPeriph_Driver/src/stm32f10x_rcc.c **** #endif /* STM32F10X_CL */ 
 132:firmware/STM32F10x_StdPeriph_Lib_V3.3.0/Libraries/STM32F10x_StdPeriph_Driver/src/stm32f10x_rcc.c **** 
 133:firmware/STM32F10x_StdPeriph_Lib_V3.3.0/Libraries/STM32F10x_StdPeriph_Driver/src/stm32f10x_rcc.c **** #define CFGR_PLLMull_Mask         ((uint32_t)0x003C0000)
 134:firmware/STM32F10x_StdPeriph_Lib_V3.3.0/Libraries/STM32F10x_StdPeriph_Driver/src/stm32f10x_rcc.c **** #define CFGR_PLLSRC_Mask          ((uint32_t)0x00010000)
 135:firmware/STM32F10x_StdPeriph_Lib_V3.3.0/Libraries/STM32F10x_StdPeriph_Driver/src/stm32f10x_rcc.c **** #define CFGR_PLLXTPRE_Mask        ((uint32_t)0x00020000)
 136:firmware/STM32F10x_StdPeriph_Lib_V3.3.0/Libraries/STM32F10x_StdPeriph_Driver/src/stm32f10x_rcc.c **** #define CFGR_SWS_Mask             ((uint32_t)0x0000000C)
 137:firmware/STM32F10x_StdPeriph_Lib_V3.3.0/Libraries/STM32F10x_StdPeriph_Driver/src/stm32f10x_rcc.c **** #define CFGR_SW_Mask              ((uint32_t)0xFFFFFFFC)
 138:firmware/STM32F10x_StdPeriph_Lib_V3.3.0/Libraries/STM32F10x_StdPeriph_Driver/src/stm32f10x_rcc.c **** #define CFGR_HPRE_Reset_Mask      ((uint32_t)0xFFFFFF0F)
 139:firmware/STM32F10x_StdPeriph_Lib_V3.3.0/Libraries/STM32F10x_StdPeriph_Driver/src/stm32f10x_rcc.c **** #define CFGR_HPRE_Set_Mask        ((uint32_t)0x000000F0)
 140:firmware/STM32F10x_StdPeriph_Lib_V3.3.0/Libraries/STM32F10x_StdPeriph_Driver/src/stm32f10x_rcc.c **** #define CFGR_PPRE1_Reset_Mask     ((uint32_t)0xFFFFF8FF)
 141:firmware/STM32F10x_StdPeriph_Lib_V3.3.0/Libraries/STM32F10x_StdPeriph_Driver/src/stm32f10x_rcc.c **** #define CFGR_PPRE1_Set_Mask       ((uint32_t)0x00000700)
 142:firmware/STM32F10x_StdPeriph_Lib_V3.3.0/Libraries/STM32F10x_StdPeriph_Driver/src/stm32f10x_rcc.c **** #define CFGR_PPRE2_Reset_Mask     ((uint32_t)0xFFFFC7FF)
 143:firmware/STM32F10x_StdPeriph_Lib_V3.3.0/Libraries/STM32F10x_StdPeriph_Driver/src/stm32f10x_rcc.c **** #define CFGR_PPRE2_Set_Mask       ((uint32_t)0x00003800)
 144:firmware/STM32F10x_StdPeriph_Lib_V3.3.0/Libraries/STM32F10x_StdPeriph_Driver/src/stm32f10x_rcc.c **** #define CFGR_ADCPRE_Reset_Mask    ((uint32_t)0xFFFF3FFF)
 145:firmware/STM32F10x_StdPeriph_Lib_V3.3.0/Libraries/STM32F10x_StdPeriph_Driver/src/stm32f10x_rcc.c **** #define CFGR_ADCPRE_Set_Mask      ((uint32_t)0x0000C000)
 146:firmware/STM32F10x_StdPeriph_Lib_V3.3.0/Libraries/STM32F10x_StdPeriph_Driver/src/stm32f10x_rcc.c **** 
 147:firmware/STM32F10x_StdPeriph_Lib_V3.3.0/Libraries/STM32F10x_StdPeriph_Driver/src/stm32f10x_rcc.c **** /* CSR register bit mask */
 148:firmware/STM32F10x_StdPeriph_Lib_V3.3.0/Libraries/STM32F10x_StdPeriph_Driver/src/stm32f10x_rcc.c **** #define CSR_RMVF_Set              ((uint32_t)0x01000000)
 149:firmware/STM32F10x_StdPeriph_Lib_V3.3.0/Libraries/STM32F10x_StdPeriph_Driver/src/stm32f10x_rcc.c **** 
 150:firmware/STM32F10x_StdPeriph_Lib_V3.3.0/Libraries/STM32F10x_StdPeriph_Driver/src/stm32f10x_rcc.c **** #if defined (STM32F10X_LD_VL) || defined (STM32F10X_MD_VL) || defined (STM32F10X_CL) 
 151:firmware/STM32F10x_StdPeriph_Lib_V3.3.0/Libraries/STM32F10x_StdPeriph_Driver/src/stm32f10x_rcc.c **** /* CFGR2 register bit mask */
 152:firmware/STM32F10x_StdPeriph_Lib_V3.3.0/Libraries/STM32F10x_StdPeriph_Driver/src/stm32f10x_rcc.c ****  #define CFGR2_PREDIV1SRC         ((uint32_t)0x00010000)
 153:firmware/STM32F10x_StdPeriph_Lib_V3.3.0/Libraries/STM32F10x_StdPeriph_Driver/src/stm32f10x_rcc.c ****  #define CFGR2_PREDIV1            ((uint32_t)0x0000000F)
 154:firmware/STM32F10x_StdPeriph_Lib_V3.3.0/Libraries/STM32F10x_StdPeriph_Driver/src/stm32f10x_rcc.c **** #endif
 155:firmware/STM32F10x_StdPeriph_Lib_V3.3.0/Libraries/STM32F10x_StdPeriph_Driver/src/stm32f10x_rcc.c **** #ifdef STM32F10X_CL
 156:firmware/STM32F10x_StdPeriph_Lib_V3.3.0/Libraries/STM32F10x_StdPeriph_Driver/src/stm32f10x_rcc.c ****  #define CFGR2_PREDIV2            ((uint32_t)0x000000F0)
 157:firmware/STM32F10x_StdPeriph_Lib_V3.3.0/Libraries/STM32F10x_StdPeriph_Driver/src/stm32f10x_rcc.c ****  #define CFGR2_PLL2MUL            ((uint32_t)0x00000F00)
 158:firmware/STM32F10x_StdPeriph_Lib_V3.3.0/Libraries/STM32F10x_StdPeriph_Driver/src/stm32f10x_rcc.c ****  #define CFGR2_PLL3MUL            ((uint32_t)0x0000F000)
 159:firmware/STM32F10x_StdPeriph_Lib_V3.3.0/Libraries/STM32F10x_StdPeriph_Driver/src/stm32f10x_rcc.c **** #endif /* STM32F10X_CL */ 
 160:firmware/STM32F10x_StdPeriph_Lib_V3.3.0/Libraries/STM32F10x_StdPeriph_Driver/src/stm32f10x_rcc.c **** 
 161:firmware/STM32F10x_StdPeriph_Lib_V3.3.0/Libraries/STM32F10x_StdPeriph_Driver/src/stm32f10x_rcc.c **** /* RCC Flag Mask */
 162:firmware/STM32F10x_StdPeriph_Lib_V3.3.0/Libraries/STM32F10x_StdPeriph_Driver/src/stm32f10x_rcc.c **** #define FLAG_Mask                 ((uint8_t)0x1F)
 163:firmware/STM32F10x_StdPeriph_Lib_V3.3.0/Libraries/STM32F10x_StdPeriph_Driver/src/stm32f10x_rcc.c **** 
 164:firmware/STM32F10x_StdPeriph_Lib_V3.3.0/Libraries/STM32F10x_StdPeriph_Driver/src/stm32f10x_rcc.c **** #ifndef HSI_Value
 165:firmware/STM32F10x_StdPeriph_Lib_V3.3.0/Libraries/STM32F10x_StdPeriph_Driver/src/stm32f10x_rcc.c **** /* Typical Value of the HSI in Hz */
 166:firmware/STM32F10x_StdPeriph_Lib_V3.3.0/Libraries/STM32F10x_StdPeriph_Driver/src/stm32f10x_rcc.c ****  #define HSI_Value                 ((uint32_t)8000000)
 167:firmware/STM32F10x_StdPeriph_Lib_V3.3.0/Libraries/STM32F10x_StdPeriph_Driver/src/stm32f10x_rcc.c **** #endif /* HSI_Value */
 168:firmware/STM32F10x_StdPeriph_Lib_V3.3.0/Libraries/STM32F10x_StdPeriph_Driver/src/stm32f10x_rcc.c **** 
 169:firmware/STM32F10x_StdPeriph_Lib_V3.3.0/Libraries/STM32F10x_StdPeriph_Driver/src/stm32f10x_rcc.c **** /* CIR register byte 2 (Bits[15:8]) base address */
 170:firmware/STM32F10x_StdPeriph_Lib_V3.3.0/Libraries/STM32F10x_StdPeriph_Driver/src/stm32f10x_rcc.c **** #define CIR_BYTE2_ADDRESS         ((uint32_t)0x40021009)
 171:firmware/STM32F10x_StdPeriph_Lib_V3.3.0/Libraries/STM32F10x_StdPeriph_Driver/src/stm32f10x_rcc.c **** 
 172:firmware/STM32F10x_StdPeriph_Lib_V3.3.0/Libraries/STM32F10x_StdPeriph_Driver/src/stm32f10x_rcc.c **** /* CIR register byte 3 (Bits[23:16]) base address */
 173:firmware/STM32F10x_StdPeriph_Lib_V3.3.0/Libraries/STM32F10x_StdPeriph_Driver/src/stm32f10x_rcc.c **** #define CIR_BYTE3_ADDRESS         ((uint32_t)0x4002100A)
 174:firmware/STM32F10x_StdPeriph_Lib_V3.3.0/Libraries/STM32F10x_StdPeriph_Driver/src/stm32f10x_rcc.c **** 
 175:firmware/STM32F10x_StdPeriph_Lib_V3.3.0/Libraries/STM32F10x_StdPeriph_Driver/src/stm32f10x_rcc.c **** /* CFGR register byte 4 (Bits[31:24]) base address */
 176:firmware/STM32F10x_StdPeriph_Lib_V3.3.0/Libraries/STM32F10x_StdPeriph_Driver/src/stm32f10x_rcc.c **** #define CFGR_BYTE4_ADDRESS        ((uint32_t)0x40021007)
 177:firmware/STM32F10x_StdPeriph_Lib_V3.3.0/Libraries/STM32F10x_StdPeriph_Driver/src/stm32f10x_rcc.c **** 
 178:firmware/STM32F10x_StdPeriph_Lib_V3.3.0/Libraries/STM32F10x_StdPeriph_Driver/src/stm32f10x_rcc.c **** /* BDCR register base address */
 179:firmware/STM32F10x_StdPeriph_Lib_V3.3.0/Libraries/STM32F10x_StdPeriph_Driver/src/stm32f10x_rcc.c **** #define BDCR_ADDRESS              (PERIPH_BASE + BDCR_OFFSET)
 180:firmware/STM32F10x_StdPeriph_Lib_V3.3.0/Libraries/STM32F10x_StdPeriph_Driver/src/stm32f10x_rcc.c **** 
 181:firmware/STM32F10x_StdPeriph_Lib_V3.3.0/Libraries/STM32F10x_StdPeriph_Driver/src/stm32f10x_rcc.c **** #ifndef HSEStartUp_TimeOut
 182:firmware/STM32F10x_StdPeriph_Lib_V3.3.0/Libraries/STM32F10x_StdPeriph_Driver/src/stm32f10x_rcc.c **** /* Time out for HSE start up */
 183:firmware/STM32F10x_StdPeriph_Lib_V3.3.0/Libraries/STM32F10x_StdPeriph_Driver/src/stm32f10x_rcc.c ****  #define HSEStartUp_TimeOut        ((uint16_t)0x0500)
 184:firmware/STM32F10x_StdPeriph_Lib_V3.3.0/Libraries/STM32F10x_StdPeriph_Driver/src/stm32f10x_rcc.c **** #endif /* HSEStartUp_TimeOut */
 185:firmware/STM32F10x_StdPeriph_Lib_V3.3.0/Libraries/STM32F10x_StdPeriph_Driver/src/stm32f10x_rcc.c **** 
 186:firmware/STM32F10x_StdPeriph_Lib_V3.3.0/Libraries/STM32F10x_StdPeriph_Driver/src/stm32f10x_rcc.c **** /**
 187:firmware/STM32F10x_StdPeriph_Lib_V3.3.0/Libraries/STM32F10x_StdPeriph_Driver/src/stm32f10x_rcc.c ****   * @}
 188:firmware/STM32F10x_StdPeriph_Lib_V3.3.0/Libraries/STM32F10x_StdPeriph_Driver/src/stm32f10x_rcc.c ****   */ 
 189:firmware/STM32F10x_StdPeriph_Lib_V3.3.0/Libraries/STM32F10x_StdPeriph_Driver/src/stm32f10x_rcc.c **** 
 190:firmware/STM32F10x_StdPeriph_Lib_V3.3.0/Libraries/STM32F10x_StdPeriph_Driver/src/stm32f10x_rcc.c **** /** @defgroup RCC_Private_Macros
 191:firmware/STM32F10x_StdPeriph_Lib_V3.3.0/Libraries/STM32F10x_StdPeriph_Driver/src/stm32f10x_rcc.c ****   * @{
 192:firmware/STM32F10x_StdPeriph_Lib_V3.3.0/Libraries/STM32F10x_StdPeriph_Driver/src/stm32f10x_rcc.c ****   */ 
 193:firmware/STM32F10x_StdPeriph_Lib_V3.3.0/Libraries/STM32F10x_StdPeriph_Driver/src/stm32f10x_rcc.c **** 
 194:firmware/STM32F10x_StdPeriph_Lib_V3.3.0/Libraries/STM32F10x_StdPeriph_Driver/src/stm32f10x_rcc.c **** /**
 195:firmware/STM32F10x_StdPeriph_Lib_V3.3.0/Libraries/STM32F10x_StdPeriph_Driver/src/stm32f10x_rcc.c ****   * @}
 196:firmware/STM32F10x_StdPeriph_Lib_V3.3.0/Libraries/STM32F10x_StdPeriph_Driver/src/stm32f10x_rcc.c ****   */ 
 197:firmware/STM32F10x_StdPeriph_Lib_V3.3.0/Libraries/STM32F10x_StdPeriph_Driver/src/stm32f10x_rcc.c **** 
 198:firmware/STM32F10x_StdPeriph_Lib_V3.3.0/Libraries/STM32F10x_StdPeriph_Driver/src/stm32f10x_rcc.c **** /** @defgroup RCC_Private_Variables
 199:firmware/STM32F10x_StdPeriph_Lib_V3.3.0/Libraries/STM32F10x_StdPeriph_Driver/src/stm32f10x_rcc.c ****   * @{
 200:firmware/STM32F10x_StdPeriph_Lib_V3.3.0/Libraries/STM32F10x_StdPeriph_Driver/src/stm32f10x_rcc.c ****   */ 
 201:firmware/STM32F10x_StdPeriph_Lib_V3.3.0/Libraries/STM32F10x_StdPeriph_Driver/src/stm32f10x_rcc.c **** 
 202:firmware/STM32F10x_StdPeriph_Lib_V3.3.0/Libraries/STM32F10x_StdPeriph_Driver/src/stm32f10x_rcc.c **** static __I uint8_t APBAHBPrescTable[16] = {0, 0, 0, 0, 1, 2, 3, 4, 1, 2, 3, 4, 6, 7, 8, 9};
 203:firmware/STM32F10x_StdPeriph_Lib_V3.3.0/Libraries/STM32F10x_StdPeriph_Driver/src/stm32f10x_rcc.c **** static __I uint8_t ADCPrescTable[4] = {2, 4, 6, 8};
 204:firmware/STM32F10x_StdPeriph_Lib_V3.3.0/Libraries/STM32F10x_StdPeriph_Driver/src/stm32f10x_rcc.c **** 
 205:firmware/STM32F10x_StdPeriph_Lib_V3.3.0/Libraries/STM32F10x_StdPeriph_Driver/src/stm32f10x_rcc.c **** /**
 206:firmware/STM32F10x_StdPeriph_Lib_V3.3.0/Libraries/STM32F10x_StdPeriph_Driver/src/stm32f10x_rcc.c ****   * @}
 207:firmware/STM32F10x_StdPeriph_Lib_V3.3.0/Libraries/STM32F10x_StdPeriph_Driver/src/stm32f10x_rcc.c ****   */
 208:firmware/STM32F10x_StdPeriph_Lib_V3.3.0/Libraries/STM32F10x_StdPeriph_Driver/src/stm32f10x_rcc.c **** 
 209:firmware/STM32F10x_StdPeriph_Lib_V3.3.0/Libraries/STM32F10x_StdPeriph_Driver/src/stm32f10x_rcc.c **** /** @defgroup RCC_Private_FunctionPrototypes
 210:firmware/STM32F10x_StdPeriph_Lib_V3.3.0/Libraries/STM32F10x_StdPeriph_Driver/src/stm32f10x_rcc.c ****   * @{
 211:firmware/STM32F10x_StdPeriph_Lib_V3.3.0/Libraries/STM32F10x_StdPeriph_Driver/src/stm32f10x_rcc.c ****   */
 212:firmware/STM32F10x_StdPeriph_Lib_V3.3.0/Libraries/STM32F10x_StdPeriph_Driver/src/stm32f10x_rcc.c **** 
 213:firmware/STM32F10x_StdPeriph_Lib_V3.3.0/Libraries/STM32F10x_StdPeriph_Driver/src/stm32f10x_rcc.c **** /**
 214:firmware/STM32F10x_StdPeriph_Lib_V3.3.0/Libraries/STM32F10x_StdPeriph_Driver/src/stm32f10x_rcc.c ****   * @}
 215:firmware/STM32F10x_StdPeriph_Lib_V3.3.0/Libraries/STM32F10x_StdPeriph_Driver/src/stm32f10x_rcc.c ****   */
 216:firmware/STM32F10x_StdPeriph_Lib_V3.3.0/Libraries/STM32F10x_StdPeriph_Driver/src/stm32f10x_rcc.c **** 
 217:firmware/STM32F10x_StdPeriph_Lib_V3.3.0/Libraries/STM32F10x_StdPeriph_Driver/src/stm32f10x_rcc.c **** /** @defgroup RCC_Private_Functions
 218:firmware/STM32F10x_StdPeriph_Lib_V3.3.0/Libraries/STM32F10x_StdPeriph_Driver/src/stm32f10x_rcc.c ****   * @{
 219:firmware/STM32F10x_StdPeriph_Lib_V3.3.0/Libraries/STM32F10x_StdPeriph_Driver/src/stm32f10x_rcc.c ****   */
 220:firmware/STM32F10x_StdPeriph_Lib_V3.3.0/Libraries/STM32F10x_StdPeriph_Driver/src/stm32f10x_rcc.c **** 
 221:firmware/STM32F10x_StdPeriph_Lib_V3.3.0/Libraries/STM32F10x_StdPeriph_Driver/src/stm32f10x_rcc.c **** /**
 222:firmware/STM32F10x_StdPeriph_Lib_V3.3.0/Libraries/STM32F10x_StdPeriph_Driver/src/stm32f10x_rcc.c ****   * @brief  Resets the RCC clock configuration to the default reset state.
 223:firmware/STM32F10x_StdPeriph_Lib_V3.3.0/Libraries/STM32F10x_StdPeriph_Driver/src/stm32f10x_rcc.c ****   * @param  None
 224:firmware/STM32F10x_StdPeriph_Lib_V3.3.0/Libraries/STM32F10x_StdPeriph_Driver/src/stm32f10x_rcc.c ****   * @retval None
 225:firmware/STM32F10x_StdPeriph_Lib_V3.3.0/Libraries/STM32F10x_StdPeriph_Driver/src/stm32f10x_rcc.c ****   */
 226:firmware/STM32F10x_StdPeriph_Lib_V3.3.0/Libraries/STM32F10x_StdPeriph_Driver/src/stm32f10x_rcc.c **** void RCC_DeInit(void)
 227:firmware/STM32F10x_StdPeriph_Lib_V3.3.0/Libraries/STM32F10x_StdPeriph_Driver/src/stm32f10x_rcc.c **** {
  32              		.loc 1 227 0
  33              		.cfi_startproc
  34              		@ args = 0, pretend = 0, frame = 0
  35              		@ frame_needed = 0, uses_anonymous_args = 0
  36              		@ link register save eliminated.
 228:firmware/STM32F10x_StdPeriph_Lib_V3.3.0/Libraries/STM32F10x_StdPeriph_Driver/src/stm32f10x_rcc.c ****   /* Set HSION bit */
 229:firmware/STM32F10x_StdPeriph_Lib_V3.3.0/Libraries/STM32F10x_StdPeriph_Driver/src/stm32f10x_rcc.c ****   RCC->CR |= (uint32_t)0x00000001;
  37              		.loc 1 229 0
  38 0000 0D4B     		ldr	r3, .L2
  39 0002 1A68     		ldr	r2, [r3, #0]
  40 0004 42F00102 		orr	r2, r2, #1
  41 0008 1A60     		str	r2, [r3, #0]
 230:firmware/STM32F10x_StdPeriph_Lib_V3.3.0/Libraries/STM32F10x_StdPeriph_Driver/src/stm32f10x_rcc.c **** 
 231:firmware/STM32F10x_StdPeriph_Lib_V3.3.0/Libraries/STM32F10x_StdPeriph_Driver/src/stm32f10x_rcc.c ****   /* Reset SW, HPRE, PPRE1, PPRE2, ADCPRE and MCO bits */
 232:firmware/STM32F10x_StdPeriph_Lib_V3.3.0/Libraries/STM32F10x_StdPeriph_Driver/src/stm32f10x_rcc.c **** #ifndef STM32F10X_CL
 233:firmware/STM32F10x_StdPeriph_Lib_V3.3.0/Libraries/STM32F10x_StdPeriph_Driver/src/stm32f10x_rcc.c ****   RCC->CFGR &= (uint32_t)0xF8FF0000;
  42              		.loc 1 233 0
  43 000a 5968     		ldr	r1, [r3, #4]
  44 000c 0B4A     		ldr	r2, .L2+4
  45 000e 01EA0202 		and	r2, r1, r2
  46 0012 5A60     		str	r2, [r3, #4]
 234:firmware/STM32F10x_StdPeriph_Lib_V3.3.0/Libraries/STM32F10x_StdPeriph_Driver/src/stm32f10x_rcc.c **** #else
 235:firmware/STM32F10x_StdPeriph_Lib_V3.3.0/Libraries/STM32F10x_StdPeriph_Driver/src/stm32f10x_rcc.c ****   RCC->CFGR &= (uint32_t)0xF0FF0000;
 236:firmware/STM32F10x_StdPeriph_Lib_V3.3.0/Libraries/STM32F10x_StdPeriph_Driver/src/stm32f10x_rcc.c **** #endif /* STM32F10X_CL */   
 237:firmware/STM32F10x_StdPeriph_Lib_V3.3.0/Libraries/STM32F10x_StdPeriph_Driver/src/stm32f10x_rcc.c ****   
 238:firmware/STM32F10x_StdPeriph_Lib_V3.3.0/Libraries/STM32F10x_StdPeriph_Driver/src/stm32f10x_rcc.c ****   /* Reset HSEON, CSSON and PLLON bits */
 239:firmware/STM32F10x_StdPeriph_Lib_V3.3.0/Libraries/STM32F10x_StdPeriph_Driver/src/stm32f10x_rcc.c ****   RCC->CR &= (uint32_t)0xFEF6FFFF;
  47              		.loc 1 239 0
  48 0014 1A68     		ldr	r2, [r3, #0]
  49 0016 22F08472 		bic	r2, r2, #17301504
  50 001a 22F48032 		bic	r2, r2, #65536
  51 001e 1A60     		str	r2, [r3, #0]
 240:firmware/STM32F10x_StdPeriph_Lib_V3.3.0/Libraries/STM32F10x_StdPeriph_Driver/src/stm32f10x_rcc.c **** 
 241:firmware/STM32F10x_StdPeriph_Lib_V3.3.0/Libraries/STM32F10x_StdPeriph_Driver/src/stm32f10x_rcc.c ****   /* Reset HSEBYP bit */
 242:firmware/STM32F10x_StdPeriph_Lib_V3.3.0/Libraries/STM32F10x_StdPeriph_Driver/src/stm32f10x_rcc.c ****   RCC->CR &= (uint32_t)0xFFFBFFFF;
  52              		.loc 1 242 0
  53 0020 1A68     		ldr	r2, [r3, #0]
  54 0022 22F48022 		bic	r2, r2, #262144
  55 0026 1A60     		str	r2, [r3, #0]
 243:firmware/STM32F10x_StdPeriph_Lib_V3.3.0/Libraries/STM32F10x_StdPeriph_Driver/src/stm32f10x_rcc.c **** 
 244:firmware/STM32F10x_StdPeriph_Lib_V3.3.0/Libraries/STM32F10x_StdPeriph_Driver/src/stm32f10x_rcc.c ****   /* Reset PLLSRC, PLLXTPRE, PLLMUL and USBPRE/OTGFSPRE bits */
 245:firmware/STM32F10x_StdPeriph_Lib_V3.3.0/Libraries/STM32F10x_StdPeriph_Driver/src/stm32f10x_rcc.c ****   RCC->CFGR &= (uint32_t)0xFF80FFFF;
  56              		.loc 1 245 0
  57 0028 5A68     		ldr	r2, [r3, #4]
  58 002a 22F4FE02 		bic	r2, r2, #8323072
  59 002e 5A60     		str	r2, [r3, #4]
 246:firmware/STM32F10x_StdPeriph_Lib_V3.3.0/Libraries/STM32F10x_StdPeriph_Driver/src/stm32f10x_rcc.c **** 
 247:firmware/STM32F10x_StdPeriph_Lib_V3.3.0/Libraries/STM32F10x_StdPeriph_Driver/src/stm32f10x_rcc.c **** #ifdef STM32F10X_CL
 248:firmware/STM32F10x_StdPeriph_Lib_V3.3.0/Libraries/STM32F10x_StdPeriph_Driver/src/stm32f10x_rcc.c ****   /* Reset PLL2ON and PLL3ON bits */
 249:firmware/STM32F10x_StdPeriph_Lib_V3.3.0/Libraries/STM32F10x_StdPeriph_Driver/src/stm32f10x_rcc.c ****   RCC->CR &= (uint32_t)0xEBFFFFFF;
 250:firmware/STM32F10x_StdPeriph_Lib_V3.3.0/Libraries/STM32F10x_StdPeriph_Driver/src/stm32f10x_rcc.c **** 
 251:firmware/STM32F10x_StdPeriph_Lib_V3.3.0/Libraries/STM32F10x_StdPeriph_Driver/src/stm32f10x_rcc.c ****   /* Disable all interrupts and clear pending bits  */
 252:firmware/STM32F10x_StdPeriph_Lib_V3.3.0/Libraries/STM32F10x_StdPeriph_Driver/src/stm32f10x_rcc.c ****   RCC->CIR = 0x00FF0000;
 253:firmware/STM32F10x_StdPeriph_Lib_V3.3.0/Libraries/STM32F10x_StdPeriph_Driver/src/stm32f10x_rcc.c **** 
 254:firmware/STM32F10x_StdPeriph_Lib_V3.3.0/Libraries/STM32F10x_StdPeriph_Driver/src/stm32f10x_rcc.c ****   /* Reset CFGR2 register */
 255:firmware/STM32F10x_StdPeriph_Lib_V3.3.0/Libraries/STM32F10x_StdPeriph_Driver/src/stm32f10x_rcc.c ****   RCC->CFGR2 = 0x00000000;
 256:firmware/STM32F10x_StdPeriph_Lib_V3.3.0/Libraries/STM32F10x_StdPeriph_Driver/src/stm32f10x_rcc.c **** #elif defined (STM32F10X_LD_VL) || defined (STM32F10X_MD_VL) 
 257:firmware/STM32F10x_StdPeriph_Lib_V3.3.0/Libraries/STM32F10x_StdPeriph_Driver/src/stm32f10x_rcc.c ****   /* Disable all interrupts and clear pending bits  */
 258:firmware/STM32F10x_StdPeriph_Lib_V3.3.0/Libraries/STM32F10x_StdPeriph_Driver/src/stm32f10x_rcc.c ****   RCC->CIR = 0x009F0000;
 259:firmware/STM32F10x_StdPeriph_Lib_V3.3.0/Libraries/STM32F10x_StdPeriph_Driver/src/stm32f10x_rcc.c **** 
 260:firmware/STM32F10x_StdPeriph_Lib_V3.3.0/Libraries/STM32F10x_StdPeriph_Driver/src/stm32f10x_rcc.c ****   /* Reset CFGR2 register */
 261:firmware/STM32F10x_StdPeriph_Lib_V3.3.0/Libraries/STM32F10x_StdPeriph_Driver/src/stm32f10x_rcc.c ****   RCC->CFGR2 = 0x00000000;      
 262:firmware/STM32F10x_StdPeriph_Lib_V3.3.0/Libraries/STM32F10x_StdPeriph_Driver/src/stm32f10x_rcc.c **** #else
 263:firmware/STM32F10x_StdPeriph_Lib_V3.3.0/Libraries/STM32F10x_StdPeriph_Driver/src/stm32f10x_rcc.c ****   /* Disable all interrupts and clear pending bits  */
 264:firmware/STM32F10x_StdPeriph_Lib_V3.3.0/Libraries/STM32F10x_StdPeriph_Driver/src/stm32f10x_rcc.c ****   RCC->CIR = 0x009F0000;
  60              		.loc 1 264 0
  61 0030 4FF41F02 		mov	r2, #10420224
  62 0034 9A60     		str	r2, [r3, #8]
 265:firmware/STM32F10x_StdPeriph_Lib_V3.3.0/Libraries/STM32F10x_StdPeriph_Driver/src/stm32f10x_rcc.c **** #endif /* STM32F10X_CL */
 266:firmware/STM32F10x_StdPeriph_Lib_V3.3.0/Libraries/STM32F10x_StdPeriph_Driver/src/stm32f10x_rcc.c **** 
 267:firmware/STM32F10x_StdPeriph_Lib_V3.3.0/Libraries/STM32F10x_StdPeriph_Driver/src/stm32f10x_rcc.c **** }
  63              		.loc 1 267 0
  64 0036 7047     		bx	lr
  65              	.L3:
  66              		.align	2
  67              	.L2:
  68 0038 00100240 		.word	1073876992
  69 003c 0000FFF8 		.word	-117506048
  70              		.cfi_endproc
  71              	.LFE29:
  73              		.section	.text.RCC_HSEConfig,"ax",%progbits
  74              		.align	1
  75              		.global	RCC_HSEConfig
  76              		.thumb
  77              		.thumb_func
  79              	RCC_HSEConfig:
  80              	.LFB30:
 268:firmware/STM32F10x_StdPeriph_Lib_V3.3.0/Libraries/STM32F10x_StdPeriph_Driver/src/stm32f10x_rcc.c **** 
 269:firmware/STM32F10x_StdPeriph_Lib_V3.3.0/Libraries/STM32F10x_StdPeriph_Driver/src/stm32f10x_rcc.c **** /**
 270:firmware/STM32F10x_StdPeriph_Lib_V3.3.0/Libraries/STM32F10x_StdPeriph_Driver/src/stm32f10x_rcc.c ****   * @brief  Configures the External High Speed oscillator (HSE).
 271:firmware/STM32F10x_StdPeriph_Lib_V3.3.0/Libraries/STM32F10x_StdPeriph_Driver/src/stm32f10x_rcc.c ****   * @note   HSE can not be stopped if it is used directly or through the PLL as system clock.
 272:firmware/STM32F10x_StdPeriph_Lib_V3.3.0/Libraries/STM32F10x_StdPeriph_Driver/src/stm32f10x_rcc.c ****   * @param  RCC_HSE: specifies the new state of the HSE.
 273:firmware/STM32F10x_StdPeriph_Lib_V3.3.0/Libraries/STM32F10x_StdPeriph_Driver/src/stm32f10x_rcc.c ****   *   This parameter can be one of the following values:
 274:firmware/STM32F10x_StdPeriph_Lib_V3.3.0/Libraries/STM32F10x_StdPeriph_Driver/src/stm32f10x_rcc.c ****   *     @arg RCC_HSE_OFF: HSE oscillator OFF
 275:firmware/STM32F10x_StdPeriph_Lib_V3.3.0/Libraries/STM32F10x_StdPeriph_Driver/src/stm32f10x_rcc.c ****   *     @arg RCC_HSE_ON: HSE oscillator ON
 276:firmware/STM32F10x_StdPeriph_Lib_V3.3.0/Libraries/STM32F10x_StdPeriph_Driver/src/stm32f10x_rcc.c ****   *     @arg RCC_HSE_Bypass: HSE oscillator bypassed with external clock
 277:firmware/STM32F10x_StdPeriph_Lib_V3.3.0/Libraries/STM32F10x_StdPeriph_Driver/src/stm32f10x_rcc.c ****   * @retval None
 278:firmware/STM32F10x_StdPeriph_Lib_V3.3.0/Libraries/STM32F10x_StdPeriph_Driver/src/stm32f10x_rcc.c ****   */
 279:firmware/STM32F10x_StdPeriph_Lib_V3.3.0/Libraries/STM32F10x_StdPeriph_Driver/src/stm32f10x_rcc.c **** void RCC_HSEConfig(uint32_t RCC_HSE)
 280:firmware/STM32F10x_StdPeriph_Lib_V3.3.0/Libraries/STM32F10x_StdPeriph_Driver/src/stm32f10x_rcc.c **** {
  81              		.loc 1 280 0
  82              		.cfi_startproc
  83              		@ args = 0, pretend = 0, frame = 0
  84              		@ frame_needed = 0, uses_anonymous_args = 0
  85              		@ link register save eliminated.
  86              	.LVL0:
 281:firmware/STM32F10x_StdPeriph_Lib_V3.3.0/Libraries/STM32F10x_StdPeriph_Driver/src/stm32f10x_rcc.c ****   /* Check the parameters */
 282:firmware/STM32F10x_StdPeriph_Lib_V3.3.0/Libraries/STM32F10x_StdPeriph_Driver/src/stm32f10x_rcc.c ****   assert_param(IS_RCC_HSE(RCC_HSE));
 283:firmware/STM32F10x_StdPeriph_Lib_V3.3.0/Libraries/STM32F10x_StdPeriph_Driver/src/stm32f10x_rcc.c ****   /* Reset HSEON and HSEBYP bits before configuring the HSE ------------------*/
 284:firmware/STM32F10x_StdPeriph_Lib_V3.3.0/Libraries/STM32F10x_StdPeriph_Driver/src/stm32f10x_rcc.c ****   /* Reset HSEON bit */
 285:firmware/STM32F10x_StdPeriph_Lib_V3.3.0/Libraries/STM32F10x_StdPeriph_Driver/src/stm32f10x_rcc.c ****   RCC->CR &= CR_HSEON_Reset;
  87              		.loc 1 285 0
  88 0000 0C4B     		ldr	r3, .L9
 286:firmware/STM32F10x_StdPeriph_Lib_V3.3.0/Libraries/STM32F10x_StdPeriph_Driver/src/stm32f10x_rcc.c ****   /* Reset HSEBYP bit */
 287:firmware/STM32F10x_StdPeriph_Lib_V3.3.0/Libraries/STM32F10x_StdPeriph_Driver/src/stm32f10x_rcc.c ****   RCC->CR &= CR_HSEBYP_Reset;
 288:firmware/STM32F10x_StdPeriph_Lib_V3.3.0/Libraries/STM32F10x_StdPeriph_Driver/src/stm32f10x_rcc.c ****   /* Configure HSE (RCC_HSE_OFF is already covered by the code section above) */
 289:firmware/STM32F10x_StdPeriph_Lib_V3.3.0/Libraries/STM32F10x_StdPeriph_Driver/src/stm32f10x_rcc.c ****   switch(RCC_HSE)
  89              		.loc 1 289 0
  90 0002 B0F5803F 		cmp	r0, #65536
 285:firmware/STM32F10x_StdPeriph_Lib_V3.3.0/Libraries/STM32F10x_StdPeriph_Driver/src/stm32f10x_rcc.c ****   RCC->CR &= CR_HSEON_Reset;
  91              		.loc 1 285 0
  92 0006 1A68     		ldr	r2, [r3, #0]
  93 0008 22F48032 		bic	r2, r2, #65536
  94 000c 1A60     		str	r2, [r3, #0]
 287:firmware/STM32F10x_StdPeriph_Lib_V3.3.0/Libraries/STM32F10x_StdPeriph_Driver/src/stm32f10x_rcc.c ****   RCC->CR &= CR_HSEBYP_Reset;
  95              		.loc 1 287 0
  96 000e 1A68     		ldr	r2, [r3, #0]
  97 0010 22F48022 		bic	r2, r2, #262144
  98 0014 1A60     		str	r2, [r3, #0]
  99              		.loc 1 289 0
 100 0016 03D0     		beq	.L6
 101 0018 B0F5802F 		cmp	r0, #262144
 102 001c 09D1     		bne	.L4
 103 001e 04E0     		b	.L8
 104              	.L6:
 290:firmware/STM32F10x_StdPeriph_Lib_V3.3.0/Libraries/STM32F10x_StdPeriph_Driver/src/stm32f10x_rcc.c ****   {
 291:firmware/STM32F10x_StdPeriph_Lib_V3.3.0/Libraries/STM32F10x_StdPeriph_Driver/src/stm32f10x_rcc.c ****     case RCC_HSE_ON:
 292:firmware/STM32F10x_StdPeriph_Lib_V3.3.0/Libraries/STM32F10x_StdPeriph_Driver/src/stm32f10x_rcc.c ****       /* Set HSEON bit */
 293:firmware/STM32F10x_StdPeriph_Lib_V3.3.0/Libraries/STM32F10x_StdPeriph_Driver/src/stm32f10x_rcc.c ****       RCC->CR |= CR_HSEON_Set;
 105              		.loc 1 293 0
 106 0020 1A68     		ldr	r2, [r3, #0]
 107 0022 42F48032 		orr	r2, r2, #65536
 108 0026 1A60     		str	r2, [r3, #0]
 294:firmware/STM32F10x_StdPeriph_Lib_V3.3.0/Libraries/STM32F10x_StdPeriph_Driver/src/stm32f10x_rcc.c ****       break;
 109              		.loc 1 294 0
 110 0028 7047     		bx	lr
 111              	.L8:
 295:firmware/STM32F10x_StdPeriph_Lib_V3.3.0/Libraries/STM32F10x_StdPeriph_Driver/src/stm32f10x_rcc.c ****       
 296:firmware/STM32F10x_StdPeriph_Lib_V3.3.0/Libraries/STM32F10x_StdPeriph_Driver/src/stm32f10x_rcc.c ****     case RCC_HSE_Bypass:
 297:firmware/STM32F10x_StdPeriph_Lib_V3.3.0/Libraries/STM32F10x_StdPeriph_Driver/src/stm32f10x_rcc.c ****       /* Set HSEBYP and HSEON bits */
 298:firmware/STM32F10x_StdPeriph_Lib_V3.3.0/Libraries/STM32F10x_StdPeriph_Driver/src/stm32f10x_rcc.c ****       RCC->CR |= CR_HSEBYP_Set | CR_HSEON_Set;
 112              		.loc 1 298 0
 113 002a 1A68     		ldr	r2, [r3, #0]
 114 002c 42F4A022 		orr	r2, r2, #327680
 115 0030 1A60     		str	r2, [r3, #0]
 116              	.L4:
 117 0032 7047     		bx	lr
 118              	.L10:
 119              		.align	2
 120              	.L9:
 121 0034 00100240 		.word	1073876992
 122              		.cfi_endproc
 123              	.LFE30:
 125              		.section	.text.RCC_AdjustHSICalibrationValue,"ax",%progbits
 126              		.align	1
 127              		.global	RCC_AdjustHSICalibrationValue
 128              		.thumb
 129              		.thumb_func
 131              	RCC_AdjustHSICalibrationValue:
 132              	.LFB32:
 299:firmware/STM32F10x_StdPeriph_Lib_V3.3.0/Libraries/STM32F10x_StdPeriph_Driver/src/stm32f10x_rcc.c ****       break;
 300:firmware/STM32F10x_StdPeriph_Lib_V3.3.0/Libraries/STM32F10x_StdPeriph_Driver/src/stm32f10x_rcc.c ****       
 301:firmware/STM32F10x_StdPeriph_Lib_V3.3.0/Libraries/STM32F10x_StdPeriph_Driver/src/stm32f10x_rcc.c ****     default:
 302:firmware/STM32F10x_StdPeriph_Lib_V3.3.0/Libraries/STM32F10x_StdPeriph_Driver/src/stm32f10x_rcc.c ****       break;
 303:firmware/STM32F10x_StdPeriph_Lib_V3.3.0/Libraries/STM32F10x_StdPeriph_Driver/src/stm32f10x_rcc.c ****   }
 304:firmware/STM32F10x_StdPeriph_Lib_V3.3.0/Libraries/STM32F10x_StdPeriph_Driver/src/stm32f10x_rcc.c **** }
 305:firmware/STM32F10x_StdPeriph_Lib_V3.3.0/Libraries/STM32F10x_StdPeriph_Driver/src/stm32f10x_rcc.c **** 
 306:firmware/STM32F10x_StdPeriph_Lib_V3.3.0/Libraries/STM32F10x_StdPeriph_Driver/src/stm32f10x_rcc.c **** /**
 307:firmware/STM32F10x_StdPeriph_Lib_V3.3.0/Libraries/STM32F10x_StdPeriph_Driver/src/stm32f10x_rcc.c ****   * @brief  Waits for HSE start-up.
 308:firmware/STM32F10x_StdPeriph_Lib_V3.3.0/Libraries/STM32F10x_StdPeriph_Driver/src/stm32f10x_rcc.c ****   * @param  None
 309:firmware/STM32F10x_StdPeriph_Lib_V3.3.0/Libraries/STM32F10x_StdPeriph_Driver/src/stm32f10x_rcc.c ****   * @retval An ErrorStatus enumuration value:
 310:firmware/STM32F10x_StdPeriph_Lib_V3.3.0/Libraries/STM32F10x_StdPeriph_Driver/src/stm32f10x_rcc.c ****   * - SUCCESS: HSE oscillator is stable and ready to use
 311:firmware/STM32F10x_StdPeriph_Lib_V3.3.0/Libraries/STM32F10x_StdPeriph_Driver/src/stm32f10x_rcc.c ****   * - ERROR: HSE oscillator not yet ready
 312:firmware/STM32F10x_StdPeriph_Lib_V3.3.0/Libraries/STM32F10x_StdPeriph_Driver/src/stm32f10x_rcc.c ****   */
 313:firmware/STM32F10x_StdPeriph_Lib_V3.3.0/Libraries/STM32F10x_StdPeriph_Driver/src/stm32f10x_rcc.c **** ErrorStatus RCC_WaitForHSEStartUp(void)
 314:firmware/STM32F10x_StdPeriph_Lib_V3.3.0/Libraries/STM32F10x_StdPeriph_Driver/src/stm32f10x_rcc.c **** {
 315:firmware/STM32F10x_StdPeriph_Lib_V3.3.0/Libraries/STM32F10x_StdPeriph_Driver/src/stm32f10x_rcc.c ****   __IO uint32_t StartUpCounter = 0;
 316:firmware/STM32F10x_StdPeriph_Lib_V3.3.0/Libraries/STM32F10x_StdPeriph_Driver/src/stm32f10x_rcc.c ****   ErrorStatus status = ERROR;
 317:firmware/STM32F10x_StdPeriph_Lib_V3.3.0/Libraries/STM32F10x_StdPeriph_Driver/src/stm32f10x_rcc.c ****   FlagStatus HSEStatus = RESET;
 318:firmware/STM32F10x_StdPeriph_Lib_V3.3.0/Libraries/STM32F10x_StdPeriph_Driver/src/stm32f10x_rcc.c ****   
 319:firmware/STM32F10x_StdPeriph_Lib_V3.3.0/Libraries/STM32F10x_StdPeriph_Driver/src/stm32f10x_rcc.c ****   /* Wait till HSE is ready and if Time out is reached exit */
 320:firmware/STM32F10x_StdPeriph_Lib_V3.3.0/Libraries/STM32F10x_StdPeriph_Driver/src/stm32f10x_rcc.c ****   do
 321:firmware/STM32F10x_StdPeriph_Lib_V3.3.0/Libraries/STM32F10x_StdPeriph_Driver/src/stm32f10x_rcc.c ****   {
 322:firmware/STM32F10x_StdPeriph_Lib_V3.3.0/Libraries/STM32F10x_StdPeriph_Driver/src/stm32f10x_rcc.c ****     HSEStatus = RCC_GetFlagStatus(RCC_FLAG_HSERDY);
 323:firmware/STM32F10x_StdPeriph_Lib_V3.3.0/Libraries/STM32F10x_StdPeriph_Driver/src/stm32f10x_rcc.c ****     StartUpCounter++;  
 324:firmware/STM32F10x_StdPeriph_Lib_V3.3.0/Libraries/STM32F10x_StdPeriph_Driver/src/stm32f10x_rcc.c ****   } while((StartUpCounter != HSEStartUp_TimeOut) && (HSEStatus == RESET));
 325:firmware/STM32F10x_StdPeriph_Lib_V3.3.0/Libraries/STM32F10x_StdPeriph_Driver/src/stm32f10x_rcc.c ****   
 326:firmware/STM32F10x_StdPeriph_Lib_V3.3.0/Libraries/STM32F10x_StdPeriph_Driver/src/stm32f10x_rcc.c ****   if (RCC_GetFlagStatus(RCC_FLAG_HSERDY) != RESET)
 327:firmware/STM32F10x_StdPeriph_Lib_V3.3.0/Libraries/STM32F10x_StdPeriph_Driver/src/stm32f10x_rcc.c ****   {
 328:firmware/STM32F10x_StdPeriph_Lib_V3.3.0/Libraries/STM32F10x_StdPeriph_Driver/src/stm32f10x_rcc.c ****     status = SUCCESS;
 329:firmware/STM32F10x_StdPeriph_Lib_V3.3.0/Libraries/STM32F10x_StdPeriph_Driver/src/stm32f10x_rcc.c ****   }
 330:firmware/STM32F10x_StdPeriph_Lib_V3.3.0/Libraries/STM32F10x_StdPeriph_Driver/src/stm32f10x_rcc.c ****   else
 331:firmware/STM32F10x_StdPeriph_Lib_V3.3.0/Libraries/STM32F10x_StdPeriph_Driver/src/stm32f10x_rcc.c ****   {
 332:firmware/STM32F10x_StdPeriph_Lib_V3.3.0/Libraries/STM32F10x_StdPeriph_Driver/src/stm32f10x_rcc.c ****     status = ERROR;
 333:firmware/STM32F10x_StdPeriph_Lib_V3.3.0/Libraries/STM32F10x_StdPeriph_Driver/src/stm32f10x_rcc.c ****   }  
 334:firmware/STM32F10x_StdPeriph_Lib_V3.3.0/Libraries/STM32F10x_StdPeriph_Driver/src/stm32f10x_rcc.c ****   return (status);
 335:firmware/STM32F10x_StdPeriph_Lib_V3.3.0/Libraries/STM32F10x_StdPeriph_Driver/src/stm32f10x_rcc.c **** }
 336:firmware/STM32F10x_StdPeriph_Lib_V3.3.0/Libraries/STM32F10x_StdPeriph_Driver/src/stm32f10x_rcc.c **** 
 337:firmware/STM32F10x_StdPeriph_Lib_V3.3.0/Libraries/STM32F10x_StdPeriph_Driver/src/stm32f10x_rcc.c **** /**
 338:firmware/STM32F10x_StdPeriph_Lib_V3.3.0/Libraries/STM32F10x_StdPeriph_Driver/src/stm32f10x_rcc.c ****   * @brief  Adjusts the Internal High Speed oscillator (HSI) calibration value.
 339:firmware/STM32F10x_StdPeriph_Lib_V3.3.0/Libraries/STM32F10x_StdPeriph_Driver/src/stm32f10x_rcc.c ****   * @param  HSICalibrationValue: specifies the calibration trimming value.
 340:firmware/STM32F10x_StdPeriph_Lib_V3.3.0/Libraries/STM32F10x_StdPeriph_Driver/src/stm32f10x_rcc.c ****   *   This parameter must be a number between 0 and 0x1F.
 341:firmware/STM32F10x_StdPeriph_Lib_V3.3.0/Libraries/STM32F10x_StdPeriph_Driver/src/stm32f10x_rcc.c ****   * @retval None
 342:firmware/STM32F10x_StdPeriph_Lib_V3.3.0/Libraries/STM32F10x_StdPeriph_Driver/src/stm32f10x_rcc.c ****   */
 343:firmware/STM32F10x_StdPeriph_Lib_V3.3.0/Libraries/STM32F10x_StdPeriph_Driver/src/stm32f10x_rcc.c **** void RCC_AdjustHSICalibrationValue(uint8_t HSICalibrationValue)
 344:firmware/STM32F10x_StdPeriph_Lib_V3.3.0/Libraries/STM32F10x_StdPeriph_Driver/src/stm32f10x_rcc.c **** {
 133              		.loc 1 344 0
 134              		.cfi_startproc
 135              		@ args = 0, pretend = 0, frame = 0
 136              		@ frame_needed = 0, uses_anonymous_args = 0
 137              		@ link register save eliminated.
 138              	.LVL1:
 345:firmware/STM32F10x_StdPeriph_Lib_V3.3.0/Libraries/STM32F10x_StdPeriph_Driver/src/stm32f10x_rcc.c ****   uint32_t tmpreg = 0;
 346:firmware/STM32F10x_StdPeriph_Lib_V3.3.0/Libraries/STM32F10x_StdPeriph_Driver/src/stm32f10x_rcc.c ****   /* Check the parameters */
 347:firmware/STM32F10x_StdPeriph_Lib_V3.3.0/Libraries/STM32F10x_StdPeriph_Driver/src/stm32f10x_rcc.c ****   assert_param(IS_RCC_CALIBRATION_VALUE(HSICalibrationValue));
 348:firmware/STM32F10x_StdPeriph_Lib_V3.3.0/Libraries/STM32F10x_StdPeriph_Driver/src/stm32f10x_rcc.c ****   tmpreg = RCC->CR;
 139              		.loc 1 348 0
 140 0000 034B     		ldr	r3, .L12
 141 0002 1A68     		ldr	r2, [r3, #0]
 142              	.LVL2:
 349:firmware/STM32F10x_StdPeriph_Lib_V3.3.0/Libraries/STM32F10x_StdPeriph_Driver/src/stm32f10x_rcc.c ****   /* Clear HSITRIM[4:0] bits */
 350:firmware/STM32F10x_StdPeriph_Lib_V3.3.0/Libraries/STM32F10x_StdPeriph_Driver/src/stm32f10x_rcc.c ****   tmpreg &= CR_HSITRIM_Mask;
 143              		.loc 1 350 0
 144 0004 22F0F802 		bic	r2, r2, #248
 145              	.LVL3:
 351:firmware/STM32F10x_StdPeriph_Lib_V3.3.0/Libraries/STM32F10x_StdPeriph_Driver/src/stm32f10x_rcc.c ****   /* Set the HSITRIM[4:0] bits according to HSICalibrationValue value */
 352:firmware/STM32F10x_StdPeriph_Lib_V3.3.0/Libraries/STM32F10x_StdPeriph_Driver/src/stm32f10x_rcc.c ****   tmpreg |= (uint32_t)HSICalibrationValue << 3;
 146              		.loc 1 352 0
 147 0008 42EAC002 		orr	r2, r2, r0, lsl #3
 148              	.LVL4:
 353:firmware/STM32F10x_StdPeriph_Lib_V3.3.0/Libraries/STM32F10x_StdPeriph_Driver/src/stm32f10x_rcc.c ****   /* Store the new value */
 354:firmware/STM32F10x_StdPeriph_Lib_V3.3.0/Libraries/STM32F10x_StdPeriph_Driver/src/stm32f10x_rcc.c ****   RCC->CR = tmpreg;
 149              		.loc 1 354 0
 150 000c 1A60     		str	r2, [r3, #0]
 355:firmware/STM32F10x_StdPeriph_Lib_V3.3.0/Libraries/STM32F10x_StdPeriph_Driver/src/stm32f10x_rcc.c **** }
 151              		.loc 1 355 0
 152 000e 7047     		bx	lr
 153              	.L13:
 154              		.align	2
 155              	.L12:
 156 0010 00100240 		.word	1073876992
 157              		.cfi_endproc
 158              	.LFE32:
 160              		.section	.text.RCC_HSICmd,"ax",%progbits
 161              		.align	1
 162              		.global	RCC_HSICmd
 163              		.thumb
 164              		.thumb_func
 166              	RCC_HSICmd:
 167              	.LFB33:
 356:firmware/STM32F10x_StdPeriph_Lib_V3.3.0/Libraries/STM32F10x_StdPeriph_Driver/src/stm32f10x_rcc.c **** 
 357:firmware/STM32F10x_StdPeriph_Lib_V3.3.0/Libraries/STM32F10x_StdPeriph_Driver/src/stm32f10x_rcc.c **** /**
 358:firmware/STM32F10x_StdPeriph_Lib_V3.3.0/Libraries/STM32F10x_StdPeriph_Driver/src/stm32f10x_rcc.c ****   * @brief  Enables or disables the Internal High Speed oscillator (HSI).
 359:firmware/STM32F10x_StdPeriph_Lib_V3.3.0/Libraries/STM32F10x_StdPeriph_Driver/src/stm32f10x_rcc.c ****   * @note   HSI can not be stopped if it is used directly or through the PLL as system clock.
 360:firmware/STM32F10x_StdPeriph_Lib_V3.3.0/Libraries/STM32F10x_StdPeriph_Driver/src/stm32f10x_rcc.c ****   * @param  NewState: new state of the HSI. This parameter can be: ENABLE or DISABLE.
 361:firmware/STM32F10x_StdPeriph_Lib_V3.3.0/Libraries/STM32F10x_StdPeriph_Driver/src/stm32f10x_rcc.c ****   * @retval None
 362:firmware/STM32F10x_StdPeriph_Lib_V3.3.0/Libraries/STM32F10x_StdPeriph_Driver/src/stm32f10x_rcc.c ****   */
 363:firmware/STM32F10x_StdPeriph_Lib_V3.3.0/Libraries/STM32F10x_StdPeriph_Driver/src/stm32f10x_rcc.c **** void RCC_HSICmd(FunctionalState NewState)
 364:firmware/STM32F10x_StdPeriph_Lib_V3.3.0/Libraries/STM32F10x_StdPeriph_Driver/src/stm32f10x_rcc.c **** {
 168              		.loc 1 364 0
 169              		.cfi_startproc
 170              		@ args = 0, pretend = 0, frame = 0
 171              		@ frame_needed = 0, uses_anonymous_args = 0
 172              		@ link register save eliminated.
 173              	.LVL5:
 365:firmware/STM32F10x_StdPeriph_Lib_V3.3.0/Libraries/STM32F10x_StdPeriph_Driver/src/stm32f10x_rcc.c ****   /* Check the parameters */
 366:firmware/STM32F10x_StdPeriph_Lib_V3.3.0/Libraries/STM32F10x_StdPeriph_Driver/src/stm32f10x_rcc.c ****   assert_param(IS_FUNCTIONAL_STATE(NewState));
 367:firmware/STM32F10x_StdPeriph_Lib_V3.3.0/Libraries/STM32F10x_StdPeriph_Driver/src/stm32f10x_rcc.c ****   *(__IO uint32_t *) CR_HSION_BB = (uint32_t)NewState;
 174              		.loc 1 367 0
 175 0000 014B     		ldr	r3, .L15
 176 0002 1860     		str	r0, [r3, #0]
 368:firmware/STM32F10x_StdPeriph_Lib_V3.3.0/Libraries/STM32F10x_StdPeriph_Driver/src/stm32f10x_rcc.c **** }
 177              		.loc 1 368 0
 178 0004 7047     		bx	lr
 179              	.L16:
 180 0006 00BF     		.align	2
 181              	.L15:
 182 0008 00004242 		.word	1111621632
 183              		.cfi_endproc
 184              	.LFE33:
 186              		.section	.text.RCC_PLLConfig,"ax",%progbits
 187              		.align	1
 188              		.global	RCC_PLLConfig
 189              		.thumb
 190              		.thumb_func
 192              	RCC_PLLConfig:
 193              	.LFB34:
 369:firmware/STM32F10x_StdPeriph_Lib_V3.3.0/Libraries/STM32F10x_StdPeriph_Driver/src/stm32f10x_rcc.c **** 
 370:firmware/STM32F10x_StdPeriph_Lib_V3.3.0/Libraries/STM32F10x_StdPeriph_Driver/src/stm32f10x_rcc.c **** /**
 371:firmware/STM32F10x_StdPeriph_Lib_V3.3.0/Libraries/STM32F10x_StdPeriph_Driver/src/stm32f10x_rcc.c ****   * @brief  Configures the PLL clock source and multiplication factor.
 372:firmware/STM32F10x_StdPeriph_Lib_V3.3.0/Libraries/STM32F10x_StdPeriph_Driver/src/stm32f10x_rcc.c ****   * @note   This function must be used only when the PLL is disabled.
 373:firmware/STM32F10x_StdPeriph_Lib_V3.3.0/Libraries/STM32F10x_StdPeriph_Driver/src/stm32f10x_rcc.c ****   * @param  RCC_PLLSource: specifies the PLL entry clock source.
 374:firmware/STM32F10x_StdPeriph_Lib_V3.3.0/Libraries/STM32F10x_StdPeriph_Driver/src/stm32f10x_rcc.c ****   *   For @b STM32_Connectivity_line_devices or @b STM32_Value_line_devices, 
 375:firmware/STM32F10x_StdPeriph_Lib_V3.3.0/Libraries/STM32F10x_StdPeriph_Driver/src/stm32f10x_rcc.c ****   *   this parameter can be one of the following values:
 376:firmware/STM32F10x_StdPeriph_Lib_V3.3.0/Libraries/STM32F10x_StdPeriph_Driver/src/stm32f10x_rcc.c ****   *     @arg RCC_PLLSource_HSI_Div2: HSI oscillator clock divided by 2 selected as PLL clock entry
 377:firmware/STM32F10x_StdPeriph_Lib_V3.3.0/Libraries/STM32F10x_StdPeriph_Driver/src/stm32f10x_rcc.c ****   *     @arg RCC_PLLSource_PREDIV1: PREDIV1 clock selected as PLL clock entry
 378:firmware/STM32F10x_StdPeriph_Lib_V3.3.0/Libraries/STM32F10x_StdPeriph_Driver/src/stm32f10x_rcc.c ****   *   For @b other_STM32_devices, this parameter can be one of the following values:
 379:firmware/STM32F10x_StdPeriph_Lib_V3.3.0/Libraries/STM32F10x_StdPeriph_Driver/src/stm32f10x_rcc.c ****   *     @arg RCC_PLLSource_HSI_Div2: HSI oscillator clock divided by 2 selected as PLL clock entry
 380:firmware/STM32F10x_StdPeriph_Lib_V3.3.0/Libraries/STM32F10x_StdPeriph_Driver/src/stm32f10x_rcc.c ****   *     @arg RCC_PLLSource_HSE_Div1: HSE oscillator clock selected as PLL clock entry
 381:firmware/STM32F10x_StdPeriph_Lib_V3.3.0/Libraries/STM32F10x_StdPeriph_Driver/src/stm32f10x_rcc.c ****   *     @arg RCC_PLLSource_HSE_Div2: HSE oscillator clock divided by 2 selected as PLL clock entry 
 382:firmware/STM32F10x_StdPeriph_Lib_V3.3.0/Libraries/STM32F10x_StdPeriph_Driver/src/stm32f10x_rcc.c ****   * @param  RCC_PLLMul: specifies the PLL multiplication factor.
 383:firmware/STM32F10x_StdPeriph_Lib_V3.3.0/Libraries/STM32F10x_StdPeriph_Driver/src/stm32f10x_rcc.c ****   *   For @b STM32_Connectivity_line_devices, this parameter can be RCC_PLLMul_x where x:{[4,9], 6_
 384:firmware/STM32F10x_StdPeriph_Lib_V3.3.0/Libraries/STM32F10x_StdPeriph_Driver/src/stm32f10x_rcc.c ****   *   For @b other_STM32_devices, this parameter can be RCC_PLLMul_x where x:[2,16]  
 385:firmware/STM32F10x_StdPeriph_Lib_V3.3.0/Libraries/STM32F10x_StdPeriph_Driver/src/stm32f10x_rcc.c ****   * @retval None
 386:firmware/STM32F10x_StdPeriph_Lib_V3.3.0/Libraries/STM32F10x_StdPeriph_Driver/src/stm32f10x_rcc.c ****   */
 387:firmware/STM32F10x_StdPeriph_Lib_V3.3.0/Libraries/STM32F10x_StdPeriph_Driver/src/stm32f10x_rcc.c **** void RCC_PLLConfig(uint32_t RCC_PLLSource, uint32_t RCC_PLLMul)
 388:firmware/STM32F10x_StdPeriph_Lib_V3.3.0/Libraries/STM32F10x_StdPeriph_Driver/src/stm32f10x_rcc.c **** {
 194              		.loc 1 388 0
 195              		.cfi_startproc
 196              		@ args = 0, pretend = 0, frame = 0
 197              		@ frame_needed = 0, uses_anonymous_args = 0
 198              		@ link register save eliminated.
 199              	.LVL6:
 389:firmware/STM32F10x_StdPeriph_Lib_V3.3.0/Libraries/STM32F10x_StdPeriph_Driver/src/stm32f10x_rcc.c ****   uint32_t tmpreg = 0;
 390:firmware/STM32F10x_StdPeriph_Lib_V3.3.0/Libraries/STM32F10x_StdPeriph_Driver/src/stm32f10x_rcc.c **** 
 391:firmware/STM32F10x_StdPeriph_Lib_V3.3.0/Libraries/STM32F10x_StdPeriph_Driver/src/stm32f10x_rcc.c ****   /* Check the parameters */
 392:firmware/STM32F10x_StdPeriph_Lib_V3.3.0/Libraries/STM32F10x_StdPeriph_Driver/src/stm32f10x_rcc.c ****   assert_param(IS_RCC_PLL_SOURCE(RCC_PLLSource));
 393:firmware/STM32F10x_StdPeriph_Lib_V3.3.0/Libraries/STM32F10x_StdPeriph_Driver/src/stm32f10x_rcc.c ****   assert_param(IS_RCC_PLL_MUL(RCC_PLLMul));
 394:firmware/STM32F10x_StdPeriph_Lib_V3.3.0/Libraries/STM32F10x_StdPeriph_Driver/src/stm32f10x_rcc.c **** 
 395:firmware/STM32F10x_StdPeriph_Lib_V3.3.0/Libraries/STM32F10x_StdPeriph_Driver/src/stm32f10x_rcc.c ****   tmpreg = RCC->CFGR;
 200              		.loc 1 395 0
 201 0000 044B     		ldr	r3, .L18
 202 0002 5A68     		ldr	r2, [r3, #4]
 203              	.LVL7:
 396:firmware/STM32F10x_StdPeriph_Lib_V3.3.0/Libraries/STM32F10x_StdPeriph_Driver/src/stm32f10x_rcc.c ****   /* Clear PLLSRC, PLLXTPRE and PLLMUL[3:0] bits */
 397:firmware/STM32F10x_StdPeriph_Lib_V3.3.0/Libraries/STM32F10x_StdPeriph_Driver/src/stm32f10x_rcc.c ****   tmpreg &= CFGR_PLL_Mask;
 204              		.loc 1 397 0
 205 0004 22F47C12 		bic	r2, r2, #4128768
 206              	.LVL8:
 398:firmware/STM32F10x_StdPeriph_Lib_V3.3.0/Libraries/STM32F10x_StdPeriph_Driver/src/stm32f10x_rcc.c ****   /* Set the PLL configuration bits */
 399:firmware/STM32F10x_StdPeriph_Lib_V3.3.0/Libraries/STM32F10x_StdPeriph_Driver/src/stm32f10x_rcc.c ****   tmpreg |= RCC_PLLSource | RCC_PLLMul;
 207              		.loc 1 399 0
 208 0008 40EA0202 		orr	r2, r0, r2
 209              	.LVL9:
 210 000c 0A43     		orrs	r2, r2, r1
 211              	.LVL10:
 400:firmware/STM32F10x_StdPeriph_Lib_V3.3.0/Libraries/STM32F10x_StdPeriph_Driver/src/stm32f10x_rcc.c ****   /* Store the new value */
 401:firmware/STM32F10x_StdPeriph_Lib_V3.3.0/Libraries/STM32F10x_StdPeriph_Driver/src/stm32f10x_rcc.c ****   RCC->CFGR = tmpreg;
 212              		.loc 1 401 0
 213 000e 5A60     		str	r2, [r3, #4]
 402:firmware/STM32F10x_StdPeriph_Lib_V3.3.0/Libraries/STM32F10x_StdPeriph_Driver/src/stm32f10x_rcc.c **** }
 214              		.loc 1 402 0
 215 0010 7047     		bx	lr
 216              	.L19:
 217 0012 00BF     		.align	2
 218              	.L18:
 219 0014 00100240 		.word	1073876992
 220              		.cfi_endproc
 221              	.LFE34:
 223              		.section	.text.RCC_PLLCmd,"ax",%progbits
 224              		.align	1
 225              		.global	RCC_PLLCmd
 226              		.thumb
 227              		.thumb_func
 229              	RCC_PLLCmd:
 230              	.LFB35:
 403:firmware/STM32F10x_StdPeriph_Lib_V3.3.0/Libraries/STM32F10x_StdPeriph_Driver/src/stm32f10x_rcc.c **** 
 404:firmware/STM32F10x_StdPeriph_Lib_V3.3.0/Libraries/STM32F10x_StdPeriph_Driver/src/stm32f10x_rcc.c **** /**
 405:firmware/STM32F10x_StdPeriph_Lib_V3.3.0/Libraries/STM32F10x_StdPeriph_Driver/src/stm32f10x_rcc.c ****   * @brief  Enables or disables the PLL.
 406:firmware/STM32F10x_StdPeriph_Lib_V3.3.0/Libraries/STM32F10x_StdPeriph_Driver/src/stm32f10x_rcc.c ****   * @note   The PLL can not be disabled if it is used as system clock.
 407:firmware/STM32F10x_StdPeriph_Lib_V3.3.0/Libraries/STM32F10x_StdPeriph_Driver/src/stm32f10x_rcc.c ****   * @param  NewState: new state of the PLL. This parameter can be: ENABLE or DISABLE.
 408:firmware/STM32F10x_StdPeriph_Lib_V3.3.0/Libraries/STM32F10x_StdPeriph_Driver/src/stm32f10x_rcc.c ****   * @retval None
 409:firmware/STM32F10x_StdPeriph_Lib_V3.3.0/Libraries/STM32F10x_StdPeriph_Driver/src/stm32f10x_rcc.c ****   */
 410:firmware/STM32F10x_StdPeriph_Lib_V3.3.0/Libraries/STM32F10x_StdPeriph_Driver/src/stm32f10x_rcc.c **** void RCC_PLLCmd(FunctionalState NewState)
 411:firmware/STM32F10x_StdPeriph_Lib_V3.3.0/Libraries/STM32F10x_StdPeriph_Driver/src/stm32f10x_rcc.c **** {
 231              		.loc 1 411 0
 232              		.cfi_startproc
 233              		@ args = 0, pretend = 0, frame = 0
 234              		@ frame_needed = 0, uses_anonymous_args = 0
 235              		@ link register save eliminated.
 236              	.LVL11:
 412:firmware/STM32F10x_StdPeriph_Lib_V3.3.0/Libraries/STM32F10x_StdPeriph_Driver/src/stm32f10x_rcc.c ****   /* Check the parameters */
 413:firmware/STM32F10x_StdPeriph_Lib_V3.3.0/Libraries/STM32F10x_StdPeriph_Driver/src/stm32f10x_rcc.c ****   assert_param(IS_FUNCTIONAL_STATE(NewState));
 414:firmware/STM32F10x_StdPeriph_Lib_V3.3.0/Libraries/STM32F10x_StdPeriph_Driver/src/stm32f10x_rcc.c **** 
 415:firmware/STM32F10x_StdPeriph_Lib_V3.3.0/Libraries/STM32F10x_StdPeriph_Driver/src/stm32f10x_rcc.c ****   *(__IO uint32_t *) CR_PLLON_BB = (uint32_t)NewState;
 237              		.loc 1 415 0
 238 0000 014B     		ldr	r3, .L21
 239 0002 1860     		str	r0, [r3, #0]
 416:firmware/STM32F10x_StdPeriph_Lib_V3.3.0/Libraries/STM32F10x_StdPeriph_Driver/src/stm32f10x_rcc.c **** }
 240              		.loc 1 416 0
 241 0004 7047     		bx	lr
 242              	.L22:
 243 0006 00BF     		.align	2
 244              	.L21:
 245 0008 60004242 		.word	1111621728
 246              		.cfi_endproc
 247              	.LFE35:
 249              		.section	.text.RCC_SYSCLKConfig,"ax",%progbits
 250              		.align	1
 251              		.global	RCC_SYSCLKConfig
 252              		.thumb
 253              		.thumb_func
 255              	RCC_SYSCLKConfig:
 256              	.LFB36:
 417:firmware/STM32F10x_StdPeriph_Lib_V3.3.0/Libraries/STM32F10x_StdPeriph_Driver/src/stm32f10x_rcc.c **** 
 418:firmware/STM32F10x_StdPeriph_Lib_V3.3.0/Libraries/STM32F10x_StdPeriph_Driver/src/stm32f10x_rcc.c **** #if defined (STM32F10X_LD_VL) || defined (STM32F10X_MD_VL) || defined (STM32F10X_CL)
 419:firmware/STM32F10x_StdPeriph_Lib_V3.3.0/Libraries/STM32F10x_StdPeriph_Driver/src/stm32f10x_rcc.c **** /**
 420:firmware/STM32F10x_StdPeriph_Lib_V3.3.0/Libraries/STM32F10x_StdPeriph_Driver/src/stm32f10x_rcc.c ****   * @brief  Configures the PREDIV1 division factor.
 421:firmware/STM32F10x_StdPeriph_Lib_V3.3.0/Libraries/STM32F10x_StdPeriph_Driver/src/stm32f10x_rcc.c ****   * @note 
 422:firmware/STM32F10x_StdPeriph_Lib_V3.3.0/Libraries/STM32F10x_StdPeriph_Driver/src/stm32f10x_rcc.c ****   *   - This function must be used only when the PLL is disabled.
 423:firmware/STM32F10x_StdPeriph_Lib_V3.3.0/Libraries/STM32F10x_StdPeriph_Driver/src/stm32f10x_rcc.c ****   *   - This function applies only to STM32 Connectivity line and Value line 
 424:firmware/STM32F10x_StdPeriph_Lib_V3.3.0/Libraries/STM32F10x_StdPeriph_Driver/src/stm32f10x_rcc.c ****   *     devices.
 425:firmware/STM32F10x_StdPeriph_Lib_V3.3.0/Libraries/STM32F10x_StdPeriph_Driver/src/stm32f10x_rcc.c ****   * @param  RCC_PREDIV1_Source: specifies the PREDIV1 clock source.
 426:firmware/STM32F10x_StdPeriph_Lib_V3.3.0/Libraries/STM32F10x_StdPeriph_Driver/src/stm32f10x_rcc.c ****   *   This parameter can be one of the following values:
 427:firmware/STM32F10x_StdPeriph_Lib_V3.3.0/Libraries/STM32F10x_StdPeriph_Driver/src/stm32f10x_rcc.c ****   *     @arg RCC_PREDIV1_Source_HSE: HSE selected as PREDIV1 clock
 428:firmware/STM32F10x_StdPeriph_Lib_V3.3.0/Libraries/STM32F10x_StdPeriph_Driver/src/stm32f10x_rcc.c ****   *     @arg RCC_PREDIV1_Source_PLL2: PLL2 selected as PREDIV1 clock
 429:firmware/STM32F10x_StdPeriph_Lib_V3.3.0/Libraries/STM32F10x_StdPeriph_Driver/src/stm32f10x_rcc.c ****   * @note 
 430:firmware/STM32F10x_StdPeriph_Lib_V3.3.0/Libraries/STM32F10x_StdPeriph_Driver/src/stm32f10x_rcc.c ****   *   For @b STM32_Value_line_devices this parameter is always RCC_PREDIV1_Source_HSE  
 431:firmware/STM32F10x_StdPeriph_Lib_V3.3.0/Libraries/STM32F10x_StdPeriph_Driver/src/stm32f10x_rcc.c ****   * @param  RCC_PREDIV1_Div: specifies the PREDIV1 clock division factor.
 432:firmware/STM32F10x_StdPeriph_Lib_V3.3.0/Libraries/STM32F10x_StdPeriph_Driver/src/stm32f10x_rcc.c ****   *   This parameter can be RCC_PREDIV1_Divx where x:[1,16]
 433:firmware/STM32F10x_StdPeriph_Lib_V3.3.0/Libraries/STM32F10x_StdPeriph_Driver/src/stm32f10x_rcc.c ****   * @retval None
 434:firmware/STM32F10x_StdPeriph_Lib_V3.3.0/Libraries/STM32F10x_StdPeriph_Driver/src/stm32f10x_rcc.c ****   */
 435:firmware/STM32F10x_StdPeriph_Lib_V3.3.0/Libraries/STM32F10x_StdPeriph_Driver/src/stm32f10x_rcc.c **** void RCC_PREDIV1Config(uint32_t RCC_PREDIV1_Source, uint32_t RCC_PREDIV1_Div)
 436:firmware/STM32F10x_StdPeriph_Lib_V3.3.0/Libraries/STM32F10x_StdPeriph_Driver/src/stm32f10x_rcc.c **** {
 437:firmware/STM32F10x_StdPeriph_Lib_V3.3.0/Libraries/STM32F10x_StdPeriph_Driver/src/stm32f10x_rcc.c ****   uint32_t tmpreg = 0;
 438:firmware/STM32F10x_StdPeriph_Lib_V3.3.0/Libraries/STM32F10x_StdPeriph_Driver/src/stm32f10x_rcc.c ****   
 439:firmware/STM32F10x_StdPeriph_Lib_V3.3.0/Libraries/STM32F10x_StdPeriph_Driver/src/stm32f10x_rcc.c ****   /* Check the parameters */
 440:firmware/STM32F10x_StdPeriph_Lib_V3.3.0/Libraries/STM32F10x_StdPeriph_Driver/src/stm32f10x_rcc.c ****   assert_param(IS_RCC_PREDIV1_SOURCE(RCC_PREDIV1_Source));
 441:firmware/STM32F10x_StdPeriph_Lib_V3.3.0/Libraries/STM32F10x_StdPeriph_Driver/src/stm32f10x_rcc.c ****   assert_param(IS_RCC_PREDIV1(RCC_PREDIV1_Div));
 442:firmware/STM32F10x_StdPeriph_Lib_V3.3.0/Libraries/STM32F10x_StdPeriph_Driver/src/stm32f10x_rcc.c **** 
 443:firmware/STM32F10x_StdPeriph_Lib_V3.3.0/Libraries/STM32F10x_StdPeriph_Driver/src/stm32f10x_rcc.c ****   tmpreg = RCC->CFGR2;
 444:firmware/STM32F10x_StdPeriph_Lib_V3.3.0/Libraries/STM32F10x_StdPeriph_Driver/src/stm32f10x_rcc.c ****   /* Clear PREDIV1[3:0] and PREDIV1SRC bits */
 445:firmware/STM32F10x_StdPeriph_Lib_V3.3.0/Libraries/STM32F10x_StdPeriph_Driver/src/stm32f10x_rcc.c ****   tmpreg &= ~(CFGR2_PREDIV1 | CFGR2_PREDIV1SRC);
 446:firmware/STM32F10x_StdPeriph_Lib_V3.3.0/Libraries/STM32F10x_StdPeriph_Driver/src/stm32f10x_rcc.c ****   /* Set the PREDIV1 clock source and division factor */
 447:firmware/STM32F10x_StdPeriph_Lib_V3.3.0/Libraries/STM32F10x_StdPeriph_Driver/src/stm32f10x_rcc.c ****   tmpreg |= RCC_PREDIV1_Source | RCC_PREDIV1_Div ;
 448:firmware/STM32F10x_StdPeriph_Lib_V3.3.0/Libraries/STM32F10x_StdPeriph_Driver/src/stm32f10x_rcc.c ****   /* Store the new value */
 449:firmware/STM32F10x_StdPeriph_Lib_V3.3.0/Libraries/STM32F10x_StdPeriph_Driver/src/stm32f10x_rcc.c ****   RCC->CFGR2 = tmpreg;
 450:firmware/STM32F10x_StdPeriph_Lib_V3.3.0/Libraries/STM32F10x_StdPeriph_Driver/src/stm32f10x_rcc.c **** }
 451:firmware/STM32F10x_StdPeriph_Lib_V3.3.0/Libraries/STM32F10x_StdPeriph_Driver/src/stm32f10x_rcc.c **** #endif
 452:firmware/STM32F10x_StdPeriph_Lib_V3.3.0/Libraries/STM32F10x_StdPeriph_Driver/src/stm32f10x_rcc.c **** 
 453:firmware/STM32F10x_StdPeriph_Lib_V3.3.0/Libraries/STM32F10x_StdPeriph_Driver/src/stm32f10x_rcc.c **** #ifdef STM32F10X_CL
 454:firmware/STM32F10x_StdPeriph_Lib_V3.3.0/Libraries/STM32F10x_StdPeriph_Driver/src/stm32f10x_rcc.c **** /**
 455:firmware/STM32F10x_StdPeriph_Lib_V3.3.0/Libraries/STM32F10x_StdPeriph_Driver/src/stm32f10x_rcc.c ****   * @brief  Configures the PREDIV2 division factor.
 456:firmware/STM32F10x_StdPeriph_Lib_V3.3.0/Libraries/STM32F10x_StdPeriph_Driver/src/stm32f10x_rcc.c ****   * @note 
 457:firmware/STM32F10x_StdPeriph_Lib_V3.3.0/Libraries/STM32F10x_StdPeriph_Driver/src/stm32f10x_rcc.c ****   *   - This function must be used only when both PLL2 and PLL3 are disabled.
 458:firmware/STM32F10x_StdPeriph_Lib_V3.3.0/Libraries/STM32F10x_StdPeriph_Driver/src/stm32f10x_rcc.c ****   *   - This function applies only to STM32 Connectivity line devices.
 459:firmware/STM32F10x_StdPeriph_Lib_V3.3.0/Libraries/STM32F10x_StdPeriph_Driver/src/stm32f10x_rcc.c ****   * @param  RCC_PREDIV2_Div: specifies the PREDIV2 clock division factor.
 460:firmware/STM32F10x_StdPeriph_Lib_V3.3.0/Libraries/STM32F10x_StdPeriph_Driver/src/stm32f10x_rcc.c ****   *   This parameter can be RCC_PREDIV2_Divx where x:[1,16]
 461:firmware/STM32F10x_StdPeriph_Lib_V3.3.0/Libraries/STM32F10x_StdPeriph_Driver/src/stm32f10x_rcc.c ****   * @retval None
 462:firmware/STM32F10x_StdPeriph_Lib_V3.3.0/Libraries/STM32F10x_StdPeriph_Driver/src/stm32f10x_rcc.c ****   */
 463:firmware/STM32F10x_StdPeriph_Lib_V3.3.0/Libraries/STM32F10x_StdPeriph_Driver/src/stm32f10x_rcc.c **** void RCC_PREDIV2Config(uint32_t RCC_PREDIV2_Div)
 464:firmware/STM32F10x_StdPeriph_Lib_V3.3.0/Libraries/STM32F10x_StdPeriph_Driver/src/stm32f10x_rcc.c **** {
 465:firmware/STM32F10x_StdPeriph_Lib_V3.3.0/Libraries/STM32F10x_StdPeriph_Driver/src/stm32f10x_rcc.c ****   uint32_t tmpreg = 0;
 466:firmware/STM32F10x_StdPeriph_Lib_V3.3.0/Libraries/STM32F10x_StdPeriph_Driver/src/stm32f10x_rcc.c **** 
 467:firmware/STM32F10x_StdPeriph_Lib_V3.3.0/Libraries/STM32F10x_StdPeriph_Driver/src/stm32f10x_rcc.c ****   /* Check the parameters */
 468:firmware/STM32F10x_StdPeriph_Lib_V3.3.0/Libraries/STM32F10x_StdPeriph_Driver/src/stm32f10x_rcc.c ****   assert_param(IS_RCC_PREDIV2(RCC_PREDIV2_Div));
 469:firmware/STM32F10x_StdPeriph_Lib_V3.3.0/Libraries/STM32F10x_StdPeriph_Driver/src/stm32f10x_rcc.c **** 
 470:firmware/STM32F10x_StdPeriph_Lib_V3.3.0/Libraries/STM32F10x_StdPeriph_Driver/src/stm32f10x_rcc.c ****   tmpreg = RCC->CFGR2;
 471:firmware/STM32F10x_StdPeriph_Lib_V3.3.0/Libraries/STM32F10x_StdPeriph_Driver/src/stm32f10x_rcc.c ****   /* Clear PREDIV2[3:0] bits */
 472:firmware/STM32F10x_StdPeriph_Lib_V3.3.0/Libraries/STM32F10x_StdPeriph_Driver/src/stm32f10x_rcc.c ****   tmpreg &= ~CFGR2_PREDIV2;
 473:firmware/STM32F10x_StdPeriph_Lib_V3.3.0/Libraries/STM32F10x_StdPeriph_Driver/src/stm32f10x_rcc.c ****   /* Set the PREDIV2 division factor */
 474:firmware/STM32F10x_StdPeriph_Lib_V3.3.0/Libraries/STM32F10x_StdPeriph_Driver/src/stm32f10x_rcc.c ****   tmpreg |= RCC_PREDIV2_Div;
 475:firmware/STM32F10x_StdPeriph_Lib_V3.3.0/Libraries/STM32F10x_StdPeriph_Driver/src/stm32f10x_rcc.c ****   /* Store the new value */
 476:firmware/STM32F10x_StdPeriph_Lib_V3.3.0/Libraries/STM32F10x_StdPeriph_Driver/src/stm32f10x_rcc.c ****   RCC->CFGR2 = tmpreg;
 477:firmware/STM32F10x_StdPeriph_Lib_V3.3.0/Libraries/STM32F10x_StdPeriph_Driver/src/stm32f10x_rcc.c **** }
 478:firmware/STM32F10x_StdPeriph_Lib_V3.3.0/Libraries/STM32F10x_StdPeriph_Driver/src/stm32f10x_rcc.c **** 
 479:firmware/STM32F10x_StdPeriph_Lib_V3.3.0/Libraries/STM32F10x_StdPeriph_Driver/src/stm32f10x_rcc.c **** /**
 480:firmware/STM32F10x_StdPeriph_Lib_V3.3.0/Libraries/STM32F10x_StdPeriph_Driver/src/stm32f10x_rcc.c ****   * @brief  Configures the PLL2 multiplication factor.
 481:firmware/STM32F10x_StdPeriph_Lib_V3.3.0/Libraries/STM32F10x_StdPeriph_Driver/src/stm32f10x_rcc.c ****   * @note
 482:firmware/STM32F10x_StdPeriph_Lib_V3.3.0/Libraries/STM32F10x_StdPeriph_Driver/src/stm32f10x_rcc.c ****   *   - This function must be used only when the PLL2 is disabled.
 483:firmware/STM32F10x_StdPeriph_Lib_V3.3.0/Libraries/STM32F10x_StdPeriph_Driver/src/stm32f10x_rcc.c ****   *   - This function applies only to STM32 Connectivity line devices.
 484:firmware/STM32F10x_StdPeriph_Lib_V3.3.0/Libraries/STM32F10x_StdPeriph_Driver/src/stm32f10x_rcc.c ****   * @param  RCC_PLL2Mul: specifies the PLL2 multiplication factor.
 485:firmware/STM32F10x_StdPeriph_Lib_V3.3.0/Libraries/STM32F10x_StdPeriph_Driver/src/stm32f10x_rcc.c ****   *   This parameter can be RCC_PLL2Mul_x where x:{[8,14], 16, 20}
 486:firmware/STM32F10x_StdPeriph_Lib_V3.3.0/Libraries/STM32F10x_StdPeriph_Driver/src/stm32f10x_rcc.c ****   * @retval None
 487:firmware/STM32F10x_StdPeriph_Lib_V3.3.0/Libraries/STM32F10x_StdPeriph_Driver/src/stm32f10x_rcc.c ****   */
 488:firmware/STM32F10x_StdPeriph_Lib_V3.3.0/Libraries/STM32F10x_StdPeriph_Driver/src/stm32f10x_rcc.c **** void RCC_PLL2Config(uint32_t RCC_PLL2Mul)
 489:firmware/STM32F10x_StdPeriph_Lib_V3.3.0/Libraries/STM32F10x_StdPeriph_Driver/src/stm32f10x_rcc.c **** {
 490:firmware/STM32F10x_StdPeriph_Lib_V3.3.0/Libraries/STM32F10x_StdPeriph_Driver/src/stm32f10x_rcc.c ****   uint32_t tmpreg = 0;
 491:firmware/STM32F10x_StdPeriph_Lib_V3.3.0/Libraries/STM32F10x_StdPeriph_Driver/src/stm32f10x_rcc.c **** 
 492:firmware/STM32F10x_StdPeriph_Lib_V3.3.0/Libraries/STM32F10x_StdPeriph_Driver/src/stm32f10x_rcc.c ****   /* Check the parameters */
 493:firmware/STM32F10x_StdPeriph_Lib_V3.3.0/Libraries/STM32F10x_StdPeriph_Driver/src/stm32f10x_rcc.c ****   assert_param(IS_RCC_PLL2_MUL(RCC_PLL2Mul));
 494:firmware/STM32F10x_StdPeriph_Lib_V3.3.0/Libraries/STM32F10x_StdPeriph_Driver/src/stm32f10x_rcc.c **** 
 495:firmware/STM32F10x_StdPeriph_Lib_V3.3.0/Libraries/STM32F10x_StdPeriph_Driver/src/stm32f10x_rcc.c ****   tmpreg = RCC->CFGR2;
 496:firmware/STM32F10x_StdPeriph_Lib_V3.3.0/Libraries/STM32F10x_StdPeriph_Driver/src/stm32f10x_rcc.c ****   /* Clear PLL2Mul[3:0] bits */
 497:firmware/STM32F10x_StdPeriph_Lib_V3.3.0/Libraries/STM32F10x_StdPeriph_Driver/src/stm32f10x_rcc.c ****   tmpreg &= ~CFGR2_PLL2MUL;
 498:firmware/STM32F10x_StdPeriph_Lib_V3.3.0/Libraries/STM32F10x_StdPeriph_Driver/src/stm32f10x_rcc.c ****   /* Set the PLL2 configuration bits */
 499:firmware/STM32F10x_StdPeriph_Lib_V3.3.0/Libraries/STM32F10x_StdPeriph_Driver/src/stm32f10x_rcc.c ****   tmpreg |= RCC_PLL2Mul;
 500:firmware/STM32F10x_StdPeriph_Lib_V3.3.0/Libraries/STM32F10x_StdPeriph_Driver/src/stm32f10x_rcc.c ****   /* Store the new value */
 501:firmware/STM32F10x_StdPeriph_Lib_V3.3.0/Libraries/STM32F10x_StdPeriph_Driver/src/stm32f10x_rcc.c ****   RCC->CFGR2 = tmpreg;
 502:firmware/STM32F10x_StdPeriph_Lib_V3.3.0/Libraries/STM32F10x_StdPeriph_Driver/src/stm32f10x_rcc.c **** }
 503:firmware/STM32F10x_StdPeriph_Lib_V3.3.0/Libraries/STM32F10x_StdPeriph_Driver/src/stm32f10x_rcc.c **** 
 504:firmware/STM32F10x_StdPeriph_Lib_V3.3.0/Libraries/STM32F10x_StdPeriph_Driver/src/stm32f10x_rcc.c **** 
 505:firmware/STM32F10x_StdPeriph_Lib_V3.3.0/Libraries/STM32F10x_StdPeriph_Driver/src/stm32f10x_rcc.c **** /**
 506:firmware/STM32F10x_StdPeriph_Lib_V3.3.0/Libraries/STM32F10x_StdPeriph_Driver/src/stm32f10x_rcc.c ****   * @brief  Enables or disables the PLL2.
 507:firmware/STM32F10x_StdPeriph_Lib_V3.3.0/Libraries/STM32F10x_StdPeriph_Driver/src/stm32f10x_rcc.c ****   * @note 
 508:firmware/STM32F10x_StdPeriph_Lib_V3.3.0/Libraries/STM32F10x_StdPeriph_Driver/src/stm32f10x_rcc.c ****   *   - The PLL2 can not be disabled if it is used indirectly as system clock
 509:firmware/STM32F10x_StdPeriph_Lib_V3.3.0/Libraries/STM32F10x_StdPeriph_Driver/src/stm32f10x_rcc.c ****   *     (i.e. it is used as PLL clock entry that is used as System clock).
 510:firmware/STM32F10x_StdPeriph_Lib_V3.3.0/Libraries/STM32F10x_StdPeriph_Driver/src/stm32f10x_rcc.c ****   *   - This function applies only to STM32 Connectivity line devices.
 511:firmware/STM32F10x_StdPeriph_Lib_V3.3.0/Libraries/STM32F10x_StdPeriph_Driver/src/stm32f10x_rcc.c ****   * @param  NewState: new state of the PLL2. This parameter can be: ENABLE or DISABLE.
 512:firmware/STM32F10x_StdPeriph_Lib_V3.3.0/Libraries/STM32F10x_StdPeriph_Driver/src/stm32f10x_rcc.c ****   * @retval None
 513:firmware/STM32F10x_StdPeriph_Lib_V3.3.0/Libraries/STM32F10x_StdPeriph_Driver/src/stm32f10x_rcc.c ****   */
 514:firmware/STM32F10x_StdPeriph_Lib_V3.3.0/Libraries/STM32F10x_StdPeriph_Driver/src/stm32f10x_rcc.c **** void RCC_PLL2Cmd(FunctionalState NewState)
 515:firmware/STM32F10x_StdPeriph_Lib_V3.3.0/Libraries/STM32F10x_StdPeriph_Driver/src/stm32f10x_rcc.c **** {
 516:firmware/STM32F10x_StdPeriph_Lib_V3.3.0/Libraries/STM32F10x_StdPeriph_Driver/src/stm32f10x_rcc.c ****   /* Check the parameters */
 517:firmware/STM32F10x_StdPeriph_Lib_V3.3.0/Libraries/STM32F10x_StdPeriph_Driver/src/stm32f10x_rcc.c ****   assert_param(IS_FUNCTIONAL_STATE(NewState));
 518:firmware/STM32F10x_StdPeriph_Lib_V3.3.0/Libraries/STM32F10x_StdPeriph_Driver/src/stm32f10x_rcc.c **** 
 519:firmware/STM32F10x_StdPeriph_Lib_V3.3.0/Libraries/STM32F10x_StdPeriph_Driver/src/stm32f10x_rcc.c ****   *(__IO uint32_t *) CR_PLL2ON_BB = (uint32_t)NewState;
 520:firmware/STM32F10x_StdPeriph_Lib_V3.3.0/Libraries/STM32F10x_StdPeriph_Driver/src/stm32f10x_rcc.c **** }
 521:firmware/STM32F10x_StdPeriph_Lib_V3.3.0/Libraries/STM32F10x_StdPeriph_Driver/src/stm32f10x_rcc.c **** 
 522:firmware/STM32F10x_StdPeriph_Lib_V3.3.0/Libraries/STM32F10x_StdPeriph_Driver/src/stm32f10x_rcc.c **** 
 523:firmware/STM32F10x_StdPeriph_Lib_V3.3.0/Libraries/STM32F10x_StdPeriph_Driver/src/stm32f10x_rcc.c **** /**
 524:firmware/STM32F10x_StdPeriph_Lib_V3.3.0/Libraries/STM32F10x_StdPeriph_Driver/src/stm32f10x_rcc.c ****   * @brief  Configures the PLL3 multiplication factor.
 525:firmware/STM32F10x_StdPeriph_Lib_V3.3.0/Libraries/STM32F10x_StdPeriph_Driver/src/stm32f10x_rcc.c ****   * @note 
 526:firmware/STM32F10x_StdPeriph_Lib_V3.3.0/Libraries/STM32F10x_StdPeriph_Driver/src/stm32f10x_rcc.c ****   *   - This function must be used only when the PLL3 is disabled.
 527:firmware/STM32F10x_StdPeriph_Lib_V3.3.0/Libraries/STM32F10x_StdPeriph_Driver/src/stm32f10x_rcc.c ****   *   - This function applies only to STM32 Connectivity line devices.
 528:firmware/STM32F10x_StdPeriph_Lib_V3.3.0/Libraries/STM32F10x_StdPeriph_Driver/src/stm32f10x_rcc.c ****   * @param  RCC_PLL3Mul: specifies the PLL3 multiplication factor.
 529:firmware/STM32F10x_StdPeriph_Lib_V3.3.0/Libraries/STM32F10x_StdPeriph_Driver/src/stm32f10x_rcc.c ****   *   This parameter can be RCC_PLL3Mul_x where x:{[8,14], 16, 20}
 530:firmware/STM32F10x_StdPeriph_Lib_V3.3.0/Libraries/STM32F10x_StdPeriph_Driver/src/stm32f10x_rcc.c ****   * @retval None
 531:firmware/STM32F10x_StdPeriph_Lib_V3.3.0/Libraries/STM32F10x_StdPeriph_Driver/src/stm32f10x_rcc.c ****   */
 532:firmware/STM32F10x_StdPeriph_Lib_V3.3.0/Libraries/STM32F10x_StdPeriph_Driver/src/stm32f10x_rcc.c **** void RCC_PLL3Config(uint32_t RCC_PLL3Mul)
 533:firmware/STM32F10x_StdPeriph_Lib_V3.3.0/Libraries/STM32F10x_StdPeriph_Driver/src/stm32f10x_rcc.c **** {
 534:firmware/STM32F10x_StdPeriph_Lib_V3.3.0/Libraries/STM32F10x_StdPeriph_Driver/src/stm32f10x_rcc.c ****   uint32_t tmpreg = 0;
 535:firmware/STM32F10x_StdPeriph_Lib_V3.3.0/Libraries/STM32F10x_StdPeriph_Driver/src/stm32f10x_rcc.c **** 
 536:firmware/STM32F10x_StdPeriph_Lib_V3.3.0/Libraries/STM32F10x_StdPeriph_Driver/src/stm32f10x_rcc.c ****   /* Check the parameters */
 537:firmware/STM32F10x_StdPeriph_Lib_V3.3.0/Libraries/STM32F10x_StdPeriph_Driver/src/stm32f10x_rcc.c ****   assert_param(IS_RCC_PLL3_MUL(RCC_PLL3Mul));
 538:firmware/STM32F10x_StdPeriph_Lib_V3.3.0/Libraries/STM32F10x_StdPeriph_Driver/src/stm32f10x_rcc.c **** 
 539:firmware/STM32F10x_StdPeriph_Lib_V3.3.0/Libraries/STM32F10x_StdPeriph_Driver/src/stm32f10x_rcc.c ****   tmpreg = RCC->CFGR2;
 540:firmware/STM32F10x_StdPeriph_Lib_V3.3.0/Libraries/STM32F10x_StdPeriph_Driver/src/stm32f10x_rcc.c ****   /* Clear PLL3Mul[3:0] bits */
 541:firmware/STM32F10x_StdPeriph_Lib_V3.3.0/Libraries/STM32F10x_StdPeriph_Driver/src/stm32f10x_rcc.c ****   tmpreg &= ~CFGR2_PLL3MUL;
 542:firmware/STM32F10x_StdPeriph_Lib_V3.3.0/Libraries/STM32F10x_StdPeriph_Driver/src/stm32f10x_rcc.c ****   /* Set the PLL3 configuration bits */
 543:firmware/STM32F10x_StdPeriph_Lib_V3.3.0/Libraries/STM32F10x_StdPeriph_Driver/src/stm32f10x_rcc.c ****   tmpreg |= RCC_PLL3Mul;
 544:firmware/STM32F10x_StdPeriph_Lib_V3.3.0/Libraries/STM32F10x_StdPeriph_Driver/src/stm32f10x_rcc.c ****   /* Store the new value */
 545:firmware/STM32F10x_StdPeriph_Lib_V3.3.0/Libraries/STM32F10x_StdPeriph_Driver/src/stm32f10x_rcc.c ****   RCC->CFGR2 = tmpreg;
 546:firmware/STM32F10x_StdPeriph_Lib_V3.3.0/Libraries/STM32F10x_StdPeriph_Driver/src/stm32f10x_rcc.c **** }
 547:firmware/STM32F10x_StdPeriph_Lib_V3.3.0/Libraries/STM32F10x_StdPeriph_Driver/src/stm32f10x_rcc.c **** 
 548:firmware/STM32F10x_StdPeriph_Lib_V3.3.0/Libraries/STM32F10x_StdPeriph_Driver/src/stm32f10x_rcc.c **** 
 549:firmware/STM32F10x_StdPeriph_Lib_V3.3.0/Libraries/STM32F10x_StdPeriph_Driver/src/stm32f10x_rcc.c **** /**
 550:firmware/STM32F10x_StdPeriph_Lib_V3.3.0/Libraries/STM32F10x_StdPeriph_Driver/src/stm32f10x_rcc.c ****   * @brief  Enables or disables the PLL3.
 551:firmware/STM32F10x_StdPeriph_Lib_V3.3.0/Libraries/STM32F10x_StdPeriph_Driver/src/stm32f10x_rcc.c ****   * @note   This function applies only to STM32 Connectivity line devices.
 552:firmware/STM32F10x_StdPeriph_Lib_V3.3.0/Libraries/STM32F10x_StdPeriph_Driver/src/stm32f10x_rcc.c ****   * @param  NewState: new state of the PLL3. This parameter can be: ENABLE or DISABLE.
 553:firmware/STM32F10x_StdPeriph_Lib_V3.3.0/Libraries/STM32F10x_StdPeriph_Driver/src/stm32f10x_rcc.c ****   * @retval None
 554:firmware/STM32F10x_StdPeriph_Lib_V3.3.0/Libraries/STM32F10x_StdPeriph_Driver/src/stm32f10x_rcc.c ****   */
 555:firmware/STM32F10x_StdPeriph_Lib_V3.3.0/Libraries/STM32F10x_StdPeriph_Driver/src/stm32f10x_rcc.c **** void RCC_PLL3Cmd(FunctionalState NewState)
 556:firmware/STM32F10x_StdPeriph_Lib_V3.3.0/Libraries/STM32F10x_StdPeriph_Driver/src/stm32f10x_rcc.c **** {
 557:firmware/STM32F10x_StdPeriph_Lib_V3.3.0/Libraries/STM32F10x_StdPeriph_Driver/src/stm32f10x_rcc.c ****   /* Check the parameters */
 558:firmware/STM32F10x_StdPeriph_Lib_V3.3.0/Libraries/STM32F10x_StdPeriph_Driver/src/stm32f10x_rcc.c **** 
 559:firmware/STM32F10x_StdPeriph_Lib_V3.3.0/Libraries/STM32F10x_StdPeriph_Driver/src/stm32f10x_rcc.c ****   assert_param(IS_FUNCTIONAL_STATE(NewState));
 560:firmware/STM32F10x_StdPeriph_Lib_V3.3.0/Libraries/STM32F10x_StdPeriph_Driver/src/stm32f10x_rcc.c ****   *(__IO uint32_t *) CR_PLL3ON_BB = (uint32_t)NewState;
 561:firmware/STM32F10x_StdPeriph_Lib_V3.3.0/Libraries/STM32F10x_StdPeriph_Driver/src/stm32f10x_rcc.c **** }
 562:firmware/STM32F10x_StdPeriph_Lib_V3.3.0/Libraries/STM32F10x_StdPeriph_Driver/src/stm32f10x_rcc.c **** #endif /* STM32F10X_CL */
 563:firmware/STM32F10x_StdPeriph_Lib_V3.3.0/Libraries/STM32F10x_StdPeriph_Driver/src/stm32f10x_rcc.c **** 
 564:firmware/STM32F10x_StdPeriph_Lib_V3.3.0/Libraries/STM32F10x_StdPeriph_Driver/src/stm32f10x_rcc.c **** /**
 565:firmware/STM32F10x_StdPeriph_Lib_V3.3.0/Libraries/STM32F10x_StdPeriph_Driver/src/stm32f10x_rcc.c ****   * @brief  Configures the system clock (SYSCLK).
 566:firmware/STM32F10x_StdPeriph_Lib_V3.3.0/Libraries/STM32F10x_StdPeriph_Driver/src/stm32f10x_rcc.c ****   * @param  RCC_SYSCLKSource: specifies the clock source used as system clock.
 567:firmware/STM32F10x_StdPeriph_Lib_V3.3.0/Libraries/STM32F10x_StdPeriph_Driver/src/stm32f10x_rcc.c ****   *   This parameter can be one of the following values:
 568:firmware/STM32F10x_StdPeriph_Lib_V3.3.0/Libraries/STM32F10x_StdPeriph_Driver/src/stm32f10x_rcc.c ****   *     @arg RCC_SYSCLKSource_HSI: HSI selected as system clock
 569:firmware/STM32F10x_StdPeriph_Lib_V3.3.0/Libraries/STM32F10x_StdPeriph_Driver/src/stm32f10x_rcc.c ****   *     @arg RCC_SYSCLKSource_HSE: HSE selected as system clock
 570:firmware/STM32F10x_StdPeriph_Lib_V3.3.0/Libraries/STM32F10x_StdPeriph_Driver/src/stm32f10x_rcc.c ****   *     @arg RCC_SYSCLKSource_PLLCLK: PLL selected as system clock
 571:firmware/STM32F10x_StdPeriph_Lib_V3.3.0/Libraries/STM32F10x_StdPeriph_Driver/src/stm32f10x_rcc.c ****   * @retval None
 572:firmware/STM32F10x_StdPeriph_Lib_V3.3.0/Libraries/STM32F10x_StdPeriph_Driver/src/stm32f10x_rcc.c ****   */
 573:firmware/STM32F10x_StdPeriph_Lib_V3.3.0/Libraries/STM32F10x_StdPeriph_Driver/src/stm32f10x_rcc.c **** void RCC_SYSCLKConfig(uint32_t RCC_SYSCLKSource)
 574:firmware/STM32F10x_StdPeriph_Lib_V3.3.0/Libraries/STM32F10x_StdPeriph_Driver/src/stm32f10x_rcc.c **** {
 257              		.loc 1 574 0
 258              		.cfi_startproc
 259              		@ args = 0, pretend = 0, frame = 0
 260              		@ frame_needed = 0, uses_anonymous_args = 0
 261              		@ link register save eliminated.
 262              	.LVL12:
 575:firmware/STM32F10x_StdPeriph_Lib_V3.3.0/Libraries/STM32F10x_StdPeriph_Driver/src/stm32f10x_rcc.c ****   uint32_t tmpreg = 0;
 576:firmware/STM32F10x_StdPeriph_Lib_V3.3.0/Libraries/STM32F10x_StdPeriph_Driver/src/stm32f10x_rcc.c ****   /* Check the parameters */
 577:firmware/STM32F10x_StdPeriph_Lib_V3.3.0/Libraries/STM32F10x_StdPeriph_Driver/src/stm32f10x_rcc.c ****   assert_param(IS_RCC_SYSCLK_SOURCE(RCC_SYSCLKSource));
 578:firmware/STM32F10x_StdPeriph_Lib_V3.3.0/Libraries/STM32F10x_StdPeriph_Driver/src/stm32f10x_rcc.c ****   tmpreg = RCC->CFGR;
 263              		.loc 1 578 0
 264 0000 034B     		ldr	r3, .L24
 265 0002 5A68     		ldr	r2, [r3, #4]
 266              	.LVL13:
 579:firmware/STM32F10x_StdPeriph_Lib_V3.3.0/Libraries/STM32F10x_StdPeriph_Driver/src/stm32f10x_rcc.c ****   /* Clear SW[1:0] bits */
 580:firmware/STM32F10x_StdPeriph_Lib_V3.3.0/Libraries/STM32F10x_StdPeriph_Driver/src/stm32f10x_rcc.c ****   tmpreg &= CFGR_SW_Mask;
 267              		.loc 1 580 0
 268 0004 22F00302 		bic	r2, r2, #3
 269              	.LVL14:
 581:firmware/STM32F10x_StdPeriph_Lib_V3.3.0/Libraries/STM32F10x_StdPeriph_Driver/src/stm32f10x_rcc.c ****   /* Set SW[1:0] bits according to RCC_SYSCLKSource value */
 582:firmware/STM32F10x_StdPeriph_Lib_V3.3.0/Libraries/STM32F10x_StdPeriph_Driver/src/stm32f10x_rcc.c ****   tmpreg |= RCC_SYSCLKSource;
 270              		.loc 1 582 0
 271 0008 40EA0202 		orr	r2, r0, r2
 272              	.LVL15:
 583:firmware/STM32F10x_StdPeriph_Lib_V3.3.0/Libraries/STM32F10x_StdPeriph_Driver/src/stm32f10x_rcc.c ****   /* Store the new value */
 584:firmware/STM32F10x_StdPeriph_Lib_V3.3.0/Libraries/STM32F10x_StdPeriph_Driver/src/stm32f10x_rcc.c ****   RCC->CFGR = tmpreg;
 273              		.loc 1 584 0
 274 000c 5A60     		str	r2, [r3, #4]
 585:firmware/STM32F10x_StdPeriph_Lib_V3.3.0/Libraries/STM32F10x_StdPeriph_Driver/src/stm32f10x_rcc.c **** }
 275              		.loc 1 585 0
 276 000e 7047     		bx	lr
 277              	.L25:
 278              		.align	2
 279              	.L24:
 280 0010 00100240 		.word	1073876992
 281              		.cfi_endproc
 282              	.LFE36:
 284              		.section	.text.RCC_GetSYSCLKSource,"ax",%progbits
 285              		.align	1
 286              		.global	RCC_GetSYSCLKSource
 287              		.thumb
 288              		.thumb_func
 290              	RCC_GetSYSCLKSource:
 291              	.LFB37:
 586:firmware/STM32F10x_StdPeriph_Lib_V3.3.0/Libraries/STM32F10x_StdPeriph_Driver/src/stm32f10x_rcc.c **** 
 587:firmware/STM32F10x_StdPeriph_Lib_V3.3.0/Libraries/STM32F10x_StdPeriph_Driver/src/stm32f10x_rcc.c **** /**
 588:firmware/STM32F10x_StdPeriph_Lib_V3.3.0/Libraries/STM32F10x_StdPeriph_Driver/src/stm32f10x_rcc.c ****   * @brief  Returns the clock source used as system clock.
 589:firmware/STM32F10x_StdPeriph_Lib_V3.3.0/Libraries/STM32F10x_StdPeriph_Driver/src/stm32f10x_rcc.c ****   * @param  None
 590:firmware/STM32F10x_StdPeriph_Lib_V3.3.0/Libraries/STM32F10x_StdPeriph_Driver/src/stm32f10x_rcc.c ****   * @retval The clock source used as system clock. The returned value can
 591:firmware/STM32F10x_StdPeriph_Lib_V3.3.0/Libraries/STM32F10x_StdPeriph_Driver/src/stm32f10x_rcc.c ****   *   be one of the following:
 592:firmware/STM32F10x_StdPeriph_Lib_V3.3.0/Libraries/STM32F10x_StdPeriph_Driver/src/stm32f10x_rcc.c ****   *     - 0x00: HSI used as system clock
 593:firmware/STM32F10x_StdPeriph_Lib_V3.3.0/Libraries/STM32F10x_StdPeriph_Driver/src/stm32f10x_rcc.c ****   *     - 0x04: HSE used as system clock
 594:firmware/STM32F10x_StdPeriph_Lib_V3.3.0/Libraries/STM32F10x_StdPeriph_Driver/src/stm32f10x_rcc.c ****   *     - 0x08: PLL used as system clock
 595:firmware/STM32F10x_StdPeriph_Lib_V3.3.0/Libraries/STM32F10x_StdPeriph_Driver/src/stm32f10x_rcc.c ****   */
 596:firmware/STM32F10x_StdPeriph_Lib_V3.3.0/Libraries/STM32F10x_StdPeriph_Driver/src/stm32f10x_rcc.c **** uint8_t RCC_GetSYSCLKSource(void)
 597:firmware/STM32F10x_StdPeriph_Lib_V3.3.0/Libraries/STM32F10x_StdPeriph_Driver/src/stm32f10x_rcc.c **** {
 292              		.loc 1 597 0
 293              		.cfi_startproc
 294              		@ args = 0, pretend = 0, frame = 0
 295              		@ frame_needed = 0, uses_anonymous_args = 0
 296              		@ link register save eliminated.
 598:firmware/STM32F10x_StdPeriph_Lib_V3.3.0/Libraries/STM32F10x_StdPeriph_Driver/src/stm32f10x_rcc.c ****   return ((uint8_t)(RCC->CFGR & CFGR_SWS_Mask));
 297              		.loc 1 598 0
 298 0000 024B     		ldr	r3, .L27
 299 0002 5868     		ldr	r0, [r3, #4]
 599:firmware/STM32F10x_StdPeriph_Lib_V3.3.0/Libraries/STM32F10x_StdPeriph_Driver/src/stm32f10x_rcc.c **** }
 300              		.loc 1 599 0
 301 0004 00F00C00 		and	r0, r0, #12
 302 0008 7047     		bx	lr
 303              	.L28:
 304 000a 00BF     		.align	2
 305              	.L27:
 306 000c 00100240 		.word	1073876992
 307              		.cfi_endproc
 308              	.LFE37:
 310              		.section	.text.RCC_HCLKConfig,"ax",%progbits
 311              		.align	1
 312              		.global	RCC_HCLKConfig
 313              		.thumb
 314              		.thumb_func
 316              	RCC_HCLKConfig:
 317              	.LFB38:
 600:firmware/STM32F10x_StdPeriph_Lib_V3.3.0/Libraries/STM32F10x_StdPeriph_Driver/src/stm32f10x_rcc.c **** 
 601:firmware/STM32F10x_StdPeriph_Lib_V3.3.0/Libraries/STM32F10x_StdPeriph_Driver/src/stm32f10x_rcc.c **** /**
 602:firmware/STM32F10x_StdPeriph_Lib_V3.3.0/Libraries/STM32F10x_StdPeriph_Driver/src/stm32f10x_rcc.c ****   * @brief  Configures the AHB clock (HCLK).
 603:firmware/STM32F10x_StdPeriph_Lib_V3.3.0/Libraries/STM32F10x_StdPeriph_Driver/src/stm32f10x_rcc.c ****   * @param  RCC_SYSCLK: defines the AHB clock divider. This clock is derived from 
 604:firmware/STM32F10x_StdPeriph_Lib_V3.3.0/Libraries/STM32F10x_StdPeriph_Driver/src/stm32f10x_rcc.c ****   *   the system clock (SYSCLK).
 605:firmware/STM32F10x_StdPeriph_Lib_V3.3.0/Libraries/STM32F10x_StdPeriph_Driver/src/stm32f10x_rcc.c ****   *   This parameter can be one of the following values:
 606:firmware/STM32F10x_StdPeriph_Lib_V3.3.0/Libraries/STM32F10x_StdPeriph_Driver/src/stm32f10x_rcc.c ****   *     @arg RCC_SYSCLK_Div1: AHB clock = SYSCLK
 607:firmware/STM32F10x_StdPeriph_Lib_V3.3.0/Libraries/STM32F10x_StdPeriph_Driver/src/stm32f10x_rcc.c ****   *     @arg RCC_SYSCLK_Div2: AHB clock = SYSCLK/2
 608:firmware/STM32F10x_StdPeriph_Lib_V3.3.0/Libraries/STM32F10x_StdPeriph_Driver/src/stm32f10x_rcc.c ****   *     @arg RCC_SYSCLK_Div4: AHB clock = SYSCLK/4
 609:firmware/STM32F10x_StdPeriph_Lib_V3.3.0/Libraries/STM32F10x_StdPeriph_Driver/src/stm32f10x_rcc.c ****   *     @arg RCC_SYSCLK_Div8: AHB clock = SYSCLK/8
 610:firmware/STM32F10x_StdPeriph_Lib_V3.3.0/Libraries/STM32F10x_StdPeriph_Driver/src/stm32f10x_rcc.c ****   *     @arg RCC_SYSCLK_Div16: AHB clock = SYSCLK/16
 611:firmware/STM32F10x_StdPeriph_Lib_V3.3.0/Libraries/STM32F10x_StdPeriph_Driver/src/stm32f10x_rcc.c ****   *     @arg RCC_SYSCLK_Div64: AHB clock = SYSCLK/64
 612:firmware/STM32F10x_StdPeriph_Lib_V3.3.0/Libraries/STM32F10x_StdPeriph_Driver/src/stm32f10x_rcc.c ****   *     @arg RCC_SYSCLK_Div128: AHB clock = SYSCLK/128
 613:firmware/STM32F10x_StdPeriph_Lib_V3.3.0/Libraries/STM32F10x_StdPeriph_Driver/src/stm32f10x_rcc.c ****   *     @arg RCC_SYSCLK_Div256: AHB clock = SYSCLK/256
 614:firmware/STM32F10x_StdPeriph_Lib_V3.3.0/Libraries/STM32F10x_StdPeriph_Driver/src/stm32f10x_rcc.c ****   *     @arg RCC_SYSCLK_Div512: AHB clock = SYSCLK/512
 615:firmware/STM32F10x_StdPeriph_Lib_V3.3.0/Libraries/STM32F10x_StdPeriph_Driver/src/stm32f10x_rcc.c ****   * @retval None
 616:firmware/STM32F10x_StdPeriph_Lib_V3.3.0/Libraries/STM32F10x_StdPeriph_Driver/src/stm32f10x_rcc.c ****   */
 617:firmware/STM32F10x_StdPeriph_Lib_V3.3.0/Libraries/STM32F10x_StdPeriph_Driver/src/stm32f10x_rcc.c **** void RCC_HCLKConfig(uint32_t RCC_SYSCLK)
 618:firmware/STM32F10x_StdPeriph_Lib_V3.3.0/Libraries/STM32F10x_StdPeriph_Driver/src/stm32f10x_rcc.c **** {
 318              		.loc 1 618 0
 319              		.cfi_startproc
 320              		@ args = 0, pretend = 0, frame = 0
 321              		@ frame_needed = 0, uses_anonymous_args = 0
 322              		@ link register save eliminated.
 323              	.LVL16:
 619:firmware/STM32F10x_StdPeriph_Lib_V3.3.0/Libraries/STM32F10x_StdPeriph_Driver/src/stm32f10x_rcc.c ****   uint32_t tmpreg = 0;
 620:firmware/STM32F10x_StdPeriph_Lib_V3.3.0/Libraries/STM32F10x_StdPeriph_Driver/src/stm32f10x_rcc.c ****   /* Check the parameters */
 621:firmware/STM32F10x_StdPeriph_Lib_V3.3.0/Libraries/STM32F10x_StdPeriph_Driver/src/stm32f10x_rcc.c ****   assert_param(IS_RCC_HCLK(RCC_SYSCLK));
 622:firmware/STM32F10x_StdPeriph_Lib_V3.3.0/Libraries/STM32F10x_StdPeriph_Driver/src/stm32f10x_rcc.c ****   tmpreg = RCC->CFGR;
 324              		.loc 1 622 0
 325 0000 034B     		ldr	r3, .L30
 326 0002 5A68     		ldr	r2, [r3, #4]
 327              	.LVL17:
 623:firmware/STM32F10x_StdPeriph_Lib_V3.3.0/Libraries/STM32F10x_StdPeriph_Driver/src/stm32f10x_rcc.c ****   /* Clear HPRE[3:0] bits */
 624:firmware/STM32F10x_StdPeriph_Lib_V3.3.0/Libraries/STM32F10x_StdPeriph_Driver/src/stm32f10x_rcc.c ****   tmpreg &= CFGR_HPRE_Reset_Mask;
 328              		.loc 1 624 0
 329 0004 22F0F002 		bic	r2, r2, #240
 330              	.LVL18:
 625:firmware/STM32F10x_StdPeriph_Lib_V3.3.0/Libraries/STM32F10x_StdPeriph_Driver/src/stm32f10x_rcc.c ****   /* Set HPRE[3:0] bits according to RCC_SYSCLK value */
 626:firmware/STM32F10x_StdPeriph_Lib_V3.3.0/Libraries/STM32F10x_StdPeriph_Driver/src/stm32f10x_rcc.c ****   tmpreg |= RCC_SYSCLK;
 331              		.loc 1 626 0
 332 0008 40EA0202 		orr	r2, r0, r2
 333              	.LVL19:
 627:firmware/STM32F10x_StdPeriph_Lib_V3.3.0/Libraries/STM32F10x_StdPeriph_Driver/src/stm32f10x_rcc.c ****   /* Store the new value */
 628:firmware/STM32F10x_StdPeriph_Lib_V3.3.0/Libraries/STM32F10x_StdPeriph_Driver/src/stm32f10x_rcc.c ****   RCC->CFGR = tmpreg;
 334              		.loc 1 628 0
 335 000c 5A60     		str	r2, [r3, #4]
 629:firmware/STM32F10x_StdPeriph_Lib_V3.3.0/Libraries/STM32F10x_StdPeriph_Driver/src/stm32f10x_rcc.c **** }
 336              		.loc 1 629 0
 337 000e 7047     		bx	lr
 338              	.L31:
 339              		.align	2
 340              	.L30:
 341 0010 00100240 		.word	1073876992
 342              		.cfi_endproc
 343              	.LFE38:
 345              		.section	.text.RCC_PCLK1Config,"ax",%progbits
 346              		.align	1
 347              		.global	RCC_PCLK1Config
 348              		.thumb
 349              		.thumb_func
 351              	RCC_PCLK1Config:
 352              	.LFB39:
 630:firmware/STM32F10x_StdPeriph_Lib_V3.3.0/Libraries/STM32F10x_StdPeriph_Driver/src/stm32f10x_rcc.c **** 
 631:firmware/STM32F10x_StdPeriph_Lib_V3.3.0/Libraries/STM32F10x_StdPeriph_Driver/src/stm32f10x_rcc.c **** /**
 632:firmware/STM32F10x_StdPeriph_Lib_V3.3.0/Libraries/STM32F10x_StdPeriph_Driver/src/stm32f10x_rcc.c ****   * @brief  Configures the Low Speed APB clock (PCLK1).
 633:firmware/STM32F10x_StdPeriph_Lib_V3.3.0/Libraries/STM32F10x_StdPeriph_Driver/src/stm32f10x_rcc.c ****   * @param  RCC_HCLK: defines the APB1 clock divider. This clock is derived from 
 634:firmware/STM32F10x_StdPeriph_Lib_V3.3.0/Libraries/STM32F10x_StdPeriph_Driver/src/stm32f10x_rcc.c ****   *   the AHB clock (HCLK).
 635:firmware/STM32F10x_StdPeriph_Lib_V3.3.0/Libraries/STM32F10x_StdPeriph_Driver/src/stm32f10x_rcc.c ****   *   This parameter can be one of the following values:
 636:firmware/STM32F10x_StdPeriph_Lib_V3.3.0/Libraries/STM32F10x_StdPeriph_Driver/src/stm32f10x_rcc.c ****   *     @arg RCC_HCLK_Div1: APB1 clock = HCLK
 637:firmware/STM32F10x_StdPeriph_Lib_V3.3.0/Libraries/STM32F10x_StdPeriph_Driver/src/stm32f10x_rcc.c ****   *     @arg RCC_HCLK_Div2: APB1 clock = HCLK/2
 638:firmware/STM32F10x_StdPeriph_Lib_V3.3.0/Libraries/STM32F10x_StdPeriph_Driver/src/stm32f10x_rcc.c ****   *     @arg RCC_HCLK_Div4: APB1 clock = HCLK/4
 639:firmware/STM32F10x_StdPeriph_Lib_V3.3.0/Libraries/STM32F10x_StdPeriph_Driver/src/stm32f10x_rcc.c ****   *     @arg RCC_HCLK_Div8: APB1 clock = HCLK/8
 640:firmware/STM32F10x_StdPeriph_Lib_V3.3.0/Libraries/STM32F10x_StdPeriph_Driver/src/stm32f10x_rcc.c ****   *     @arg RCC_HCLK_Div16: APB1 clock = HCLK/16
 641:firmware/STM32F10x_StdPeriph_Lib_V3.3.0/Libraries/STM32F10x_StdPeriph_Driver/src/stm32f10x_rcc.c ****   * @retval None
 642:firmware/STM32F10x_StdPeriph_Lib_V3.3.0/Libraries/STM32F10x_StdPeriph_Driver/src/stm32f10x_rcc.c ****   */
 643:firmware/STM32F10x_StdPeriph_Lib_V3.3.0/Libraries/STM32F10x_StdPeriph_Driver/src/stm32f10x_rcc.c **** void RCC_PCLK1Config(uint32_t RCC_HCLK)
 644:firmware/STM32F10x_StdPeriph_Lib_V3.3.0/Libraries/STM32F10x_StdPeriph_Driver/src/stm32f10x_rcc.c **** {
 353              		.loc 1 644 0
 354              		.cfi_startproc
 355              		@ args = 0, pretend = 0, frame = 0
 356              		@ frame_needed = 0, uses_anonymous_args = 0
 357              		@ link register save eliminated.
 358              	.LVL20:
 645:firmware/STM32F10x_StdPeriph_Lib_V3.3.0/Libraries/STM32F10x_StdPeriph_Driver/src/stm32f10x_rcc.c ****   uint32_t tmpreg = 0;
 646:firmware/STM32F10x_StdPeriph_Lib_V3.3.0/Libraries/STM32F10x_StdPeriph_Driver/src/stm32f10x_rcc.c ****   /* Check the parameters */
 647:firmware/STM32F10x_StdPeriph_Lib_V3.3.0/Libraries/STM32F10x_StdPeriph_Driver/src/stm32f10x_rcc.c ****   assert_param(IS_RCC_PCLK(RCC_HCLK));
 648:firmware/STM32F10x_StdPeriph_Lib_V3.3.0/Libraries/STM32F10x_StdPeriph_Driver/src/stm32f10x_rcc.c ****   tmpreg = RCC->CFGR;
 359              		.loc 1 648 0
 360 0000 034B     		ldr	r3, .L33
 361 0002 5A68     		ldr	r2, [r3, #4]
 362              	.LVL21:
 649:firmware/STM32F10x_StdPeriph_Lib_V3.3.0/Libraries/STM32F10x_StdPeriph_Driver/src/stm32f10x_rcc.c ****   /* Clear PPRE1[2:0] bits */
 650:firmware/STM32F10x_StdPeriph_Lib_V3.3.0/Libraries/STM32F10x_StdPeriph_Driver/src/stm32f10x_rcc.c ****   tmpreg &= CFGR_PPRE1_Reset_Mask;
 363              		.loc 1 650 0
 364 0004 22F4E062 		bic	r2, r2, #1792
 365              	.LVL22:
 651:firmware/STM32F10x_StdPeriph_Lib_V3.3.0/Libraries/STM32F10x_StdPeriph_Driver/src/stm32f10x_rcc.c ****   /* Set PPRE1[2:0] bits according to RCC_HCLK value */
 652:firmware/STM32F10x_StdPeriph_Lib_V3.3.0/Libraries/STM32F10x_StdPeriph_Driver/src/stm32f10x_rcc.c ****   tmpreg |= RCC_HCLK;
 366              		.loc 1 652 0
 367 0008 40EA0202 		orr	r2, r0, r2
 368              	.LVL23:
 653:firmware/STM32F10x_StdPeriph_Lib_V3.3.0/Libraries/STM32F10x_StdPeriph_Driver/src/stm32f10x_rcc.c ****   /* Store the new value */
 654:firmware/STM32F10x_StdPeriph_Lib_V3.3.0/Libraries/STM32F10x_StdPeriph_Driver/src/stm32f10x_rcc.c ****   RCC->CFGR = tmpreg;
 369              		.loc 1 654 0
 370 000c 5A60     		str	r2, [r3, #4]
 655:firmware/STM32F10x_StdPeriph_Lib_V3.3.0/Libraries/STM32F10x_StdPeriph_Driver/src/stm32f10x_rcc.c **** }
 371              		.loc 1 655 0
 372 000e 7047     		bx	lr
 373              	.L34:
 374              		.align	2
 375              	.L33:
 376 0010 00100240 		.word	1073876992
 377              		.cfi_endproc
 378              	.LFE39:
 380              		.section	.text.RCC_PCLK2Config,"ax",%progbits
 381              		.align	1
 382              		.global	RCC_PCLK2Config
 383              		.thumb
 384              		.thumb_func
 386              	RCC_PCLK2Config:
 387              	.LFB40:
 656:firmware/STM32F10x_StdPeriph_Lib_V3.3.0/Libraries/STM32F10x_StdPeriph_Driver/src/stm32f10x_rcc.c **** 
 657:firmware/STM32F10x_StdPeriph_Lib_V3.3.0/Libraries/STM32F10x_StdPeriph_Driver/src/stm32f10x_rcc.c **** /**
 658:firmware/STM32F10x_StdPeriph_Lib_V3.3.0/Libraries/STM32F10x_StdPeriph_Driver/src/stm32f10x_rcc.c ****   * @brief  Configures the High Speed APB clock (PCLK2).
 659:firmware/STM32F10x_StdPeriph_Lib_V3.3.0/Libraries/STM32F10x_StdPeriph_Driver/src/stm32f10x_rcc.c ****   * @param  RCC_HCLK: defines the APB2 clock divider. This clock is derived from 
 660:firmware/STM32F10x_StdPeriph_Lib_V3.3.0/Libraries/STM32F10x_StdPeriph_Driver/src/stm32f10x_rcc.c ****   *   the AHB clock (HCLK).
 661:firmware/STM32F10x_StdPeriph_Lib_V3.3.0/Libraries/STM32F10x_StdPeriph_Driver/src/stm32f10x_rcc.c ****   *   This parameter can be one of the following values:
 662:firmware/STM32F10x_StdPeriph_Lib_V3.3.0/Libraries/STM32F10x_StdPeriph_Driver/src/stm32f10x_rcc.c ****   *     @arg RCC_HCLK_Div1: APB2 clock = HCLK
 663:firmware/STM32F10x_StdPeriph_Lib_V3.3.0/Libraries/STM32F10x_StdPeriph_Driver/src/stm32f10x_rcc.c ****   *     @arg RCC_HCLK_Div2: APB2 clock = HCLK/2
 664:firmware/STM32F10x_StdPeriph_Lib_V3.3.0/Libraries/STM32F10x_StdPeriph_Driver/src/stm32f10x_rcc.c ****   *     @arg RCC_HCLK_Div4: APB2 clock = HCLK/4
 665:firmware/STM32F10x_StdPeriph_Lib_V3.3.0/Libraries/STM32F10x_StdPeriph_Driver/src/stm32f10x_rcc.c ****   *     @arg RCC_HCLK_Div8: APB2 clock = HCLK/8
 666:firmware/STM32F10x_StdPeriph_Lib_V3.3.0/Libraries/STM32F10x_StdPeriph_Driver/src/stm32f10x_rcc.c ****   *     @arg RCC_HCLK_Div16: APB2 clock = HCLK/16
 667:firmware/STM32F10x_StdPeriph_Lib_V3.3.0/Libraries/STM32F10x_StdPeriph_Driver/src/stm32f10x_rcc.c ****   * @retval None
 668:firmware/STM32F10x_StdPeriph_Lib_V3.3.0/Libraries/STM32F10x_StdPeriph_Driver/src/stm32f10x_rcc.c ****   */
 669:firmware/STM32F10x_StdPeriph_Lib_V3.3.0/Libraries/STM32F10x_StdPeriph_Driver/src/stm32f10x_rcc.c **** void RCC_PCLK2Config(uint32_t RCC_HCLK)
 670:firmware/STM32F10x_StdPeriph_Lib_V3.3.0/Libraries/STM32F10x_StdPeriph_Driver/src/stm32f10x_rcc.c **** {
 388              		.loc 1 670 0
 389              		.cfi_startproc
 390              		@ args = 0, pretend = 0, frame = 0
 391              		@ frame_needed = 0, uses_anonymous_args = 0
 392              		@ link register save eliminated.
 393              	.LVL24:
 671:firmware/STM32F10x_StdPeriph_Lib_V3.3.0/Libraries/STM32F10x_StdPeriph_Driver/src/stm32f10x_rcc.c ****   uint32_t tmpreg = 0;
 672:firmware/STM32F10x_StdPeriph_Lib_V3.3.0/Libraries/STM32F10x_StdPeriph_Driver/src/stm32f10x_rcc.c ****   /* Check the parameters */
 673:firmware/STM32F10x_StdPeriph_Lib_V3.3.0/Libraries/STM32F10x_StdPeriph_Driver/src/stm32f10x_rcc.c ****   assert_param(IS_RCC_PCLK(RCC_HCLK));
 674:firmware/STM32F10x_StdPeriph_Lib_V3.3.0/Libraries/STM32F10x_StdPeriph_Driver/src/stm32f10x_rcc.c ****   tmpreg = RCC->CFGR;
 394              		.loc 1 674 0
 395 0000 034B     		ldr	r3, .L36
 396 0002 5A68     		ldr	r2, [r3, #4]
 397              	.LVL25:
 675:firmware/STM32F10x_StdPeriph_Lib_V3.3.0/Libraries/STM32F10x_StdPeriph_Driver/src/stm32f10x_rcc.c ****   /* Clear PPRE2[2:0] bits */
 676:firmware/STM32F10x_StdPeriph_Lib_V3.3.0/Libraries/STM32F10x_StdPeriph_Driver/src/stm32f10x_rcc.c ****   tmpreg &= CFGR_PPRE2_Reset_Mask;
 398              		.loc 1 676 0
 399 0004 22F46052 		bic	r2, r2, #14336
 400              	.LVL26:
 677:firmware/STM32F10x_StdPeriph_Lib_V3.3.0/Libraries/STM32F10x_StdPeriph_Driver/src/stm32f10x_rcc.c ****   /* Set PPRE2[2:0] bits according to RCC_HCLK value */
 678:firmware/STM32F10x_StdPeriph_Lib_V3.3.0/Libraries/STM32F10x_StdPeriph_Driver/src/stm32f10x_rcc.c ****   tmpreg |= RCC_HCLK << 3;
 401              		.loc 1 678 0
 402 0008 42EAC002 		orr	r2, r2, r0, lsl #3
 403              	.LVL27:
 679:firmware/STM32F10x_StdPeriph_Lib_V3.3.0/Libraries/STM32F10x_StdPeriph_Driver/src/stm32f10x_rcc.c ****   /* Store the new value */
 680:firmware/STM32F10x_StdPeriph_Lib_V3.3.0/Libraries/STM32F10x_StdPeriph_Driver/src/stm32f10x_rcc.c ****   RCC->CFGR = tmpreg;
 404              		.loc 1 680 0
 405 000c 5A60     		str	r2, [r3, #4]
 681:firmware/STM32F10x_StdPeriph_Lib_V3.3.0/Libraries/STM32F10x_StdPeriph_Driver/src/stm32f10x_rcc.c **** }
 406              		.loc 1 681 0
 407 000e 7047     		bx	lr
 408              	.L37:
 409              		.align	2
 410              	.L36:
 411 0010 00100240 		.word	1073876992
 412              		.cfi_endproc
 413              	.LFE40:
 415              		.section	.text.RCC_ITConfig,"ax",%progbits
 416              		.align	1
 417              		.global	RCC_ITConfig
 418              		.thumb
 419              		.thumb_func
 421              	RCC_ITConfig:
 422              	.LFB41:
 682:firmware/STM32F10x_StdPeriph_Lib_V3.3.0/Libraries/STM32F10x_StdPeriph_Driver/src/stm32f10x_rcc.c **** 
 683:firmware/STM32F10x_StdPeriph_Lib_V3.3.0/Libraries/STM32F10x_StdPeriph_Driver/src/stm32f10x_rcc.c **** /**
 684:firmware/STM32F10x_StdPeriph_Lib_V3.3.0/Libraries/STM32F10x_StdPeriph_Driver/src/stm32f10x_rcc.c ****   * @brief  Enables or disables the specified RCC interrupts.
 685:firmware/STM32F10x_StdPeriph_Lib_V3.3.0/Libraries/STM32F10x_StdPeriph_Driver/src/stm32f10x_rcc.c ****   * @param  RCC_IT: specifies the RCC interrupt sources to be enabled or disabled.
 686:firmware/STM32F10x_StdPeriph_Lib_V3.3.0/Libraries/STM32F10x_StdPeriph_Driver/src/stm32f10x_rcc.c ****   * 
 687:firmware/STM32F10x_StdPeriph_Lib_V3.3.0/Libraries/STM32F10x_StdPeriph_Driver/src/stm32f10x_rcc.c ****   *   For @b STM32_Connectivity_line_devices, this parameter can be any combination
 688:firmware/STM32F10x_StdPeriph_Lib_V3.3.0/Libraries/STM32F10x_StdPeriph_Driver/src/stm32f10x_rcc.c ****   *   of the following values        
 689:firmware/STM32F10x_StdPeriph_Lib_V3.3.0/Libraries/STM32F10x_StdPeriph_Driver/src/stm32f10x_rcc.c ****   *     @arg RCC_IT_LSIRDY: LSI ready interrupt
 690:firmware/STM32F10x_StdPeriph_Lib_V3.3.0/Libraries/STM32F10x_StdPeriph_Driver/src/stm32f10x_rcc.c ****   *     @arg RCC_IT_LSERDY: LSE ready interrupt
 691:firmware/STM32F10x_StdPeriph_Lib_V3.3.0/Libraries/STM32F10x_StdPeriph_Driver/src/stm32f10x_rcc.c ****   *     @arg RCC_IT_HSIRDY: HSI ready interrupt
 692:firmware/STM32F10x_StdPeriph_Lib_V3.3.0/Libraries/STM32F10x_StdPeriph_Driver/src/stm32f10x_rcc.c ****   *     @arg RCC_IT_HSERDY: HSE ready interrupt
 693:firmware/STM32F10x_StdPeriph_Lib_V3.3.0/Libraries/STM32F10x_StdPeriph_Driver/src/stm32f10x_rcc.c ****   *     @arg RCC_IT_PLLRDY: PLL ready interrupt
 694:firmware/STM32F10x_StdPeriph_Lib_V3.3.0/Libraries/STM32F10x_StdPeriph_Driver/src/stm32f10x_rcc.c ****   *     @arg RCC_IT_PLL2RDY: PLL2 ready interrupt
 695:firmware/STM32F10x_StdPeriph_Lib_V3.3.0/Libraries/STM32F10x_StdPeriph_Driver/src/stm32f10x_rcc.c ****   *     @arg RCC_IT_PLL3RDY: PLL3 ready interrupt
 696:firmware/STM32F10x_StdPeriph_Lib_V3.3.0/Libraries/STM32F10x_StdPeriph_Driver/src/stm32f10x_rcc.c ****   * 
 697:firmware/STM32F10x_StdPeriph_Lib_V3.3.0/Libraries/STM32F10x_StdPeriph_Driver/src/stm32f10x_rcc.c ****   *   For @b other_STM32_devices, this parameter can be any combination of the 
 698:firmware/STM32F10x_StdPeriph_Lib_V3.3.0/Libraries/STM32F10x_StdPeriph_Driver/src/stm32f10x_rcc.c ****   *   following values        
 699:firmware/STM32F10x_StdPeriph_Lib_V3.3.0/Libraries/STM32F10x_StdPeriph_Driver/src/stm32f10x_rcc.c ****   *     @arg RCC_IT_LSIRDY: LSI ready interrupt
 700:firmware/STM32F10x_StdPeriph_Lib_V3.3.0/Libraries/STM32F10x_StdPeriph_Driver/src/stm32f10x_rcc.c ****   *     @arg RCC_IT_LSERDY: LSE ready interrupt
 701:firmware/STM32F10x_StdPeriph_Lib_V3.3.0/Libraries/STM32F10x_StdPeriph_Driver/src/stm32f10x_rcc.c ****   *     @arg RCC_IT_HSIRDY: HSI ready interrupt
 702:firmware/STM32F10x_StdPeriph_Lib_V3.3.0/Libraries/STM32F10x_StdPeriph_Driver/src/stm32f10x_rcc.c ****   *     @arg RCC_IT_HSERDY: HSE ready interrupt
 703:firmware/STM32F10x_StdPeriph_Lib_V3.3.0/Libraries/STM32F10x_StdPeriph_Driver/src/stm32f10x_rcc.c ****   *     @arg RCC_IT_PLLRDY: PLL ready interrupt
 704:firmware/STM32F10x_StdPeriph_Lib_V3.3.0/Libraries/STM32F10x_StdPeriph_Driver/src/stm32f10x_rcc.c ****   *       
 705:firmware/STM32F10x_StdPeriph_Lib_V3.3.0/Libraries/STM32F10x_StdPeriph_Driver/src/stm32f10x_rcc.c ****   * @param  NewState: new state of the specified RCC interrupts.
 706:firmware/STM32F10x_StdPeriph_Lib_V3.3.0/Libraries/STM32F10x_StdPeriph_Driver/src/stm32f10x_rcc.c ****   *   This parameter can be: ENABLE or DISABLE.
 707:firmware/STM32F10x_StdPeriph_Lib_V3.3.0/Libraries/STM32F10x_StdPeriph_Driver/src/stm32f10x_rcc.c ****   * @retval None
 708:firmware/STM32F10x_StdPeriph_Lib_V3.3.0/Libraries/STM32F10x_StdPeriph_Driver/src/stm32f10x_rcc.c ****   */
 709:firmware/STM32F10x_StdPeriph_Lib_V3.3.0/Libraries/STM32F10x_StdPeriph_Driver/src/stm32f10x_rcc.c **** void RCC_ITConfig(uint8_t RCC_IT, FunctionalState NewState)
 710:firmware/STM32F10x_StdPeriph_Lib_V3.3.0/Libraries/STM32F10x_StdPeriph_Driver/src/stm32f10x_rcc.c **** {
 423              		.loc 1 710 0
 424              		.cfi_startproc
 425              		@ args = 0, pretend = 0, frame = 0
 426              		@ frame_needed = 0, uses_anonymous_args = 0
 427              		@ link register save eliminated.
 428              	.LVL28:
 429 0000 044B     		ldr	r3, .L42
 711:firmware/STM32F10x_StdPeriph_Lib_V3.3.0/Libraries/STM32F10x_StdPeriph_Driver/src/stm32f10x_rcc.c ****   /* Check the parameters */
 712:firmware/STM32F10x_StdPeriph_Lib_V3.3.0/Libraries/STM32F10x_StdPeriph_Driver/src/stm32f10x_rcc.c ****   assert_param(IS_RCC_IT(RCC_IT));
 713:firmware/STM32F10x_StdPeriph_Lib_V3.3.0/Libraries/STM32F10x_StdPeriph_Driver/src/stm32f10x_rcc.c ****   assert_param(IS_FUNCTIONAL_STATE(NewState));
 714:firmware/STM32F10x_StdPeriph_Lib_V3.3.0/Libraries/STM32F10x_StdPeriph_Driver/src/stm32f10x_rcc.c ****   if (NewState != DISABLE)
 430              		.loc 1 714 0
 431 0002 11B1     		cbz	r1, .L39
 715:firmware/STM32F10x_StdPeriph_Lib_V3.3.0/Libraries/STM32F10x_StdPeriph_Driver/src/stm32f10x_rcc.c ****   {
 716:firmware/STM32F10x_StdPeriph_Lib_V3.3.0/Libraries/STM32F10x_StdPeriph_Driver/src/stm32f10x_rcc.c ****     /* Perform Byte access to RCC_CIR bits to enable the selected interrupts */
 717:firmware/STM32F10x_StdPeriph_Lib_V3.3.0/Libraries/STM32F10x_StdPeriph_Driver/src/stm32f10x_rcc.c ****     *(__IO uint8_t *) CIR_BYTE2_ADDRESS |= RCC_IT;
 432              		.loc 1 717 0
 433 0004 1A78     		ldrb	r2, [r3, #0]	@ zero_extendqisi2
 434 0006 1043     		orrs	r0, r0, r2
 435              	.LVL29:
 436 0008 02E0     		b	.L41
 437              	.LVL30:
 438              	.L39:
 718:firmware/STM32F10x_StdPeriph_Lib_V3.3.0/Libraries/STM32F10x_StdPeriph_Driver/src/stm32f10x_rcc.c ****   }
 719:firmware/STM32F10x_StdPeriph_Lib_V3.3.0/Libraries/STM32F10x_StdPeriph_Driver/src/stm32f10x_rcc.c ****   else
 720:firmware/STM32F10x_StdPeriph_Lib_V3.3.0/Libraries/STM32F10x_StdPeriph_Driver/src/stm32f10x_rcc.c ****   {
 721:firmware/STM32F10x_StdPeriph_Lib_V3.3.0/Libraries/STM32F10x_StdPeriph_Driver/src/stm32f10x_rcc.c ****     /* Perform Byte access to RCC_CIR bits to disable the selected interrupts */
 722:firmware/STM32F10x_StdPeriph_Lib_V3.3.0/Libraries/STM32F10x_StdPeriph_Driver/src/stm32f10x_rcc.c ****     *(__IO uint8_t *) CIR_BYTE2_ADDRESS &= (uint8_t)~RCC_IT;
 439              		.loc 1 722 0
 440 000a 1A78     		ldrb	r2, [r3, #0]	@ zero_extendqisi2
 441 000c 22EA0000 		bic	r0, r2, r0
 442              	.LVL31:
 443              	.L41:
 444 0010 1870     		strb	r0, [r3, #0]
 445 0012 7047     		bx	lr
 446              	.L43:
 447              		.align	2
 448              	.L42:
 449 0014 09100240 		.word	1073877001
 450              		.cfi_endproc
 451              	.LFE41:
 453              		.section	.text.RCC_USBCLKConfig,"ax",%progbits
 454              		.align	1
 455              		.global	RCC_USBCLKConfig
 456              		.thumb
 457              		.thumb_func
 459              	RCC_USBCLKConfig:
 460              	.LFB42:
 723:firmware/STM32F10x_StdPeriph_Lib_V3.3.0/Libraries/STM32F10x_StdPeriph_Driver/src/stm32f10x_rcc.c ****   }
 724:firmware/STM32F10x_StdPeriph_Lib_V3.3.0/Libraries/STM32F10x_StdPeriph_Driver/src/stm32f10x_rcc.c **** }
 725:firmware/STM32F10x_StdPeriph_Lib_V3.3.0/Libraries/STM32F10x_StdPeriph_Driver/src/stm32f10x_rcc.c **** 
 726:firmware/STM32F10x_StdPeriph_Lib_V3.3.0/Libraries/STM32F10x_StdPeriph_Driver/src/stm32f10x_rcc.c **** #ifndef STM32F10X_CL
 727:firmware/STM32F10x_StdPeriph_Lib_V3.3.0/Libraries/STM32F10x_StdPeriph_Driver/src/stm32f10x_rcc.c **** /**
 728:firmware/STM32F10x_StdPeriph_Lib_V3.3.0/Libraries/STM32F10x_StdPeriph_Driver/src/stm32f10x_rcc.c ****   * @brief  Configures the USB clock (USBCLK).
 729:firmware/STM32F10x_StdPeriph_Lib_V3.3.0/Libraries/STM32F10x_StdPeriph_Driver/src/stm32f10x_rcc.c ****   * @param  RCC_USBCLKSource: specifies the USB clock source. This clock is 
 730:firmware/STM32F10x_StdPeriph_Lib_V3.3.0/Libraries/STM32F10x_StdPeriph_Driver/src/stm32f10x_rcc.c ****   *   derived from the PLL output.
 731:firmware/STM32F10x_StdPeriph_Lib_V3.3.0/Libraries/STM32F10x_StdPeriph_Driver/src/stm32f10x_rcc.c ****   *   This parameter can be one of the following values:
 732:firmware/STM32F10x_StdPeriph_Lib_V3.3.0/Libraries/STM32F10x_StdPeriph_Driver/src/stm32f10x_rcc.c ****   *     @arg RCC_USBCLKSource_PLLCLK_1Div5: PLL clock divided by 1,5 selected as USB 
 733:firmware/STM32F10x_StdPeriph_Lib_V3.3.0/Libraries/STM32F10x_StdPeriph_Driver/src/stm32f10x_rcc.c ****   *                                     clock source
 734:firmware/STM32F10x_StdPeriph_Lib_V3.3.0/Libraries/STM32F10x_StdPeriph_Driver/src/stm32f10x_rcc.c ****   *     @arg RCC_USBCLKSource_PLLCLK_Div1: PLL clock selected as USB clock source
 735:firmware/STM32F10x_StdPeriph_Lib_V3.3.0/Libraries/STM32F10x_StdPeriph_Driver/src/stm32f10x_rcc.c ****   * @retval None
 736:firmware/STM32F10x_StdPeriph_Lib_V3.3.0/Libraries/STM32F10x_StdPeriph_Driver/src/stm32f10x_rcc.c ****   */
 737:firmware/STM32F10x_StdPeriph_Lib_V3.3.0/Libraries/STM32F10x_StdPeriph_Driver/src/stm32f10x_rcc.c **** void RCC_USBCLKConfig(uint32_t RCC_USBCLKSource)
 738:firmware/STM32F10x_StdPeriph_Lib_V3.3.0/Libraries/STM32F10x_StdPeriph_Driver/src/stm32f10x_rcc.c **** {
 461              		.loc 1 738 0
 462              		.cfi_startproc
 463              		@ args = 0, pretend = 0, frame = 0
 464              		@ frame_needed = 0, uses_anonymous_args = 0
 465              		@ link register save eliminated.
 466              	.LVL32:
 739:firmware/STM32F10x_StdPeriph_Lib_V3.3.0/Libraries/STM32F10x_StdPeriph_Driver/src/stm32f10x_rcc.c ****   /* Check the parameters */
 740:firmware/STM32F10x_StdPeriph_Lib_V3.3.0/Libraries/STM32F10x_StdPeriph_Driver/src/stm32f10x_rcc.c ****   assert_param(IS_RCC_USBCLK_SOURCE(RCC_USBCLKSource));
 741:firmware/STM32F10x_StdPeriph_Lib_V3.3.0/Libraries/STM32F10x_StdPeriph_Driver/src/stm32f10x_rcc.c **** 
 742:firmware/STM32F10x_StdPeriph_Lib_V3.3.0/Libraries/STM32F10x_StdPeriph_Driver/src/stm32f10x_rcc.c ****   *(__IO uint32_t *) CFGR_USBPRE_BB = RCC_USBCLKSource;
 467              		.loc 1 742 0
 468 0000 014B     		ldr	r3, .L45
 469 0002 1860     		str	r0, [r3, #0]
 743:firmware/STM32F10x_StdPeriph_Lib_V3.3.0/Libraries/STM32F10x_StdPeriph_Driver/src/stm32f10x_rcc.c **** }
 470              		.loc 1 743 0
 471 0004 7047     		bx	lr
 472              	.L46:
 473 0006 00BF     		.align	2
 474              	.L45:
 475 0008 D8004242 		.word	1111621848
 476              		.cfi_endproc
 477              	.LFE42:
 479              		.section	.text.RCC_ADCCLKConfig,"ax",%progbits
 480              		.align	1
 481              		.global	RCC_ADCCLKConfig
 482              		.thumb
 483              		.thumb_func
 485              	RCC_ADCCLKConfig:
 486              	.LFB43:
 744:firmware/STM32F10x_StdPeriph_Lib_V3.3.0/Libraries/STM32F10x_StdPeriph_Driver/src/stm32f10x_rcc.c **** #else
 745:firmware/STM32F10x_StdPeriph_Lib_V3.3.0/Libraries/STM32F10x_StdPeriph_Driver/src/stm32f10x_rcc.c **** /**
 746:firmware/STM32F10x_StdPeriph_Lib_V3.3.0/Libraries/STM32F10x_StdPeriph_Driver/src/stm32f10x_rcc.c ****   * @brief  Configures the USB OTG FS clock (OTGFSCLK).
 747:firmware/STM32F10x_StdPeriph_Lib_V3.3.0/Libraries/STM32F10x_StdPeriph_Driver/src/stm32f10x_rcc.c ****   *   This function applies only to STM32 Connectivity line devices.
 748:firmware/STM32F10x_StdPeriph_Lib_V3.3.0/Libraries/STM32F10x_StdPeriph_Driver/src/stm32f10x_rcc.c ****   * @param  RCC_OTGFSCLKSource: specifies the USB OTG FS clock source.
 749:firmware/STM32F10x_StdPeriph_Lib_V3.3.0/Libraries/STM32F10x_StdPeriph_Driver/src/stm32f10x_rcc.c ****   *   This clock is derived from the PLL output.
 750:firmware/STM32F10x_StdPeriph_Lib_V3.3.0/Libraries/STM32F10x_StdPeriph_Driver/src/stm32f10x_rcc.c ****   *   This parameter can be one of the following values:
 751:firmware/STM32F10x_StdPeriph_Lib_V3.3.0/Libraries/STM32F10x_StdPeriph_Driver/src/stm32f10x_rcc.c ****   *     @arg  RCC_OTGFSCLKSource_PLLVCO_Div3: PLL VCO clock divided by 2 selected as USB OTG FS clo
 752:firmware/STM32F10x_StdPeriph_Lib_V3.3.0/Libraries/STM32F10x_StdPeriph_Driver/src/stm32f10x_rcc.c ****   *     @arg  RCC_OTGFSCLKSource_PLLVCO_Div2: PLL VCO clock divided by 2 selected as USB OTG FS clo
 753:firmware/STM32F10x_StdPeriph_Lib_V3.3.0/Libraries/STM32F10x_StdPeriph_Driver/src/stm32f10x_rcc.c ****   * @retval None
 754:firmware/STM32F10x_StdPeriph_Lib_V3.3.0/Libraries/STM32F10x_StdPeriph_Driver/src/stm32f10x_rcc.c ****   */
 755:firmware/STM32F10x_StdPeriph_Lib_V3.3.0/Libraries/STM32F10x_StdPeriph_Driver/src/stm32f10x_rcc.c **** void RCC_OTGFSCLKConfig(uint32_t RCC_OTGFSCLKSource)
 756:firmware/STM32F10x_StdPeriph_Lib_V3.3.0/Libraries/STM32F10x_StdPeriph_Driver/src/stm32f10x_rcc.c **** {
 757:firmware/STM32F10x_StdPeriph_Lib_V3.3.0/Libraries/STM32F10x_StdPeriph_Driver/src/stm32f10x_rcc.c ****   /* Check the parameters */
 758:firmware/STM32F10x_StdPeriph_Lib_V3.3.0/Libraries/STM32F10x_StdPeriph_Driver/src/stm32f10x_rcc.c ****   assert_param(IS_RCC_OTGFSCLK_SOURCE(RCC_OTGFSCLKSource));
 759:firmware/STM32F10x_StdPeriph_Lib_V3.3.0/Libraries/STM32F10x_StdPeriph_Driver/src/stm32f10x_rcc.c **** 
 760:firmware/STM32F10x_StdPeriph_Lib_V3.3.0/Libraries/STM32F10x_StdPeriph_Driver/src/stm32f10x_rcc.c ****   *(__IO uint32_t *) CFGR_OTGFSPRE_BB = RCC_OTGFSCLKSource;
 761:firmware/STM32F10x_StdPeriph_Lib_V3.3.0/Libraries/STM32F10x_StdPeriph_Driver/src/stm32f10x_rcc.c **** }
 762:firmware/STM32F10x_StdPeriph_Lib_V3.3.0/Libraries/STM32F10x_StdPeriph_Driver/src/stm32f10x_rcc.c **** #endif /* STM32F10X_CL */ 
 763:firmware/STM32F10x_StdPeriph_Lib_V3.3.0/Libraries/STM32F10x_StdPeriph_Driver/src/stm32f10x_rcc.c **** 
 764:firmware/STM32F10x_StdPeriph_Lib_V3.3.0/Libraries/STM32F10x_StdPeriph_Driver/src/stm32f10x_rcc.c **** /**
 765:firmware/STM32F10x_StdPeriph_Lib_V3.3.0/Libraries/STM32F10x_StdPeriph_Driver/src/stm32f10x_rcc.c ****   * @brief  Configures the ADC clock (ADCCLK).
 766:firmware/STM32F10x_StdPeriph_Lib_V3.3.0/Libraries/STM32F10x_StdPeriph_Driver/src/stm32f10x_rcc.c ****   * @param  RCC_PCLK2: defines the ADC clock divider. This clock is derived from 
 767:firmware/STM32F10x_StdPeriph_Lib_V3.3.0/Libraries/STM32F10x_StdPeriph_Driver/src/stm32f10x_rcc.c ****   *   the APB2 clock (PCLK2).
 768:firmware/STM32F10x_StdPeriph_Lib_V3.3.0/Libraries/STM32F10x_StdPeriph_Driver/src/stm32f10x_rcc.c ****   *   This parameter can be one of the following values:
 769:firmware/STM32F10x_StdPeriph_Lib_V3.3.0/Libraries/STM32F10x_StdPeriph_Driver/src/stm32f10x_rcc.c ****   *     @arg RCC_PCLK2_Div2: ADC clock = PCLK2/2
 770:firmware/STM32F10x_StdPeriph_Lib_V3.3.0/Libraries/STM32F10x_StdPeriph_Driver/src/stm32f10x_rcc.c ****   *     @arg RCC_PCLK2_Div4: ADC clock = PCLK2/4
 771:firmware/STM32F10x_StdPeriph_Lib_V3.3.0/Libraries/STM32F10x_StdPeriph_Driver/src/stm32f10x_rcc.c ****   *     @arg RCC_PCLK2_Div6: ADC clock = PCLK2/6
 772:firmware/STM32F10x_StdPeriph_Lib_V3.3.0/Libraries/STM32F10x_StdPeriph_Driver/src/stm32f10x_rcc.c ****   *     @arg RCC_PCLK2_Div8: ADC clock = PCLK2/8
 773:firmware/STM32F10x_StdPeriph_Lib_V3.3.0/Libraries/STM32F10x_StdPeriph_Driver/src/stm32f10x_rcc.c ****   * @retval None
 774:firmware/STM32F10x_StdPeriph_Lib_V3.3.0/Libraries/STM32F10x_StdPeriph_Driver/src/stm32f10x_rcc.c ****   */
 775:firmware/STM32F10x_StdPeriph_Lib_V3.3.0/Libraries/STM32F10x_StdPeriph_Driver/src/stm32f10x_rcc.c **** void RCC_ADCCLKConfig(uint32_t RCC_PCLK2)
 776:firmware/STM32F10x_StdPeriph_Lib_V3.3.0/Libraries/STM32F10x_StdPeriph_Driver/src/stm32f10x_rcc.c **** {
 487              		.loc 1 776 0
 488              		.cfi_startproc
 489              		@ args = 0, pretend = 0, frame = 0
 490              		@ frame_needed = 0, uses_anonymous_args = 0
 491              		@ link register save eliminated.
 492              	.LVL33:
 777:firmware/STM32F10x_StdPeriph_Lib_V3.3.0/Libraries/STM32F10x_StdPeriph_Driver/src/stm32f10x_rcc.c ****   uint32_t tmpreg = 0;
 778:firmware/STM32F10x_StdPeriph_Lib_V3.3.0/Libraries/STM32F10x_StdPeriph_Driver/src/stm32f10x_rcc.c ****   /* Check the parameters */
 779:firmware/STM32F10x_StdPeriph_Lib_V3.3.0/Libraries/STM32F10x_StdPeriph_Driver/src/stm32f10x_rcc.c ****   assert_param(IS_RCC_ADCCLK(RCC_PCLK2));
 780:firmware/STM32F10x_StdPeriph_Lib_V3.3.0/Libraries/STM32F10x_StdPeriph_Driver/src/stm32f10x_rcc.c ****   tmpreg = RCC->CFGR;
 493              		.loc 1 780 0
 494 0000 034B     		ldr	r3, .L48
 495 0002 5A68     		ldr	r2, [r3, #4]
 496              	.LVL34:
 781:firmware/STM32F10x_StdPeriph_Lib_V3.3.0/Libraries/STM32F10x_StdPeriph_Driver/src/stm32f10x_rcc.c ****   /* Clear ADCPRE[1:0] bits */
 782:firmware/STM32F10x_StdPeriph_Lib_V3.3.0/Libraries/STM32F10x_StdPeriph_Driver/src/stm32f10x_rcc.c ****   tmpreg &= CFGR_ADCPRE_Reset_Mask;
 497              		.loc 1 782 0
 498 0004 22F44042 		bic	r2, r2, #49152
 499              	.LVL35:
 783:firmware/STM32F10x_StdPeriph_Lib_V3.3.0/Libraries/STM32F10x_StdPeriph_Driver/src/stm32f10x_rcc.c ****   /* Set ADCPRE[1:0] bits according to RCC_PCLK2 value */
 784:firmware/STM32F10x_StdPeriph_Lib_V3.3.0/Libraries/STM32F10x_StdPeriph_Driver/src/stm32f10x_rcc.c ****   tmpreg |= RCC_PCLK2;
 500              		.loc 1 784 0
 501 0008 40EA0202 		orr	r2, r0, r2
 502              	.LVL36:
 785:firmware/STM32F10x_StdPeriph_Lib_V3.3.0/Libraries/STM32F10x_StdPeriph_Driver/src/stm32f10x_rcc.c ****   /* Store the new value */
 786:firmware/STM32F10x_StdPeriph_Lib_V3.3.0/Libraries/STM32F10x_StdPeriph_Driver/src/stm32f10x_rcc.c ****   RCC->CFGR = tmpreg;
 503              		.loc 1 786 0
 504 000c 5A60     		str	r2, [r3, #4]
 787:firmware/STM32F10x_StdPeriph_Lib_V3.3.0/Libraries/STM32F10x_StdPeriph_Driver/src/stm32f10x_rcc.c **** }
 505              		.loc 1 787 0
 506 000e 7047     		bx	lr
 507              	.L49:
 508              		.align	2
 509              	.L48:
 510 0010 00100240 		.word	1073876992
 511              		.cfi_endproc
 512              	.LFE43:
 514              		.section	.text.RCC_LSEConfig,"ax",%progbits
 515              		.align	1
 516              		.global	RCC_LSEConfig
 517              		.thumb
 518              		.thumb_func
 520              	RCC_LSEConfig:
 521              	.LFB44:
 788:firmware/STM32F10x_StdPeriph_Lib_V3.3.0/Libraries/STM32F10x_StdPeriph_Driver/src/stm32f10x_rcc.c **** 
 789:firmware/STM32F10x_StdPeriph_Lib_V3.3.0/Libraries/STM32F10x_StdPeriph_Driver/src/stm32f10x_rcc.c **** #ifdef STM32F10X_CL
 790:firmware/STM32F10x_StdPeriph_Lib_V3.3.0/Libraries/STM32F10x_StdPeriph_Driver/src/stm32f10x_rcc.c **** /**
 791:firmware/STM32F10x_StdPeriph_Lib_V3.3.0/Libraries/STM32F10x_StdPeriph_Driver/src/stm32f10x_rcc.c ****   * @brief  Configures the I2S2 clock source(I2S2CLK).
 792:firmware/STM32F10x_StdPeriph_Lib_V3.3.0/Libraries/STM32F10x_StdPeriph_Driver/src/stm32f10x_rcc.c ****   * @note
 793:firmware/STM32F10x_StdPeriph_Lib_V3.3.0/Libraries/STM32F10x_StdPeriph_Driver/src/stm32f10x_rcc.c ****   *   - This function must be called before enabling I2S2 APB clock.
 794:firmware/STM32F10x_StdPeriph_Lib_V3.3.0/Libraries/STM32F10x_StdPeriph_Driver/src/stm32f10x_rcc.c ****   *   - This function applies only to STM32 Connectivity line devices.
 795:firmware/STM32F10x_StdPeriph_Lib_V3.3.0/Libraries/STM32F10x_StdPeriph_Driver/src/stm32f10x_rcc.c ****   * @param  RCC_I2S2CLKSource: specifies the I2S2 clock source.
 796:firmware/STM32F10x_StdPeriph_Lib_V3.3.0/Libraries/STM32F10x_StdPeriph_Driver/src/stm32f10x_rcc.c ****   *   This parameter can be one of the following values:
 797:firmware/STM32F10x_StdPeriph_Lib_V3.3.0/Libraries/STM32F10x_StdPeriph_Driver/src/stm32f10x_rcc.c ****   *     @arg RCC_I2S2CLKSource_SYSCLK: system clock selected as I2S2 clock entry
 798:firmware/STM32F10x_StdPeriph_Lib_V3.3.0/Libraries/STM32F10x_StdPeriph_Driver/src/stm32f10x_rcc.c ****   *     @arg RCC_I2S2CLKSource_PLL3_VCO: PLL3 VCO clock selected as I2S2 clock entry
 799:firmware/STM32F10x_StdPeriph_Lib_V3.3.0/Libraries/STM32F10x_StdPeriph_Driver/src/stm32f10x_rcc.c ****   * @retval None
 800:firmware/STM32F10x_StdPeriph_Lib_V3.3.0/Libraries/STM32F10x_StdPeriph_Driver/src/stm32f10x_rcc.c ****   */
 801:firmware/STM32F10x_StdPeriph_Lib_V3.3.0/Libraries/STM32F10x_StdPeriph_Driver/src/stm32f10x_rcc.c **** void RCC_I2S2CLKConfig(uint32_t RCC_I2S2CLKSource)
 802:firmware/STM32F10x_StdPeriph_Lib_V3.3.0/Libraries/STM32F10x_StdPeriph_Driver/src/stm32f10x_rcc.c **** {
 803:firmware/STM32F10x_StdPeriph_Lib_V3.3.0/Libraries/STM32F10x_StdPeriph_Driver/src/stm32f10x_rcc.c ****   /* Check the parameters */
 804:firmware/STM32F10x_StdPeriph_Lib_V3.3.0/Libraries/STM32F10x_StdPeriph_Driver/src/stm32f10x_rcc.c ****   assert_param(IS_RCC_I2S2CLK_SOURCE(RCC_I2S2CLKSource));
 805:firmware/STM32F10x_StdPeriph_Lib_V3.3.0/Libraries/STM32F10x_StdPeriph_Driver/src/stm32f10x_rcc.c **** 
 806:firmware/STM32F10x_StdPeriph_Lib_V3.3.0/Libraries/STM32F10x_StdPeriph_Driver/src/stm32f10x_rcc.c ****   *(__IO uint32_t *) CFGR2_I2S2SRC_BB = RCC_I2S2CLKSource;
 807:firmware/STM32F10x_StdPeriph_Lib_V3.3.0/Libraries/STM32F10x_StdPeriph_Driver/src/stm32f10x_rcc.c **** }
 808:firmware/STM32F10x_StdPeriph_Lib_V3.3.0/Libraries/STM32F10x_StdPeriph_Driver/src/stm32f10x_rcc.c **** 
 809:firmware/STM32F10x_StdPeriph_Lib_V3.3.0/Libraries/STM32F10x_StdPeriph_Driver/src/stm32f10x_rcc.c **** /**
 810:firmware/STM32F10x_StdPeriph_Lib_V3.3.0/Libraries/STM32F10x_StdPeriph_Driver/src/stm32f10x_rcc.c ****   * @brief  Configures the I2S3 clock source(I2S2CLK).
 811:firmware/STM32F10x_StdPeriph_Lib_V3.3.0/Libraries/STM32F10x_StdPeriph_Driver/src/stm32f10x_rcc.c ****   * @note
 812:firmware/STM32F10x_StdPeriph_Lib_V3.3.0/Libraries/STM32F10x_StdPeriph_Driver/src/stm32f10x_rcc.c ****   *   - This function must be called before enabling I2S3 APB clock.
 813:firmware/STM32F10x_StdPeriph_Lib_V3.3.0/Libraries/STM32F10x_StdPeriph_Driver/src/stm32f10x_rcc.c ****   *   - This function applies only to STM32 Connectivity line devices.
 814:firmware/STM32F10x_StdPeriph_Lib_V3.3.0/Libraries/STM32F10x_StdPeriph_Driver/src/stm32f10x_rcc.c ****   * @param  RCC_I2S3CLKSource: specifies the I2S3 clock source.
 815:firmware/STM32F10x_StdPeriph_Lib_V3.3.0/Libraries/STM32F10x_StdPeriph_Driver/src/stm32f10x_rcc.c ****   *   This parameter can be one of the following values:
 816:firmware/STM32F10x_StdPeriph_Lib_V3.3.0/Libraries/STM32F10x_StdPeriph_Driver/src/stm32f10x_rcc.c ****   *     @arg RCC_I2S3CLKSource_SYSCLK: system clock selected as I2S3 clock entry
 817:firmware/STM32F10x_StdPeriph_Lib_V3.3.0/Libraries/STM32F10x_StdPeriph_Driver/src/stm32f10x_rcc.c ****   *     @arg RCC_I2S3CLKSource_PLL3_VCO: PLL3 VCO clock selected as I2S3 clock entry
 818:firmware/STM32F10x_StdPeriph_Lib_V3.3.0/Libraries/STM32F10x_StdPeriph_Driver/src/stm32f10x_rcc.c ****   * @retval None
 819:firmware/STM32F10x_StdPeriph_Lib_V3.3.0/Libraries/STM32F10x_StdPeriph_Driver/src/stm32f10x_rcc.c ****   */
 820:firmware/STM32F10x_StdPeriph_Lib_V3.3.0/Libraries/STM32F10x_StdPeriph_Driver/src/stm32f10x_rcc.c **** void RCC_I2S3CLKConfig(uint32_t RCC_I2S3CLKSource)
 821:firmware/STM32F10x_StdPeriph_Lib_V3.3.0/Libraries/STM32F10x_StdPeriph_Driver/src/stm32f10x_rcc.c **** {
 822:firmware/STM32F10x_StdPeriph_Lib_V3.3.0/Libraries/STM32F10x_StdPeriph_Driver/src/stm32f10x_rcc.c ****   /* Check the parameters */
 823:firmware/STM32F10x_StdPeriph_Lib_V3.3.0/Libraries/STM32F10x_StdPeriph_Driver/src/stm32f10x_rcc.c ****   assert_param(IS_RCC_I2S3CLK_SOURCE(RCC_I2S3CLKSource));
 824:firmware/STM32F10x_StdPeriph_Lib_V3.3.0/Libraries/STM32F10x_StdPeriph_Driver/src/stm32f10x_rcc.c **** 
 825:firmware/STM32F10x_StdPeriph_Lib_V3.3.0/Libraries/STM32F10x_StdPeriph_Driver/src/stm32f10x_rcc.c ****   *(__IO uint32_t *) CFGR2_I2S3SRC_BB = RCC_I2S3CLKSource;
 826:firmware/STM32F10x_StdPeriph_Lib_V3.3.0/Libraries/STM32F10x_StdPeriph_Driver/src/stm32f10x_rcc.c **** }
 827:firmware/STM32F10x_StdPeriph_Lib_V3.3.0/Libraries/STM32F10x_StdPeriph_Driver/src/stm32f10x_rcc.c **** #endif /* STM32F10X_CL */
 828:firmware/STM32F10x_StdPeriph_Lib_V3.3.0/Libraries/STM32F10x_StdPeriph_Driver/src/stm32f10x_rcc.c **** 
 829:firmware/STM32F10x_StdPeriph_Lib_V3.3.0/Libraries/STM32F10x_StdPeriph_Driver/src/stm32f10x_rcc.c **** /**
 830:firmware/STM32F10x_StdPeriph_Lib_V3.3.0/Libraries/STM32F10x_StdPeriph_Driver/src/stm32f10x_rcc.c ****   * @brief  Configures the External Low Speed oscillator (LSE).
 831:firmware/STM32F10x_StdPeriph_Lib_V3.3.0/Libraries/STM32F10x_StdPeriph_Driver/src/stm32f10x_rcc.c ****   * @param  RCC_LSE: specifies the new state of the LSE.
 832:firmware/STM32F10x_StdPeriph_Lib_V3.3.0/Libraries/STM32F10x_StdPeriph_Driver/src/stm32f10x_rcc.c ****   *   This parameter can be one of the following values:
 833:firmware/STM32F10x_StdPeriph_Lib_V3.3.0/Libraries/STM32F10x_StdPeriph_Driver/src/stm32f10x_rcc.c ****   *     @arg RCC_LSE_OFF: LSE oscillator OFF
 834:firmware/STM32F10x_StdPeriph_Lib_V3.3.0/Libraries/STM32F10x_StdPeriph_Driver/src/stm32f10x_rcc.c ****   *     @arg RCC_LSE_ON: LSE oscillator ON
 835:firmware/STM32F10x_StdPeriph_Lib_V3.3.0/Libraries/STM32F10x_StdPeriph_Driver/src/stm32f10x_rcc.c ****   *     @arg RCC_LSE_Bypass: LSE oscillator bypassed with external clock
 836:firmware/STM32F10x_StdPeriph_Lib_V3.3.0/Libraries/STM32F10x_StdPeriph_Driver/src/stm32f10x_rcc.c ****   * @retval None
 837:firmware/STM32F10x_StdPeriph_Lib_V3.3.0/Libraries/STM32F10x_StdPeriph_Driver/src/stm32f10x_rcc.c ****   */
 838:firmware/STM32F10x_StdPeriph_Lib_V3.3.0/Libraries/STM32F10x_StdPeriph_Driver/src/stm32f10x_rcc.c **** void RCC_LSEConfig(uint8_t RCC_LSE)
 839:firmware/STM32F10x_StdPeriph_Lib_V3.3.0/Libraries/STM32F10x_StdPeriph_Driver/src/stm32f10x_rcc.c **** {
 522              		.loc 1 839 0
 523              		.cfi_startproc
 524              		@ args = 0, pretend = 0, frame = 0
 525              		@ frame_needed = 0, uses_anonymous_args = 0
 526              		@ link register save eliminated.
 527              	.LVL37:
 840:firmware/STM32F10x_StdPeriph_Lib_V3.3.0/Libraries/STM32F10x_StdPeriph_Driver/src/stm32f10x_rcc.c ****   /* Check the parameters */
 841:firmware/STM32F10x_StdPeriph_Lib_V3.3.0/Libraries/STM32F10x_StdPeriph_Driver/src/stm32f10x_rcc.c ****   assert_param(IS_RCC_LSE(RCC_LSE));
 842:firmware/STM32F10x_StdPeriph_Lib_V3.3.0/Libraries/STM32F10x_StdPeriph_Driver/src/stm32f10x_rcc.c ****   /* Reset LSEON and LSEBYP bits before configuring the LSE ------------------*/
 843:firmware/STM32F10x_StdPeriph_Lib_V3.3.0/Libraries/STM32F10x_StdPeriph_Driver/src/stm32f10x_rcc.c ****   /* Reset LSEON bit */
 844:firmware/STM32F10x_StdPeriph_Lib_V3.3.0/Libraries/STM32F10x_StdPeriph_Driver/src/stm32f10x_rcc.c ****   *(__IO uint8_t *) BDCR_ADDRESS = RCC_LSE_OFF;
 528              		.loc 1 844 0
 529 0000 064B     		ldr	r3, .L55
 530 0002 0022     		movs	r2, #0
 845:firmware/STM32F10x_StdPeriph_Lib_V3.3.0/Libraries/STM32F10x_StdPeriph_Driver/src/stm32f10x_rcc.c ****   /* Reset LSEBYP bit */
 846:firmware/STM32F10x_StdPeriph_Lib_V3.3.0/Libraries/STM32F10x_StdPeriph_Driver/src/stm32f10x_rcc.c ****   *(__IO uint8_t *) BDCR_ADDRESS = RCC_LSE_OFF;
 847:firmware/STM32F10x_StdPeriph_Lib_V3.3.0/Libraries/STM32F10x_StdPeriph_Driver/src/stm32f10x_rcc.c ****   /* Configure LSE (RCC_LSE_OFF is already covered by the code section above) */
 848:firmware/STM32F10x_StdPeriph_Lib_V3.3.0/Libraries/STM32F10x_StdPeriph_Driver/src/stm32f10x_rcc.c ****   switch(RCC_LSE)
 531              		.loc 1 848 0
 532 0004 0128     		cmp	r0, #1
 844:firmware/STM32F10x_StdPeriph_Lib_V3.3.0/Libraries/STM32F10x_StdPeriph_Driver/src/stm32f10x_rcc.c ****   *(__IO uint8_t *) BDCR_ADDRESS = RCC_LSE_OFF;
 533              		.loc 1 844 0
 534 0006 1A70     		strb	r2, [r3, #0]
 846:firmware/STM32F10x_StdPeriph_Lib_V3.3.0/Libraries/STM32F10x_StdPeriph_Driver/src/stm32f10x_rcc.c ****   *(__IO uint8_t *) BDCR_ADDRESS = RCC_LSE_OFF;
 535              		.loc 1 846 0
 536 0008 1A70     		strb	r2, [r3, #0]
 537              		.loc 1 848 0
 538 000a 02D0     		beq	.L52
 539 000c 0428     		cmp	r0, #4
 540 000e 04D1     		bne	.L50
 541 0010 01E0     		b	.L54
 542              	.L52:
 849:firmware/STM32F10x_StdPeriph_Lib_V3.3.0/Libraries/STM32F10x_StdPeriph_Driver/src/stm32f10x_rcc.c ****   {
 850:firmware/STM32F10x_StdPeriph_Lib_V3.3.0/Libraries/STM32F10x_StdPeriph_Driver/src/stm32f10x_rcc.c ****     case RCC_LSE_ON:
 851:firmware/STM32F10x_StdPeriph_Lib_V3.3.0/Libraries/STM32F10x_StdPeriph_Driver/src/stm32f10x_rcc.c ****       /* Set LSEON bit */
 852:firmware/STM32F10x_StdPeriph_Lib_V3.3.0/Libraries/STM32F10x_StdPeriph_Driver/src/stm32f10x_rcc.c ****       *(__IO uint8_t *) BDCR_ADDRESS = RCC_LSE_ON;
 543              		.loc 1 852 0
 544 0012 1870     		strb	r0, [r3, #0]
 853:firmware/STM32F10x_StdPeriph_Lib_V3.3.0/Libraries/STM32F10x_StdPeriph_Driver/src/stm32f10x_rcc.c ****       break;
 545              		.loc 1 853 0
 546 0014 7047     		bx	lr
 547              	.L54:
 854:firmware/STM32F10x_StdPeriph_Lib_V3.3.0/Libraries/STM32F10x_StdPeriph_Driver/src/stm32f10x_rcc.c ****       
 855:firmware/STM32F10x_StdPeriph_Lib_V3.3.0/Libraries/STM32F10x_StdPeriph_Driver/src/stm32f10x_rcc.c ****     case RCC_LSE_Bypass:
 856:firmware/STM32F10x_StdPeriph_Lib_V3.3.0/Libraries/STM32F10x_StdPeriph_Driver/src/stm32f10x_rcc.c ****       /* Set LSEBYP and LSEON bits */
 857:firmware/STM32F10x_StdPeriph_Lib_V3.3.0/Libraries/STM32F10x_StdPeriph_Driver/src/stm32f10x_rcc.c ****       *(__IO uint8_t *) BDCR_ADDRESS = RCC_LSE_Bypass | RCC_LSE_ON;
 548              		.loc 1 857 0
 549 0016 0522     		movs	r2, #5
 550 0018 1A70     		strb	r2, [r3, #0]
 551              	.L50:
 552 001a 7047     		bx	lr
 553              	.L56:
 554              		.align	2
 555              	.L55:
 556 001c 20100240 		.word	1073877024
 557              		.cfi_endproc
 558              	.LFE44:
 560              		.section	.text.RCC_LSICmd,"ax",%progbits
 561              		.align	1
 562              		.global	RCC_LSICmd
 563              		.thumb
 564              		.thumb_func
 566              	RCC_LSICmd:
 567              	.LFB45:
 858:firmware/STM32F10x_StdPeriph_Lib_V3.3.0/Libraries/STM32F10x_StdPeriph_Driver/src/stm32f10x_rcc.c ****       break;            
 859:firmware/STM32F10x_StdPeriph_Lib_V3.3.0/Libraries/STM32F10x_StdPeriph_Driver/src/stm32f10x_rcc.c ****       
 860:firmware/STM32F10x_StdPeriph_Lib_V3.3.0/Libraries/STM32F10x_StdPeriph_Driver/src/stm32f10x_rcc.c ****     default:
 861:firmware/STM32F10x_StdPeriph_Lib_V3.3.0/Libraries/STM32F10x_StdPeriph_Driver/src/stm32f10x_rcc.c ****       break;      
 862:firmware/STM32F10x_StdPeriph_Lib_V3.3.0/Libraries/STM32F10x_StdPeriph_Driver/src/stm32f10x_rcc.c ****   }
 863:firmware/STM32F10x_StdPeriph_Lib_V3.3.0/Libraries/STM32F10x_StdPeriph_Driver/src/stm32f10x_rcc.c **** }
 864:firmware/STM32F10x_StdPeriph_Lib_V3.3.0/Libraries/STM32F10x_StdPeriph_Driver/src/stm32f10x_rcc.c **** 
 865:firmware/STM32F10x_StdPeriph_Lib_V3.3.0/Libraries/STM32F10x_StdPeriph_Driver/src/stm32f10x_rcc.c **** /**
 866:firmware/STM32F10x_StdPeriph_Lib_V3.3.0/Libraries/STM32F10x_StdPeriph_Driver/src/stm32f10x_rcc.c ****   * @brief  Enables or disables the Internal Low Speed oscillator (LSI).
 867:firmware/STM32F10x_StdPeriph_Lib_V3.3.0/Libraries/STM32F10x_StdPeriph_Driver/src/stm32f10x_rcc.c ****   * @note   LSI can not be disabled if the IWDG is running.
 868:firmware/STM32F10x_StdPeriph_Lib_V3.3.0/Libraries/STM32F10x_StdPeriph_Driver/src/stm32f10x_rcc.c ****   * @param  NewState: new state of the LSI. This parameter can be: ENABLE or DISABLE.
 869:firmware/STM32F10x_StdPeriph_Lib_V3.3.0/Libraries/STM32F10x_StdPeriph_Driver/src/stm32f10x_rcc.c ****   * @retval None
 870:firmware/STM32F10x_StdPeriph_Lib_V3.3.0/Libraries/STM32F10x_StdPeriph_Driver/src/stm32f10x_rcc.c ****   */
 871:firmware/STM32F10x_StdPeriph_Lib_V3.3.0/Libraries/STM32F10x_StdPeriph_Driver/src/stm32f10x_rcc.c **** void RCC_LSICmd(FunctionalState NewState)
 872:firmware/STM32F10x_StdPeriph_Lib_V3.3.0/Libraries/STM32F10x_StdPeriph_Driver/src/stm32f10x_rcc.c **** {
 568              		.loc 1 872 0
 569              		.cfi_startproc
 570              		@ args = 0, pretend = 0, frame = 0
 571              		@ frame_needed = 0, uses_anonymous_args = 0
 572              		@ link register save eliminated.
 573              	.LVL38:
 873:firmware/STM32F10x_StdPeriph_Lib_V3.3.0/Libraries/STM32F10x_StdPeriph_Driver/src/stm32f10x_rcc.c ****   /* Check the parameters */
 874:firmware/STM32F10x_StdPeriph_Lib_V3.3.0/Libraries/STM32F10x_StdPeriph_Driver/src/stm32f10x_rcc.c ****   assert_param(IS_FUNCTIONAL_STATE(NewState));
 875:firmware/STM32F10x_StdPeriph_Lib_V3.3.0/Libraries/STM32F10x_StdPeriph_Driver/src/stm32f10x_rcc.c ****   *(__IO uint32_t *) CSR_LSION_BB = (uint32_t)NewState;
 574              		.loc 1 875 0
 575 0000 014B     		ldr	r3, .L58
 576 0002 1860     		str	r0, [r3, #0]
 876:firmware/STM32F10x_StdPeriph_Lib_V3.3.0/Libraries/STM32F10x_StdPeriph_Driver/src/stm32f10x_rcc.c **** }
 577              		.loc 1 876 0
 578 0004 7047     		bx	lr
 579              	.L59:
 580 0006 00BF     		.align	2
 581              	.L58:
 582 0008 80044242 		.word	1111622784
 583              		.cfi_endproc
 584              	.LFE45:
 586              		.section	.text.RCC_RTCCLKConfig,"ax",%progbits
 587              		.align	1
 588              		.global	RCC_RTCCLKConfig
 589              		.thumb
 590              		.thumb_func
 592              	RCC_RTCCLKConfig:
 593              	.LFB46:
 877:firmware/STM32F10x_StdPeriph_Lib_V3.3.0/Libraries/STM32F10x_StdPeriph_Driver/src/stm32f10x_rcc.c **** 
 878:firmware/STM32F10x_StdPeriph_Lib_V3.3.0/Libraries/STM32F10x_StdPeriph_Driver/src/stm32f10x_rcc.c **** /**
 879:firmware/STM32F10x_StdPeriph_Lib_V3.3.0/Libraries/STM32F10x_StdPeriph_Driver/src/stm32f10x_rcc.c ****   * @brief  Configures the RTC clock (RTCCLK).
 880:firmware/STM32F10x_StdPeriph_Lib_V3.3.0/Libraries/STM32F10x_StdPeriph_Driver/src/stm32f10x_rcc.c ****   * @note   Once the RTC clock is selected it cant be changed unless the Backup domain is reset.
 881:firmware/STM32F10x_StdPeriph_Lib_V3.3.0/Libraries/STM32F10x_StdPeriph_Driver/src/stm32f10x_rcc.c ****   * @param  RCC_RTCCLKSource: specifies the RTC clock source.
 882:firmware/STM32F10x_StdPeriph_Lib_V3.3.0/Libraries/STM32F10x_StdPeriph_Driver/src/stm32f10x_rcc.c ****   *   This parameter can be one of the following values:
 883:firmware/STM32F10x_StdPeriph_Lib_V3.3.0/Libraries/STM32F10x_StdPeriph_Driver/src/stm32f10x_rcc.c ****   *     @arg RCC_RTCCLKSource_LSE: LSE selected as RTC clock
 884:firmware/STM32F10x_StdPeriph_Lib_V3.3.0/Libraries/STM32F10x_StdPeriph_Driver/src/stm32f10x_rcc.c ****   *     @arg RCC_RTCCLKSource_LSI: LSI selected as RTC clock
 885:firmware/STM32F10x_StdPeriph_Lib_V3.3.0/Libraries/STM32F10x_StdPeriph_Driver/src/stm32f10x_rcc.c ****   *     @arg RCC_RTCCLKSource_HSE_Div128: HSE clock divided by 128 selected as RTC clock
 886:firmware/STM32F10x_StdPeriph_Lib_V3.3.0/Libraries/STM32F10x_StdPeriph_Driver/src/stm32f10x_rcc.c ****   * @retval None
 887:firmware/STM32F10x_StdPeriph_Lib_V3.3.0/Libraries/STM32F10x_StdPeriph_Driver/src/stm32f10x_rcc.c ****   */
 888:firmware/STM32F10x_StdPeriph_Lib_V3.3.0/Libraries/STM32F10x_StdPeriph_Driver/src/stm32f10x_rcc.c **** void RCC_RTCCLKConfig(uint32_t RCC_RTCCLKSource)
 889:firmware/STM32F10x_StdPeriph_Lib_V3.3.0/Libraries/STM32F10x_StdPeriph_Driver/src/stm32f10x_rcc.c **** {
 594              		.loc 1 889 0
 595              		.cfi_startproc
 596              		@ args = 0, pretend = 0, frame = 0
 597              		@ frame_needed = 0, uses_anonymous_args = 0
 598              		@ link register save eliminated.
 599              	.LVL39:
 890:firmware/STM32F10x_StdPeriph_Lib_V3.3.0/Libraries/STM32F10x_StdPeriph_Driver/src/stm32f10x_rcc.c ****   /* Check the parameters */
 891:firmware/STM32F10x_StdPeriph_Lib_V3.3.0/Libraries/STM32F10x_StdPeriph_Driver/src/stm32f10x_rcc.c ****   assert_param(IS_RCC_RTCCLK_SOURCE(RCC_RTCCLKSource));
 892:firmware/STM32F10x_StdPeriph_Lib_V3.3.0/Libraries/STM32F10x_StdPeriph_Driver/src/stm32f10x_rcc.c ****   /* Select the RTC clock source */
 893:firmware/STM32F10x_StdPeriph_Lib_V3.3.0/Libraries/STM32F10x_StdPeriph_Driver/src/stm32f10x_rcc.c ****   RCC->BDCR |= RCC_RTCCLKSource;
 600              		.loc 1 893 0
 601 0000 024B     		ldr	r3, .L61
 602 0002 1A6A     		ldr	r2, [r3, #32]
 603 0004 40EA0202 		orr	r2, r0, r2
 604 0008 1A62     		str	r2, [r3, #32]
 894:firmware/STM32F10x_StdPeriph_Lib_V3.3.0/Libraries/STM32F10x_StdPeriph_Driver/src/stm32f10x_rcc.c **** }
 605              		.loc 1 894 0
 606 000a 7047     		bx	lr
 607              	.L62:
 608              		.align	2
 609              	.L61:
 610 000c 00100240 		.word	1073876992
 611              		.cfi_endproc
 612              	.LFE46:
 614              		.section	.text.RCC_RTCCLKCmd,"ax",%progbits
 615              		.align	1
 616              		.global	RCC_RTCCLKCmd
 617              		.thumb
 618              		.thumb_func
 620              	RCC_RTCCLKCmd:
 621              	.LFB47:
 895:firmware/STM32F10x_StdPeriph_Lib_V3.3.0/Libraries/STM32F10x_StdPeriph_Driver/src/stm32f10x_rcc.c **** 
 896:firmware/STM32F10x_StdPeriph_Lib_V3.3.0/Libraries/STM32F10x_StdPeriph_Driver/src/stm32f10x_rcc.c **** /**
 897:firmware/STM32F10x_StdPeriph_Lib_V3.3.0/Libraries/STM32F10x_StdPeriph_Driver/src/stm32f10x_rcc.c ****   * @brief  Enables or disables the RTC clock.
 898:firmware/STM32F10x_StdPeriph_Lib_V3.3.0/Libraries/STM32F10x_StdPeriph_Driver/src/stm32f10x_rcc.c ****   * @note   This function must be used only after the RTC clock was selected using the RCC_RTCCLKCo
 899:firmware/STM32F10x_StdPeriph_Lib_V3.3.0/Libraries/STM32F10x_StdPeriph_Driver/src/stm32f10x_rcc.c ****   * @param  NewState: new state of the RTC clock. This parameter can be: ENABLE or DISABLE.
 900:firmware/STM32F10x_StdPeriph_Lib_V3.3.0/Libraries/STM32F10x_StdPeriph_Driver/src/stm32f10x_rcc.c ****   * @retval None
 901:firmware/STM32F10x_StdPeriph_Lib_V3.3.0/Libraries/STM32F10x_StdPeriph_Driver/src/stm32f10x_rcc.c ****   */
 902:firmware/STM32F10x_StdPeriph_Lib_V3.3.0/Libraries/STM32F10x_StdPeriph_Driver/src/stm32f10x_rcc.c **** void RCC_RTCCLKCmd(FunctionalState NewState)
 903:firmware/STM32F10x_StdPeriph_Lib_V3.3.0/Libraries/STM32F10x_StdPeriph_Driver/src/stm32f10x_rcc.c **** {
 622              		.loc 1 903 0
 623              		.cfi_startproc
 624              		@ args = 0, pretend = 0, frame = 0
 625              		@ frame_needed = 0, uses_anonymous_args = 0
 626              		@ link register save eliminated.
 627              	.LVL40:
 904:firmware/STM32F10x_StdPeriph_Lib_V3.3.0/Libraries/STM32F10x_StdPeriph_Driver/src/stm32f10x_rcc.c ****   /* Check the parameters */
 905:firmware/STM32F10x_StdPeriph_Lib_V3.3.0/Libraries/STM32F10x_StdPeriph_Driver/src/stm32f10x_rcc.c ****   assert_param(IS_FUNCTIONAL_STATE(NewState));
 906:firmware/STM32F10x_StdPeriph_Lib_V3.3.0/Libraries/STM32F10x_StdPeriph_Driver/src/stm32f10x_rcc.c ****   *(__IO uint32_t *) BDCR_RTCEN_BB = (uint32_t)NewState;
 628              		.loc 1 906 0
 629 0000 014B     		ldr	r3, .L64
 630 0002 1860     		str	r0, [r3, #0]
 907:firmware/STM32F10x_StdPeriph_Lib_V3.3.0/Libraries/STM32F10x_StdPeriph_Driver/src/stm32f10x_rcc.c **** }
 631              		.loc 1 907 0
 632 0004 7047     		bx	lr
 633              	.L65:
 634 0006 00BF     		.align	2
 635              	.L64:
 636 0008 3C044242 		.word	1111622716
 637              		.cfi_endproc
 638              	.LFE47:
 640              		.section	.text.RCC_GetClocksFreq,"ax",%progbits
 641              		.align	1
 642              		.global	RCC_GetClocksFreq
 643              		.thumb
 644              		.thumb_func
 646              	RCC_GetClocksFreq:
 647              	.LFB48:
 908:firmware/STM32F10x_StdPeriph_Lib_V3.3.0/Libraries/STM32F10x_StdPeriph_Driver/src/stm32f10x_rcc.c **** 
 909:firmware/STM32F10x_StdPeriph_Lib_V3.3.0/Libraries/STM32F10x_StdPeriph_Driver/src/stm32f10x_rcc.c **** /**
 910:firmware/STM32F10x_StdPeriph_Lib_V3.3.0/Libraries/STM32F10x_StdPeriph_Driver/src/stm32f10x_rcc.c ****   * @brief  Returns the frequencies of different on chip clocks.
 911:firmware/STM32F10x_StdPeriph_Lib_V3.3.0/Libraries/STM32F10x_StdPeriph_Driver/src/stm32f10x_rcc.c ****   * @param  RCC_Clocks: pointer to a RCC_ClocksTypeDef structure which will hold
 912:firmware/STM32F10x_StdPeriph_Lib_V3.3.0/Libraries/STM32F10x_StdPeriph_Driver/src/stm32f10x_rcc.c ****   *   the clocks frequencies.
 913:firmware/STM32F10x_StdPeriph_Lib_V3.3.0/Libraries/STM32F10x_StdPeriph_Driver/src/stm32f10x_rcc.c ****   * @retval None
 914:firmware/STM32F10x_StdPeriph_Lib_V3.3.0/Libraries/STM32F10x_StdPeriph_Driver/src/stm32f10x_rcc.c ****   */
 915:firmware/STM32F10x_StdPeriph_Lib_V3.3.0/Libraries/STM32F10x_StdPeriph_Driver/src/stm32f10x_rcc.c **** void RCC_GetClocksFreq(RCC_ClocksTypeDef* RCC_Clocks)
 916:firmware/STM32F10x_StdPeriph_Lib_V3.3.0/Libraries/STM32F10x_StdPeriph_Driver/src/stm32f10x_rcc.c **** {
 648              		.loc 1 916 0
 649              		.cfi_startproc
 650              		@ args = 0, pretend = 0, frame = 0
 651              		@ frame_needed = 0, uses_anonymous_args = 0
 652              	.LVL41:
 653 0000 10B5     		push	{r4, lr}
 654              	.LCFI0:
 655              		.cfi_def_cfa_offset 8
 917:firmware/STM32F10x_StdPeriph_Lib_V3.3.0/Libraries/STM32F10x_StdPeriph_Driver/src/stm32f10x_rcc.c ****   uint32_t tmp = 0, pllmull = 0, pllsource = 0, presc = 0;
 918:firmware/STM32F10x_StdPeriph_Lib_V3.3.0/Libraries/STM32F10x_StdPeriph_Driver/src/stm32f10x_rcc.c **** 
 919:firmware/STM32F10x_StdPeriph_Lib_V3.3.0/Libraries/STM32F10x_StdPeriph_Driver/src/stm32f10x_rcc.c **** #ifdef  STM32F10X_CL
 920:firmware/STM32F10x_StdPeriph_Lib_V3.3.0/Libraries/STM32F10x_StdPeriph_Driver/src/stm32f10x_rcc.c ****   uint32_t prediv1source = 0, prediv1factor = 0, prediv2factor = 0, pll2mull = 0;
 921:firmware/STM32F10x_StdPeriph_Lib_V3.3.0/Libraries/STM32F10x_StdPeriph_Driver/src/stm32f10x_rcc.c **** #endif /* STM32F10X_CL */
 922:firmware/STM32F10x_StdPeriph_Lib_V3.3.0/Libraries/STM32F10x_StdPeriph_Driver/src/stm32f10x_rcc.c **** 
 923:firmware/STM32F10x_StdPeriph_Lib_V3.3.0/Libraries/STM32F10x_StdPeriph_Driver/src/stm32f10x_rcc.c **** #if defined (STM32F10X_LD_VL) || defined (STM32F10X_MD_VL)
 924:firmware/STM32F10x_StdPeriph_Lib_V3.3.0/Libraries/STM32F10x_StdPeriph_Driver/src/stm32f10x_rcc.c ****   uint32_t prediv1factor = 0;
 925:firmware/STM32F10x_StdPeriph_Lib_V3.3.0/Libraries/STM32F10x_StdPeriph_Driver/src/stm32f10x_rcc.c **** #endif
 926:firmware/STM32F10x_StdPeriph_Lib_V3.3.0/Libraries/STM32F10x_StdPeriph_Driver/src/stm32f10x_rcc.c ****     
 927:firmware/STM32F10x_StdPeriph_Lib_V3.3.0/Libraries/STM32F10x_StdPeriph_Driver/src/stm32f10x_rcc.c ****   /* Get SYSCLK source -------------------------------------------------------*/
 928:firmware/STM32F10x_StdPeriph_Lib_V3.3.0/Libraries/STM32F10x_StdPeriph_Driver/src/stm32f10x_rcc.c ****   tmp = RCC->CFGR & CFGR_SWS_Mask;
 656              		.loc 1 928 0
 657 0002 204B     		ldr	r3, .L76
 658 0004 5A68     		ldr	r2, [r3, #4]
 659              	.LVL42:
 660 0006 02F00C02 		and	r2, r2, #12
 661              	.LVL43:
 929:firmware/STM32F10x_StdPeriph_Lib_V3.3.0/Libraries/STM32F10x_StdPeriph_Driver/src/stm32f10x_rcc.c ****   
 930:firmware/STM32F10x_StdPeriph_Lib_V3.3.0/Libraries/STM32F10x_StdPeriph_Driver/src/stm32f10x_rcc.c ****   switch (tmp)
 662              		.loc 1 930 0
 663 000a 042A     		cmp	r2, #4
 664 000c 01D0     		beq	.L69
 665              		.cfi_offset 14, -4
 666              		.cfi_offset 4, -8
 667 000e 082A     		cmp	r2, #8
 668 0010 02D0     		beq	.L70
 669              	.L69:
 931:firmware/STM32F10x_StdPeriph_Lib_V3.3.0/Libraries/STM32F10x_StdPeriph_Driver/src/stm32f10x_rcc.c ****   {
 932:firmware/STM32F10x_StdPeriph_Lib_V3.3.0/Libraries/STM32F10x_StdPeriph_Driver/src/stm32f10x_rcc.c ****     case 0x00:  /* HSI used as system clock */
 933:firmware/STM32F10x_StdPeriph_Lib_V3.3.0/Libraries/STM32F10x_StdPeriph_Driver/src/stm32f10x_rcc.c ****       RCC_Clocks->SYSCLK_Frequency = HSI_Value;
 934:firmware/STM32F10x_StdPeriph_Lib_V3.3.0/Libraries/STM32F10x_StdPeriph_Driver/src/stm32f10x_rcc.c ****       break;
 935:firmware/STM32F10x_StdPeriph_Lib_V3.3.0/Libraries/STM32F10x_StdPeriph_Driver/src/stm32f10x_rcc.c ****     case 0x04:  /* HSE used as system clock */
 936:firmware/STM32F10x_StdPeriph_Lib_V3.3.0/Libraries/STM32F10x_StdPeriph_Driver/src/stm32f10x_rcc.c ****       RCC_Clocks->SYSCLK_Frequency = HSE_Value;
 670              		.loc 1 936 0
 671 0012 1D4B     		ldr	r3, .L76+4
 672 0014 0360     		str	r3, [r0, #0]
 937:firmware/STM32F10x_StdPeriph_Lib_V3.3.0/Libraries/STM32F10x_StdPeriph_Driver/src/stm32f10x_rcc.c ****       break;
 673              		.loc 1 937 0
 674 0016 11E0     		b	.L71
 675              	.L70:
 938:firmware/STM32F10x_StdPeriph_Lib_V3.3.0/Libraries/STM32F10x_StdPeriph_Driver/src/stm32f10x_rcc.c ****     case 0x08:  /* PLL used as system clock */
 939:firmware/STM32F10x_StdPeriph_Lib_V3.3.0/Libraries/STM32F10x_StdPeriph_Driver/src/stm32f10x_rcc.c **** 
 940:firmware/STM32F10x_StdPeriph_Lib_V3.3.0/Libraries/STM32F10x_StdPeriph_Driver/src/stm32f10x_rcc.c ****       /* Get PLL clock source and multiplication factor ----------------------*/
 941:firmware/STM32F10x_StdPeriph_Lib_V3.3.0/Libraries/STM32F10x_StdPeriph_Driver/src/stm32f10x_rcc.c ****       pllmull = RCC->CFGR & CFGR_PLLMull_Mask;
 676              		.loc 1 941 0
 677 0018 5A68     		ldr	r2, [r3, #4]
 678              	.LVL44:
 942:firmware/STM32F10x_StdPeriph_Lib_V3.3.0/Libraries/STM32F10x_StdPeriph_Driver/src/stm32f10x_rcc.c ****       pllsource = RCC->CFGR & CFGR_PLLSRC_Mask;
 679              		.loc 1 942 0
 680 001a 5968     		ldr	r1, [r3, #4]
 681              	.LVL45:
 941:firmware/STM32F10x_StdPeriph_Lib_V3.3.0/Libraries/STM32F10x_StdPeriph_Driver/src/stm32f10x_rcc.c ****       pllmull = RCC->CFGR & CFGR_PLLMull_Mask;
 682              		.loc 1 941 0
 683 001c 02F47012 		and	r2, r2, #3932160
 684              	.LVL46:
 943:firmware/STM32F10x_StdPeriph_Lib_V3.3.0/Libraries/STM32F10x_StdPeriph_Driver/src/stm32f10x_rcc.c ****       
 944:firmware/STM32F10x_StdPeriph_Lib_V3.3.0/Libraries/STM32F10x_StdPeriph_Driver/src/stm32f10x_rcc.c **** #ifndef STM32F10X_CL      
 945:firmware/STM32F10x_StdPeriph_Lib_V3.3.0/Libraries/STM32F10x_StdPeriph_Driver/src/stm32f10x_rcc.c ****       pllmull = ( pllmull >> 18) + 2;
 685              		.loc 1 945 0
 686 0020 920C     		lsrs	r2, r2, #18
 687              	.LVL47:
 688 0022 0232     		adds	r2, r2, #2
 689              	.LVL48:
 946:firmware/STM32F10x_StdPeriph_Lib_V3.3.0/Libraries/STM32F10x_StdPeriph_Driver/src/stm32f10x_rcc.c ****       
 947:firmware/STM32F10x_StdPeriph_Lib_V3.3.0/Libraries/STM32F10x_StdPeriph_Driver/src/stm32f10x_rcc.c ****       if (pllsource == 0x00)
 690              		.loc 1 947 0
 691 0024 11F4803F 		tst	r1, #65536
 692 0028 03D0     		beq	.L75
 693              	.L72:
 948:firmware/STM32F10x_StdPeriph_Lib_V3.3.0/Libraries/STM32F10x_StdPeriph_Driver/src/stm32f10x_rcc.c ****       {/* HSI oscillator clock divided by 2 selected as PLL clock entry */
 949:firmware/STM32F10x_StdPeriph_Lib_V3.3.0/Libraries/STM32F10x_StdPeriph_Driver/src/stm32f10x_rcc.c ****         RCC_Clocks->SYSCLK_Frequency = (HSI_Value >> 1) * pllmull;
 950:firmware/STM32F10x_StdPeriph_Lib_V3.3.0/Libraries/STM32F10x_StdPeriph_Driver/src/stm32f10x_rcc.c ****       }
 951:firmware/STM32F10x_StdPeriph_Lib_V3.3.0/Libraries/STM32F10x_StdPeriph_Driver/src/stm32f10x_rcc.c ****       else
 952:firmware/STM32F10x_StdPeriph_Lib_V3.3.0/Libraries/STM32F10x_StdPeriph_Driver/src/stm32f10x_rcc.c ****       {
 953:firmware/STM32F10x_StdPeriph_Lib_V3.3.0/Libraries/STM32F10x_StdPeriph_Driver/src/stm32f10x_rcc.c ****  #if defined (STM32F10X_LD_VL) || defined (STM32F10X_MD_VL)
 954:firmware/STM32F10x_StdPeriph_Lib_V3.3.0/Libraries/STM32F10x_StdPeriph_Driver/src/stm32f10x_rcc.c ****        prediv1factor = (RCC->CFGR2 & CFGR2_PREDIV1) + 1;
 955:firmware/STM32F10x_StdPeriph_Lib_V3.3.0/Libraries/STM32F10x_StdPeriph_Driver/src/stm32f10x_rcc.c ****        /* HSE oscillator clock selected as PREDIV1 clock entry */
 956:firmware/STM32F10x_StdPeriph_Lib_V3.3.0/Libraries/STM32F10x_StdPeriph_Driver/src/stm32f10x_rcc.c ****        RCC_Clocks->SYSCLK_Frequency = (HSE_Value / prediv1factor) * pllmull; 
 957:firmware/STM32F10x_StdPeriph_Lib_V3.3.0/Libraries/STM32F10x_StdPeriph_Driver/src/stm32f10x_rcc.c ****  #else
 958:firmware/STM32F10x_StdPeriph_Lib_V3.3.0/Libraries/STM32F10x_StdPeriph_Driver/src/stm32f10x_rcc.c ****         /* HSE selected as PLL clock entry */
 959:firmware/STM32F10x_StdPeriph_Lib_V3.3.0/Libraries/STM32F10x_StdPeriph_Driver/src/stm32f10x_rcc.c ****         if ((RCC->CFGR & CFGR_PLLXTPRE_Mask) != (uint32_t)RESET)
 694              		.loc 1 959 0
 695 002a 5B68     		ldr	r3, [r3, #4]
 696 002c 13F4003F 		tst	r3, #131072
 697 0030 01D0     		beq	.L73
 698              	.L75:
 960:firmware/STM32F10x_StdPeriph_Lib_V3.3.0/Libraries/STM32F10x_StdPeriph_Driver/src/stm32f10x_rcc.c ****         {/* HSE oscillator clock divided by 2 */
 961:firmware/STM32F10x_StdPeriph_Lib_V3.3.0/Libraries/STM32F10x_StdPeriph_Driver/src/stm32f10x_rcc.c ****           RCC_Clocks->SYSCLK_Frequency = (HSE_Value >> 1) * pllmull;
 699              		.loc 1 961 0
 700 0032 164B     		ldr	r3, .L76+8
 701 0034 00E0     		b	.L74
 702              	.L73:
 962:firmware/STM32F10x_StdPeriph_Lib_V3.3.0/Libraries/STM32F10x_StdPeriph_Driver/src/stm32f10x_rcc.c ****         }
 963:firmware/STM32F10x_StdPeriph_Lib_V3.3.0/Libraries/STM32F10x_StdPeriph_Driver/src/stm32f10x_rcc.c ****         else
 964:firmware/STM32F10x_StdPeriph_Lib_V3.3.0/Libraries/STM32F10x_StdPeriph_Driver/src/stm32f10x_rcc.c ****         {
 965:firmware/STM32F10x_StdPeriph_Lib_V3.3.0/Libraries/STM32F10x_StdPeriph_Driver/src/stm32f10x_rcc.c ****           RCC_Clocks->SYSCLK_Frequency = HSE_Value * pllmull;
 703              		.loc 1 965 0
 704 0036 144B     		ldr	r3, .L76+4
 705              	.L74:
 706 0038 5A43     		muls	r2, r3, r2
 707              	.LVL49:
 708 003a 0260     		str	r2, [r0, #0]
 709              	.LVL50:
 710              	.L71:
 966:firmware/STM32F10x_StdPeriph_Lib_V3.3.0/Libraries/STM32F10x_StdPeriph_Driver/src/stm32f10x_rcc.c ****         }
 967:firmware/STM32F10x_StdPeriph_Lib_V3.3.0/Libraries/STM32F10x_StdPeriph_Driver/src/stm32f10x_rcc.c ****  #endif
 968:firmware/STM32F10x_StdPeriph_Lib_V3.3.0/Libraries/STM32F10x_StdPeriph_Driver/src/stm32f10x_rcc.c ****       }
 969:firmware/STM32F10x_StdPeriph_Lib_V3.3.0/Libraries/STM32F10x_StdPeriph_Driver/src/stm32f10x_rcc.c **** #else
 970:firmware/STM32F10x_StdPeriph_Lib_V3.3.0/Libraries/STM32F10x_StdPeriph_Driver/src/stm32f10x_rcc.c ****       pllmull = pllmull >> 18;
 971:firmware/STM32F10x_StdPeriph_Lib_V3.3.0/Libraries/STM32F10x_StdPeriph_Driver/src/stm32f10x_rcc.c ****       
 972:firmware/STM32F10x_StdPeriph_Lib_V3.3.0/Libraries/STM32F10x_StdPeriph_Driver/src/stm32f10x_rcc.c ****       if (pllmull != 0x0D)
 973:firmware/STM32F10x_StdPeriph_Lib_V3.3.0/Libraries/STM32F10x_StdPeriph_Driver/src/stm32f10x_rcc.c ****       {
 974:firmware/STM32F10x_StdPeriph_Lib_V3.3.0/Libraries/STM32F10x_StdPeriph_Driver/src/stm32f10x_rcc.c ****          pllmull += 2;
 975:firmware/STM32F10x_StdPeriph_Lib_V3.3.0/Libraries/STM32F10x_StdPeriph_Driver/src/stm32f10x_rcc.c ****       }
 976:firmware/STM32F10x_StdPeriph_Lib_V3.3.0/Libraries/STM32F10x_StdPeriph_Driver/src/stm32f10x_rcc.c ****       else
 977:firmware/STM32F10x_StdPeriph_Lib_V3.3.0/Libraries/STM32F10x_StdPeriph_Driver/src/stm32f10x_rcc.c ****       { /* PLL multiplication factor = PLL input clock * 6.5 */
 978:firmware/STM32F10x_StdPeriph_Lib_V3.3.0/Libraries/STM32F10x_StdPeriph_Driver/src/stm32f10x_rcc.c ****         pllmull = 13 / 2; 
 979:firmware/STM32F10x_StdPeriph_Lib_V3.3.0/Libraries/STM32F10x_StdPeriph_Driver/src/stm32f10x_rcc.c ****       }
 980:firmware/STM32F10x_StdPeriph_Lib_V3.3.0/Libraries/STM32F10x_StdPeriph_Driver/src/stm32f10x_rcc.c ****             
 981:firmware/STM32F10x_StdPeriph_Lib_V3.3.0/Libraries/STM32F10x_StdPeriph_Driver/src/stm32f10x_rcc.c ****       if (pllsource == 0x00)
 982:firmware/STM32F10x_StdPeriph_Lib_V3.3.0/Libraries/STM32F10x_StdPeriph_Driver/src/stm32f10x_rcc.c ****       {/* HSI oscillator clock divided by 2 selected as PLL clock entry */
 983:firmware/STM32F10x_StdPeriph_Lib_V3.3.0/Libraries/STM32F10x_StdPeriph_Driver/src/stm32f10x_rcc.c ****         RCC_Clocks->SYSCLK_Frequency = (HSI_Value >> 1) * pllmull;
 984:firmware/STM32F10x_StdPeriph_Lib_V3.3.0/Libraries/STM32F10x_StdPeriph_Driver/src/stm32f10x_rcc.c ****       }
 985:firmware/STM32F10x_StdPeriph_Lib_V3.3.0/Libraries/STM32F10x_StdPeriph_Driver/src/stm32f10x_rcc.c ****       else
 986:firmware/STM32F10x_StdPeriph_Lib_V3.3.0/Libraries/STM32F10x_StdPeriph_Driver/src/stm32f10x_rcc.c ****       {/* PREDIV1 selected as PLL clock entry */
 987:firmware/STM32F10x_StdPeriph_Lib_V3.3.0/Libraries/STM32F10x_StdPeriph_Driver/src/stm32f10x_rcc.c ****         
 988:firmware/STM32F10x_StdPeriph_Lib_V3.3.0/Libraries/STM32F10x_StdPeriph_Driver/src/stm32f10x_rcc.c ****         /* Get PREDIV1 clock source and division factor */
 989:firmware/STM32F10x_StdPeriph_Lib_V3.3.0/Libraries/STM32F10x_StdPeriph_Driver/src/stm32f10x_rcc.c ****         prediv1source = RCC->CFGR2 & CFGR2_PREDIV1SRC;
 990:firmware/STM32F10x_StdPeriph_Lib_V3.3.0/Libraries/STM32F10x_StdPeriph_Driver/src/stm32f10x_rcc.c ****         prediv1factor = (RCC->CFGR2 & CFGR2_PREDIV1) + 1;
 991:firmware/STM32F10x_StdPeriph_Lib_V3.3.0/Libraries/STM32F10x_StdPeriph_Driver/src/stm32f10x_rcc.c ****         
 992:firmware/STM32F10x_StdPeriph_Lib_V3.3.0/Libraries/STM32F10x_StdPeriph_Driver/src/stm32f10x_rcc.c ****         if (prediv1source == 0)
 993:firmware/STM32F10x_StdPeriph_Lib_V3.3.0/Libraries/STM32F10x_StdPeriph_Driver/src/stm32f10x_rcc.c ****         { /* HSE oscillator clock selected as PREDIV1 clock entry */
 994:firmware/STM32F10x_StdPeriph_Lib_V3.3.0/Libraries/STM32F10x_StdPeriph_Driver/src/stm32f10x_rcc.c ****           RCC_Clocks->SYSCLK_Frequency = (HSE_Value / prediv1factor) * pllmull;          
 995:firmware/STM32F10x_StdPeriph_Lib_V3.3.0/Libraries/STM32F10x_StdPeriph_Driver/src/stm32f10x_rcc.c ****         }
 996:firmware/STM32F10x_StdPeriph_Lib_V3.3.0/Libraries/STM32F10x_StdPeriph_Driver/src/stm32f10x_rcc.c ****         else
 997:firmware/STM32F10x_StdPeriph_Lib_V3.3.0/Libraries/STM32F10x_StdPeriph_Driver/src/stm32f10x_rcc.c ****         {/* PLL2 clock selected as PREDIV1 clock entry */
 998:firmware/STM32F10x_StdPeriph_Lib_V3.3.0/Libraries/STM32F10x_StdPeriph_Driver/src/stm32f10x_rcc.c ****           
 999:firmware/STM32F10x_StdPeriph_Lib_V3.3.0/Libraries/STM32F10x_StdPeriph_Driver/src/stm32f10x_rcc.c ****           /* Get PREDIV2 division factor and PLL2 multiplication factor */
1000:firmware/STM32F10x_StdPeriph_Lib_V3.3.0/Libraries/STM32F10x_StdPeriph_Driver/src/stm32f10x_rcc.c ****           prediv2factor = ((RCC->CFGR2 & CFGR2_PREDIV2) >> 4) + 1;
1001:firmware/STM32F10x_StdPeriph_Lib_V3.3.0/Libraries/STM32F10x_StdPeriph_Driver/src/stm32f10x_rcc.c ****           pll2mull = ((RCC->CFGR2 & CFGR2_PLL2MUL) >> 8 ) + 2; 
1002:firmware/STM32F10x_StdPeriph_Lib_V3.3.0/Libraries/STM32F10x_StdPeriph_Driver/src/stm32f10x_rcc.c ****           RCC_Clocks->SYSCLK_Frequency = (((HSE_Value / prediv2factor) * pll2mull) / prediv1factor)
1003:firmware/STM32F10x_StdPeriph_Lib_V3.3.0/Libraries/STM32F10x_StdPeriph_Driver/src/stm32f10x_rcc.c ****         }
1004:firmware/STM32F10x_StdPeriph_Lib_V3.3.0/Libraries/STM32F10x_StdPeriph_Driver/src/stm32f10x_rcc.c ****       }
1005:firmware/STM32F10x_StdPeriph_Lib_V3.3.0/Libraries/STM32F10x_StdPeriph_Driver/src/stm32f10x_rcc.c **** #endif /* STM32F10X_CL */ 
1006:firmware/STM32F10x_StdPeriph_Lib_V3.3.0/Libraries/STM32F10x_StdPeriph_Driver/src/stm32f10x_rcc.c ****       break;
1007:firmware/STM32F10x_StdPeriph_Lib_V3.3.0/Libraries/STM32F10x_StdPeriph_Driver/src/stm32f10x_rcc.c **** 
1008:firmware/STM32F10x_StdPeriph_Lib_V3.3.0/Libraries/STM32F10x_StdPeriph_Driver/src/stm32f10x_rcc.c ****     default:
1009:firmware/STM32F10x_StdPeriph_Lib_V3.3.0/Libraries/STM32F10x_StdPeriph_Driver/src/stm32f10x_rcc.c ****       RCC_Clocks->SYSCLK_Frequency = HSI_Value;
1010:firmware/STM32F10x_StdPeriph_Lib_V3.3.0/Libraries/STM32F10x_StdPeriph_Driver/src/stm32f10x_rcc.c ****       break;
1011:firmware/STM32F10x_StdPeriph_Lib_V3.3.0/Libraries/STM32F10x_StdPeriph_Driver/src/stm32f10x_rcc.c ****   }
1012:firmware/STM32F10x_StdPeriph_Lib_V3.3.0/Libraries/STM32F10x_StdPeriph_Driver/src/stm32f10x_rcc.c **** 
1013:firmware/STM32F10x_StdPeriph_Lib_V3.3.0/Libraries/STM32F10x_StdPeriph_Driver/src/stm32f10x_rcc.c ****   /* Compute HCLK, PCLK1, PCLK2 and ADCCLK clocks frequencies ----------------*/
1014:firmware/STM32F10x_StdPeriph_Lib_V3.3.0/Libraries/STM32F10x_StdPeriph_Driver/src/stm32f10x_rcc.c ****   /* Get HCLK prescaler */
1015:firmware/STM32F10x_StdPeriph_Lib_V3.3.0/Libraries/STM32F10x_StdPeriph_Driver/src/stm32f10x_rcc.c ****   tmp = RCC->CFGR & CFGR_HPRE_Set_Mask;
 711              		.loc 1 1015 0
 712 003c 114B     		ldr	r3, .L76
1016:firmware/STM32F10x_StdPeriph_Lib_V3.3.0/Libraries/STM32F10x_StdPeriph_Driver/src/stm32f10x_rcc.c ****   tmp = tmp >> 4;
1017:firmware/STM32F10x_StdPeriph_Lib_V3.3.0/Libraries/STM32F10x_StdPeriph_Driver/src/stm32f10x_rcc.c ****   presc = APBAHBPrescTable[tmp];
 713              		.loc 1 1017 0
 714 003e 1449     		ldr	r1, .L76+12
1015:firmware/STM32F10x_StdPeriph_Lib_V3.3.0/Libraries/STM32F10x_StdPeriph_Driver/src/stm32f10x_rcc.c ****   tmp = RCC->CFGR & CFGR_HPRE_Set_Mask;
 715              		.loc 1 1015 0
 716 0040 5A68     		ldr	r2, [r3, #4]
1018:firmware/STM32F10x_StdPeriph_Lib_V3.3.0/Libraries/STM32F10x_StdPeriph_Driver/src/stm32f10x_rcc.c ****   /* HCLK clock frequency */
1019:firmware/STM32F10x_StdPeriph_Lib_V3.3.0/Libraries/STM32F10x_StdPeriph_Driver/src/stm32f10x_rcc.c ****   RCC_Clocks->HCLK_Frequency = RCC_Clocks->SYSCLK_Frequency >> presc;
 717              		.loc 1 1019 0
 718 0042 0468     		ldr	r4, [r0, #0]
1015:firmware/STM32F10x_StdPeriph_Lib_V3.3.0/Libraries/STM32F10x_StdPeriph_Driver/src/stm32f10x_rcc.c ****   tmp = RCC->CFGR & CFGR_HPRE_Set_Mask;
 719              		.loc 1 1015 0
 720 0044 02F0F002 		and	r2, r2, #240
 721              	.LVL51:
1016:firmware/STM32F10x_StdPeriph_Lib_V3.3.0/Libraries/STM32F10x_StdPeriph_Driver/src/stm32f10x_rcc.c ****   tmp = tmp >> 4;
 722              		.loc 1 1016 0
 723 0048 1209     		lsrs	r2, r2, #4
 724              	.LVL52:
1017:firmware/STM32F10x_StdPeriph_Lib_V3.3.0/Libraries/STM32F10x_StdPeriph_Driver/src/stm32f10x_rcc.c ****   presc = APBAHBPrescTable[tmp];
 725              		.loc 1 1017 0
 726 004a 8A5C     		ldrb	r2, [r1, r2]	@ zero_extendqisi2
 727              	.LVL53:
 728              		.loc 1 1019 0
 729 004c 34FA02F2 		lsrs	r2, r4, r2
 730 0050 4260     		str	r2, [r0, #4]
1020:firmware/STM32F10x_StdPeriph_Lib_V3.3.0/Libraries/STM32F10x_StdPeriph_Driver/src/stm32f10x_rcc.c ****   /* Get PCLK1 prescaler */
1021:firmware/STM32F10x_StdPeriph_Lib_V3.3.0/Libraries/STM32F10x_StdPeriph_Driver/src/stm32f10x_rcc.c ****   tmp = RCC->CFGR & CFGR_PPRE1_Set_Mask;
 731              		.loc 1 1021 0
 732 0052 5C68     		ldr	r4, [r3, #4]
 733 0054 04F4E064 		and	r4, r4, #1792
 734              	.LVL54:
1022:firmware/STM32F10x_StdPeriph_Lib_V3.3.0/Libraries/STM32F10x_StdPeriph_Driver/src/stm32f10x_rcc.c ****   tmp = tmp >> 8;
 735              		.loc 1 1022 0
 736 0058 240A     		lsrs	r4, r4, #8
 737              	.LVL55:
1023:firmware/STM32F10x_StdPeriph_Lib_V3.3.0/Libraries/STM32F10x_StdPeriph_Driver/src/stm32f10x_rcc.c ****   presc = APBAHBPrescTable[tmp];
 738              		.loc 1 1023 0
 739 005a 0C5D     		ldrb	r4, [r1, r4]	@ zero_extendqisi2
 740              	.LVL56:
1024:firmware/STM32F10x_StdPeriph_Lib_V3.3.0/Libraries/STM32F10x_StdPeriph_Driver/src/stm32f10x_rcc.c ****   /* PCLK1 clock frequency */
1025:firmware/STM32F10x_StdPeriph_Lib_V3.3.0/Libraries/STM32F10x_StdPeriph_Driver/src/stm32f10x_rcc.c ****   RCC_Clocks->PCLK1_Frequency = RCC_Clocks->HCLK_Frequency >> presc;
 741              		.loc 1 1025 0
 742 005c 32FA04F4 		lsrs	r4, r2, r4
 743 0060 8460     		str	r4, [r0, #8]
1026:firmware/STM32F10x_StdPeriph_Lib_V3.3.0/Libraries/STM32F10x_StdPeriph_Driver/src/stm32f10x_rcc.c ****   /* Get PCLK2 prescaler */
1027:firmware/STM32F10x_StdPeriph_Lib_V3.3.0/Libraries/STM32F10x_StdPeriph_Driver/src/stm32f10x_rcc.c ****   tmp = RCC->CFGR & CFGR_PPRE2_Set_Mask;
 744              		.loc 1 1027 0
 745 0062 5C68     		ldr	r4, [r3, #4]
 746 0064 04F46054 		and	r4, r4, #14336
 747              	.LVL57:
1028:firmware/STM32F10x_StdPeriph_Lib_V3.3.0/Libraries/STM32F10x_StdPeriph_Driver/src/stm32f10x_rcc.c ****   tmp = tmp >> 11;
 748              		.loc 1 1028 0
 749 0068 E40A     		lsrs	r4, r4, #11
 750              	.LVL58:
1029:firmware/STM32F10x_StdPeriph_Lib_V3.3.0/Libraries/STM32F10x_StdPeriph_Driver/src/stm32f10x_rcc.c ****   presc = APBAHBPrescTable[tmp];
 751              		.loc 1 1029 0
 752 006a 095D     		ldrb	r1, [r1, r4]	@ zero_extendqisi2
1030:firmware/STM32F10x_StdPeriph_Lib_V3.3.0/Libraries/STM32F10x_StdPeriph_Driver/src/stm32f10x_rcc.c ****   /* PCLK2 clock frequency */
1031:firmware/STM32F10x_StdPeriph_Lib_V3.3.0/Libraries/STM32F10x_StdPeriph_Driver/src/stm32f10x_rcc.c ****   RCC_Clocks->PCLK2_Frequency = RCC_Clocks->HCLK_Frequency >> presc;
 753              		.loc 1 1031 0
 754 006c CA40     		lsrs	r2, r2, r1
 755 006e C260     		str	r2, [r0, #12]
1032:firmware/STM32F10x_StdPeriph_Lib_V3.3.0/Libraries/STM32F10x_StdPeriph_Driver/src/stm32f10x_rcc.c ****   /* Get ADCCLK prescaler */
1033:firmware/STM32F10x_StdPeriph_Lib_V3.3.0/Libraries/STM32F10x_StdPeriph_Driver/src/stm32f10x_rcc.c ****   tmp = RCC->CFGR & CFGR_ADCPRE_Set_Mask;
 756              		.loc 1 1033 0
 757 0070 5B68     		ldr	r3, [r3, #4]
1034:firmware/STM32F10x_StdPeriph_Lib_V3.3.0/Libraries/STM32F10x_StdPeriph_Driver/src/stm32f10x_rcc.c ****   tmp = tmp >> 14;
1035:firmware/STM32F10x_StdPeriph_Lib_V3.3.0/Libraries/STM32F10x_StdPeriph_Driver/src/stm32f10x_rcc.c ****   presc = ADCPrescTable[tmp];
 758              		.loc 1 1035 0
 759 0072 0849     		ldr	r1, .L76+16
1033:firmware/STM32F10x_StdPeriph_Lib_V3.3.0/Libraries/STM32F10x_StdPeriph_Driver/src/stm32f10x_rcc.c ****   tmp = RCC->CFGR & CFGR_ADCPRE_Set_Mask;
 760              		.loc 1 1033 0
 761 0074 03F44043 		and	r3, r3, #49152
 762              	.LVL59:
1034:firmware/STM32F10x_StdPeriph_Lib_V3.3.0/Libraries/STM32F10x_StdPeriph_Driver/src/stm32f10x_rcc.c ****   tmp = tmp >> 14;
 763              		.loc 1 1034 0
 764 0078 9B0B     		lsrs	r3, r3, #14
 765              	.LVL60:
 766              		.loc 1 1035 0
 767 007a CB5C     		ldrb	r3, [r1, r3]	@ zero_extendqisi2
 768              	.LVL61:
1036:firmware/STM32F10x_StdPeriph_Lib_V3.3.0/Libraries/STM32F10x_StdPeriph_Driver/src/stm32f10x_rcc.c ****   /* ADCCLK clock frequency */
1037:firmware/STM32F10x_StdPeriph_Lib_V3.3.0/Libraries/STM32F10x_StdPeriph_Driver/src/stm32f10x_rcc.c ****   RCC_Clocks->ADCCLK_Frequency = RCC_Clocks->PCLK2_Frequency / presc;
 769              		.loc 1 1037 0
 770 007c B2FBF3F2 		udiv	r2, r2, r3
 771 0080 0261     		str	r2, [r0, #16]
1038:firmware/STM32F10x_StdPeriph_Lib_V3.3.0/Libraries/STM32F10x_StdPeriph_Driver/src/stm32f10x_rcc.c **** }
 772              		.loc 1 1038 0
 773 0082 10BD     		pop	{r4, pc}
 774              	.L77:
 775              		.align	2
 776              	.L76:
 777 0084 00100240 		.word	1073876992
 778 0088 00127A00 		.word	8000000
 779 008c 00093D00 		.word	4000000
 780 0090 00000000 		.word	.LANCHOR0
 781 0094 00000000 		.word	.LANCHOR1
 782              		.cfi_endproc
 783              	.LFE48:
 785              		.section	.text.RCC_AHBPeriphClockCmd,"ax",%progbits
 786              		.align	1
 787              		.global	RCC_AHBPeriphClockCmd
 788              		.thumb
 789              		.thumb_func
 791              	RCC_AHBPeriphClockCmd:
 792              	.LFB49:
1039:firmware/STM32F10x_StdPeriph_Lib_V3.3.0/Libraries/STM32F10x_StdPeriph_Driver/src/stm32f10x_rcc.c **** 
1040:firmware/STM32F10x_StdPeriph_Lib_V3.3.0/Libraries/STM32F10x_StdPeriph_Driver/src/stm32f10x_rcc.c **** /**
1041:firmware/STM32F10x_StdPeriph_Lib_V3.3.0/Libraries/STM32F10x_StdPeriph_Driver/src/stm32f10x_rcc.c ****   * @brief  Enables or disables the AHB peripheral clock.
1042:firmware/STM32F10x_StdPeriph_Lib_V3.3.0/Libraries/STM32F10x_StdPeriph_Driver/src/stm32f10x_rcc.c ****   * @param  RCC_AHBPeriph: specifies the AHB peripheral to gates its clock.
1043:firmware/STM32F10x_StdPeriph_Lib_V3.3.0/Libraries/STM32F10x_StdPeriph_Driver/src/stm32f10x_rcc.c ****   *   
1044:firmware/STM32F10x_StdPeriph_Lib_V3.3.0/Libraries/STM32F10x_StdPeriph_Driver/src/stm32f10x_rcc.c ****   *   For @b STM32_Connectivity_line_devices, this parameter can be any combination
1045:firmware/STM32F10x_StdPeriph_Lib_V3.3.0/Libraries/STM32F10x_StdPeriph_Driver/src/stm32f10x_rcc.c ****   *   of the following values:        
1046:firmware/STM32F10x_StdPeriph_Lib_V3.3.0/Libraries/STM32F10x_StdPeriph_Driver/src/stm32f10x_rcc.c ****   *     @arg RCC_AHBPeriph_DMA1
1047:firmware/STM32F10x_StdPeriph_Lib_V3.3.0/Libraries/STM32F10x_StdPeriph_Driver/src/stm32f10x_rcc.c ****   *     @arg RCC_AHBPeriph_DMA2
1048:firmware/STM32F10x_StdPeriph_Lib_V3.3.0/Libraries/STM32F10x_StdPeriph_Driver/src/stm32f10x_rcc.c ****   *     @arg RCC_AHBPeriph_SRAM
1049:firmware/STM32F10x_StdPeriph_Lib_V3.3.0/Libraries/STM32F10x_StdPeriph_Driver/src/stm32f10x_rcc.c ****   *     @arg RCC_AHBPeriph_FLITF
1050:firmware/STM32F10x_StdPeriph_Lib_V3.3.0/Libraries/STM32F10x_StdPeriph_Driver/src/stm32f10x_rcc.c ****   *     @arg RCC_AHBPeriph_CRC
1051:firmware/STM32F10x_StdPeriph_Lib_V3.3.0/Libraries/STM32F10x_StdPeriph_Driver/src/stm32f10x_rcc.c ****   *     @arg RCC_AHBPeriph_OTG_FS    
1052:firmware/STM32F10x_StdPeriph_Lib_V3.3.0/Libraries/STM32F10x_StdPeriph_Driver/src/stm32f10x_rcc.c ****   *     @arg RCC_AHBPeriph_ETH_MAC   
1053:firmware/STM32F10x_StdPeriph_Lib_V3.3.0/Libraries/STM32F10x_StdPeriph_Driver/src/stm32f10x_rcc.c ****   *     @arg RCC_AHBPeriph_ETH_MAC_Tx
1054:firmware/STM32F10x_StdPeriph_Lib_V3.3.0/Libraries/STM32F10x_StdPeriph_Driver/src/stm32f10x_rcc.c ****   *     @arg RCC_AHBPeriph_ETH_MAC_Rx
1055:firmware/STM32F10x_StdPeriph_Lib_V3.3.0/Libraries/STM32F10x_StdPeriph_Driver/src/stm32f10x_rcc.c ****   * 
1056:firmware/STM32F10x_StdPeriph_Lib_V3.3.0/Libraries/STM32F10x_StdPeriph_Driver/src/stm32f10x_rcc.c ****   *   For @b other_STM32_devices, this parameter can be any combination of the 
1057:firmware/STM32F10x_StdPeriph_Lib_V3.3.0/Libraries/STM32F10x_StdPeriph_Driver/src/stm32f10x_rcc.c ****   *   following values:        
1058:firmware/STM32F10x_StdPeriph_Lib_V3.3.0/Libraries/STM32F10x_StdPeriph_Driver/src/stm32f10x_rcc.c ****   *     @arg RCC_AHBPeriph_DMA1
1059:firmware/STM32F10x_StdPeriph_Lib_V3.3.0/Libraries/STM32F10x_StdPeriph_Driver/src/stm32f10x_rcc.c ****   *     @arg RCC_AHBPeriph_DMA2
1060:firmware/STM32F10x_StdPeriph_Lib_V3.3.0/Libraries/STM32F10x_StdPeriph_Driver/src/stm32f10x_rcc.c ****   *     @arg RCC_AHBPeriph_SRAM
1061:firmware/STM32F10x_StdPeriph_Lib_V3.3.0/Libraries/STM32F10x_StdPeriph_Driver/src/stm32f10x_rcc.c ****   *     @arg RCC_AHBPeriph_FLITF
1062:firmware/STM32F10x_StdPeriph_Lib_V3.3.0/Libraries/STM32F10x_StdPeriph_Driver/src/stm32f10x_rcc.c ****   *     @arg RCC_AHBPeriph_CRC
1063:firmware/STM32F10x_StdPeriph_Lib_V3.3.0/Libraries/STM32F10x_StdPeriph_Driver/src/stm32f10x_rcc.c ****   *     @arg RCC_AHBPeriph_FSMC
1064:firmware/STM32F10x_StdPeriph_Lib_V3.3.0/Libraries/STM32F10x_StdPeriph_Driver/src/stm32f10x_rcc.c ****   *     @arg RCC_AHBPeriph_SDIO
1065:firmware/STM32F10x_StdPeriph_Lib_V3.3.0/Libraries/STM32F10x_StdPeriph_Driver/src/stm32f10x_rcc.c ****   *   
1066:firmware/STM32F10x_StdPeriph_Lib_V3.3.0/Libraries/STM32F10x_StdPeriph_Driver/src/stm32f10x_rcc.c ****   * @note SRAM and FLITF clock can be disabled only during sleep mode.
1067:firmware/STM32F10x_StdPeriph_Lib_V3.3.0/Libraries/STM32F10x_StdPeriph_Driver/src/stm32f10x_rcc.c ****   * @param  NewState: new state of the specified peripheral clock.
1068:firmware/STM32F10x_StdPeriph_Lib_V3.3.0/Libraries/STM32F10x_StdPeriph_Driver/src/stm32f10x_rcc.c ****   *   This parameter can be: ENABLE or DISABLE.
1069:firmware/STM32F10x_StdPeriph_Lib_V3.3.0/Libraries/STM32F10x_StdPeriph_Driver/src/stm32f10x_rcc.c ****   * @retval None
1070:firmware/STM32F10x_StdPeriph_Lib_V3.3.0/Libraries/STM32F10x_StdPeriph_Driver/src/stm32f10x_rcc.c ****   */
1071:firmware/STM32F10x_StdPeriph_Lib_V3.3.0/Libraries/STM32F10x_StdPeriph_Driver/src/stm32f10x_rcc.c **** void RCC_AHBPeriphClockCmd(uint32_t RCC_AHBPeriph, FunctionalState NewState)
1072:firmware/STM32F10x_StdPeriph_Lib_V3.3.0/Libraries/STM32F10x_StdPeriph_Driver/src/stm32f10x_rcc.c **** {
 793              		.loc 1 1072 0
 794              		.cfi_startproc
 795              		@ args = 0, pretend = 0, frame = 0
 796              		@ frame_needed = 0, uses_anonymous_args = 0
 797              		@ link register save eliminated.
 798              	.LVL62:
 799 0000 044B     		ldr	r3, .L82
1073:firmware/STM32F10x_StdPeriph_Lib_V3.3.0/Libraries/STM32F10x_StdPeriph_Driver/src/stm32f10x_rcc.c ****   /* Check the parameters */
1074:firmware/STM32F10x_StdPeriph_Lib_V3.3.0/Libraries/STM32F10x_StdPeriph_Driver/src/stm32f10x_rcc.c ****   assert_param(IS_RCC_AHB_PERIPH(RCC_AHBPeriph));
1075:firmware/STM32F10x_StdPeriph_Lib_V3.3.0/Libraries/STM32F10x_StdPeriph_Driver/src/stm32f10x_rcc.c ****   assert_param(IS_FUNCTIONAL_STATE(NewState));
1076:firmware/STM32F10x_StdPeriph_Lib_V3.3.0/Libraries/STM32F10x_StdPeriph_Driver/src/stm32f10x_rcc.c **** 
1077:firmware/STM32F10x_StdPeriph_Lib_V3.3.0/Libraries/STM32F10x_StdPeriph_Driver/src/stm32f10x_rcc.c ****   if (NewState != DISABLE)
 800              		.loc 1 1077 0
 801 0002 11B1     		cbz	r1, .L79
1078:firmware/STM32F10x_StdPeriph_Lib_V3.3.0/Libraries/STM32F10x_StdPeriph_Driver/src/stm32f10x_rcc.c ****   {
1079:firmware/STM32F10x_StdPeriph_Lib_V3.3.0/Libraries/STM32F10x_StdPeriph_Driver/src/stm32f10x_rcc.c ****     RCC->AHBENR |= RCC_AHBPeriph;
 802              		.loc 1 1079 0
 803 0004 5A69     		ldr	r2, [r3, #20]
 804 0006 1043     		orrs	r0, r0, r2
 805              	.LVL63:
 806 0008 02E0     		b	.L81
 807              	.LVL64:
 808              	.L79:
1080:firmware/STM32F10x_StdPeriph_Lib_V3.3.0/Libraries/STM32F10x_StdPeriph_Driver/src/stm32f10x_rcc.c ****   }
1081:firmware/STM32F10x_StdPeriph_Lib_V3.3.0/Libraries/STM32F10x_StdPeriph_Driver/src/stm32f10x_rcc.c ****   else
1082:firmware/STM32F10x_StdPeriph_Lib_V3.3.0/Libraries/STM32F10x_StdPeriph_Driver/src/stm32f10x_rcc.c ****   {
1083:firmware/STM32F10x_StdPeriph_Lib_V3.3.0/Libraries/STM32F10x_StdPeriph_Driver/src/stm32f10x_rcc.c ****     RCC->AHBENR &= ~RCC_AHBPeriph;
 809              		.loc 1 1083 0
 810 000a 5A69     		ldr	r2, [r3, #20]
 811 000c 22EA0000 		bic	r0, r2, r0
 812              	.LVL65:
 813              	.L81:
 814 0010 5861     		str	r0, [r3, #20]
 815 0012 7047     		bx	lr
 816              	.L83:
 817              		.align	2
 818              	.L82:
 819 0014 00100240 		.word	1073876992
 820              		.cfi_endproc
 821              	.LFE49:
 823              		.section	.text.RCC_APB2PeriphClockCmd,"ax",%progbits
 824              		.align	1
 825              		.global	RCC_APB2PeriphClockCmd
 826              		.thumb
 827              		.thumb_func
 829              	RCC_APB2PeriphClockCmd:
 830              	.LFB50:
1084:firmware/STM32F10x_StdPeriph_Lib_V3.3.0/Libraries/STM32F10x_StdPeriph_Driver/src/stm32f10x_rcc.c ****   }
1085:firmware/STM32F10x_StdPeriph_Lib_V3.3.0/Libraries/STM32F10x_StdPeriph_Driver/src/stm32f10x_rcc.c **** }
1086:firmware/STM32F10x_StdPeriph_Lib_V3.3.0/Libraries/STM32F10x_StdPeriph_Driver/src/stm32f10x_rcc.c **** 
1087:firmware/STM32F10x_StdPeriph_Lib_V3.3.0/Libraries/STM32F10x_StdPeriph_Driver/src/stm32f10x_rcc.c **** /**
1088:firmware/STM32F10x_StdPeriph_Lib_V3.3.0/Libraries/STM32F10x_StdPeriph_Driver/src/stm32f10x_rcc.c ****   * @brief  Enables or disables the High Speed APB (APB2) peripheral clock.
1089:firmware/STM32F10x_StdPeriph_Lib_V3.3.0/Libraries/STM32F10x_StdPeriph_Driver/src/stm32f10x_rcc.c ****   * @param  RCC_APB2Periph: specifies the APB2 peripheral to gates its clock.
1090:firmware/STM32F10x_StdPeriph_Lib_V3.3.0/Libraries/STM32F10x_StdPeriph_Driver/src/stm32f10x_rcc.c ****   *   This parameter can be any combination of the following values:
1091:firmware/STM32F10x_StdPeriph_Lib_V3.3.0/Libraries/STM32F10x_StdPeriph_Driver/src/stm32f10x_rcc.c ****   *     @arg RCC_APB2Periph_AFIO, RCC_APB2Periph_GPIOA, RCC_APB2Periph_GPIOB,
1092:firmware/STM32F10x_StdPeriph_Lib_V3.3.0/Libraries/STM32F10x_StdPeriph_Driver/src/stm32f10x_rcc.c ****   *          RCC_APB2Periph_GPIOC, RCC_APB2Periph_GPIOD, RCC_APB2Periph_GPIOE,
1093:firmware/STM32F10x_StdPeriph_Lib_V3.3.0/Libraries/STM32F10x_StdPeriph_Driver/src/stm32f10x_rcc.c ****   *          RCC_APB2Periph_GPIOF, RCC_APB2Periph_GPIOG, RCC_APB2Periph_ADC1,
1094:firmware/STM32F10x_StdPeriph_Lib_V3.3.0/Libraries/STM32F10x_StdPeriph_Driver/src/stm32f10x_rcc.c ****   *          RCC_APB2Periph_ADC2, RCC_APB2Periph_TIM1, RCC_APB2Periph_SPI1,
1095:firmware/STM32F10x_StdPeriph_Lib_V3.3.0/Libraries/STM32F10x_StdPeriph_Driver/src/stm32f10x_rcc.c ****   *          RCC_APB2Periph_TIM8, RCC_APB2Periph_USART1, RCC_APB2Periph_ADC3,
1096:firmware/STM32F10x_StdPeriph_Lib_V3.3.0/Libraries/STM32F10x_StdPeriph_Driver/src/stm32f10x_rcc.c ****   *          RCC_APB2Periph_TIM15, RCC_APB2Periph_TIM16, RCC_APB2Periph_TIM17,
1097:firmware/STM32F10x_StdPeriph_Lib_V3.3.0/Libraries/STM32F10x_StdPeriph_Driver/src/stm32f10x_rcc.c ****   *          RCC_APB2Periph_TIM9, RCC_APB2Periph_TIM10, RCC_APB2Periph_TIM11     
1098:firmware/STM32F10x_StdPeriph_Lib_V3.3.0/Libraries/STM32F10x_StdPeriph_Driver/src/stm32f10x_rcc.c ****   * @param  NewState: new state of the specified peripheral clock.
1099:firmware/STM32F10x_StdPeriph_Lib_V3.3.0/Libraries/STM32F10x_StdPeriph_Driver/src/stm32f10x_rcc.c ****   *   This parameter can be: ENABLE or DISABLE.
1100:firmware/STM32F10x_StdPeriph_Lib_V3.3.0/Libraries/STM32F10x_StdPeriph_Driver/src/stm32f10x_rcc.c ****   * @retval None
1101:firmware/STM32F10x_StdPeriph_Lib_V3.3.0/Libraries/STM32F10x_StdPeriph_Driver/src/stm32f10x_rcc.c ****   */
1102:firmware/STM32F10x_StdPeriph_Lib_V3.3.0/Libraries/STM32F10x_StdPeriph_Driver/src/stm32f10x_rcc.c **** void RCC_APB2PeriphClockCmd(uint32_t RCC_APB2Periph, FunctionalState NewState)
1103:firmware/STM32F10x_StdPeriph_Lib_V3.3.0/Libraries/STM32F10x_StdPeriph_Driver/src/stm32f10x_rcc.c **** {
 831              		.loc 1 1103 0
 832              		.cfi_startproc
 833              		@ args = 0, pretend = 0, frame = 0
 834              		@ frame_needed = 0, uses_anonymous_args = 0
 835              		@ link register save eliminated.
 836              	.LVL66:
 837 0000 044B     		ldr	r3, .L88
1104:firmware/STM32F10x_StdPeriph_Lib_V3.3.0/Libraries/STM32F10x_StdPeriph_Driver/src/stm32f10x_rcc.c ****   /* Check the parameters */
1105:firmware/STM32F10x_StdPeriph_Lib_V3.3.0/Libraries/STM32F10x_StdPeriph_Driver/src/stm32f10x_rcc.c ****   assert_param(IS_RCC_APB2_PERIPH(RCC_APB2Periph));
1106:firmware/STM32F10x_StdPeriph_Lib_V3.3.0/Libraries/STM32F10x_StdPeriph_Driver/src/stm32f10x_rcc.c ****   assert_param(IS_FUNCTIONAL_STATE(NewState));
1107:firmware/STM32F10x_StdPeriph_Lib_V3.3.0/Libraries/STM32F10x_StdPeriph_Driver/src/stm32f10x_rcc.c ****   if (NewState != DISABLE)
 838              		.loc 1 1107 0
 839 0002 11B1     		cbz	r1, .L85
1108:firmware/STM32F10x_StdPeriph_Lib_V3.3.0/Libraries/STM32F10x_StdPeriph_Driver/src/stm32f10x_rcc.c ****   {
1109:firmware/STM32F10x_StdPeriph_Lib_V3.3.0/Libraries/STM32F10x_StdPeriph_Driver/src/stm32f10x_rcc.c ****     RCC->APB2ENR |= RCC_APB2Periph;
 840              		.loc 1 1109 0
 841 0004 9A69     		ldr	r2, [r3, #24]
 842 0006 1043     		orrs	r0, r0, r2
 843              	.LVL67:
 844 0008 02E0     		b	.L87
 845              	.LVL68:
 846              	.L85:
1110:firmware/STM32F10x_StdPeriph_Lib_V3.3.0/Libraries/STM32F10x_StdPeriph_Driver/src/stm32f10x_rcc.c ****   }
1111:firmware/STM32F10x_StdPeriph_Lib_V3.3.0/Libraries/STM32F10x_StdPeriph_Driver/src/stm32f10x_rcc.c ****   else
1112:firmware/STM32F10x_StdPeriph_Lib_V3.3.0/Libraries/STM32F10x_StdPeriph_Driver/src/stm32f10x_rcc.c ****   {
1113:firmware/STM32F10x_StdPeriph_Lib_V3.3.0/Libraries/STM32F10x_StdPeriph_Driver/src/stm32f10x_rcc.c ****     RCC->APB2ENR &= ~RCC_APB2Periph;
 847              		.loc 1 1113 0
 848 000a 9A69     		ldr	r2, [r3, #24]
 849 000c 22EA0000 		bic	r0, r2, r0
 850              	.LVL69:
 851              	.L87:
 852 0010 9861     		str	r0, [r3, #24]
 853 0012 7047     		bx	lr
 854              	.L89:
 855              		.align	2
 856              	.L88:
 857 0014 00100240 		.word	1073876992
 858              		.cfi_endproc
 859              	.LFE50:
 861              		.section	.text.RCC_APB1PeriphClockCmd,"ax",%progbits
 862              		.align	1
 863              		.global	RCC_APB1PeriphClockCmd
 864              		.thumb
 865              		.thumb_func
 867              	RCC_APB1PeriphClockCmd:
 868              	.LFB51:
1114:firmware/STM32F10x_StdPeriph_Lib_V3.3.0/Libraries/STM32F10x_StdPeriph_Driver/src/stm32f10x_rcc.c ****   }
1115:firmware/STM32F10x_StdPeriph_Lib_V3.3.0/Libraries/STM32F10x_StdPeriph_Driver/src/stm32f10x_rcc.c **** }
1116:firmware/STM32F10x_StdPeriph_Lib_V3.3.0/Libraries/STM32F10x_StdPeriph_Driver/src/stm32f10x_rcc.c **** 
1117:firmware/STM32F10x_StdPeriph_Lib_V3.3.0/Libraries/STM32F10x_StdPeriph_Driver/src/stm32f10x_rcc.c **** /**
1118:firmware/STM32F10x_StdPeriph_Lib_V3.3.0/Libraries/STM32F10x_StdPeriph_Driver/src/stm32f10x_rcc.c ****   * @brief  Enables or disables the Low Speed APB (APB1) peripheral clock.
1119:firmware/STM32F10x_StdPeriph_Lib_V3.3.0/Libraries/STM32F10x_StdPeriph_Driver/src/stm32f10x_rcc.c ****   * @param  RCC_APB1Periph: specifies the APB1 peripheral to gates its clock.
1120:firmware/STM32F10x_StdPeriph_Lib_V3.3.0/Libraries/STM32F10x_StdPeriph_Driver/src/stm32f10x_rcc.c ****   *   This parameter can be any combination of the following values:
1121:firmware/STM32F10x_StdPeriph_Lib_V3.3.0/Libraries/STM32F10x_StdPeriph_Driver/src/stm32f10x_rcc.c ****   *     @arg RCC_APB1Periph_TIM2, RCC_APB1Periph_TIM3, RCC_APB1Periph_TIM4,
1122:firmware/STM32F10x_StdPeriph_Lib_V3.3.0/Libraries/STM32F10x_StdPeriph_Driver/src/stm32f10x_rcc.c ****   *          RCC_APB1Periph_TIM5, RCC_APB1Periph_TIM6, RCC_APB1Periph_TIM7,
1123:firmware/STM32F10x_StdPeriph_Lib_V3.3.0/Libraries/STM32F10x_StdPeriph_Driver/src/stm32f10x_rcc.c ****   *          RCC_APB1Periph_WWDG, RCC_APB1Periph_SPI2, RCC_APB1Periph_SPI3,
1124:firmware/STM32F10x_StdPeriph_Lib_V3.3.0/Libraries/STM32F10x_StdPeriph_Driver/src/stm32f10x_rcc.c ****   *          RCC_APB1Periph_USART2, RCC_APB1Periph_USART3, RCC_APB1Periph_USART4, 
1125:firmware/STM32F10x_StdPeriph_Lib_V3.3.0/Libraries/STM32F10x_StdPeriph_Driver/src/stm32f10x_rcc.c ****   *          RCC_APB1Periph_USART5, RCC_APB1Periph_I2C1, RCC_APB1Periph_I2C2,
1126:firmware/STM32F10x_StdPeriph_Lib_V3.3.0/Libraries/STM32F10x_StdPeriph_Driver/src/stm32f10x_rcc.c ****   *          RCC_APB1Periph_USB, RCC_APB1Periph_CAN1, RCC_APB1Periph_BKP,
1127:firmware/STM32F10x_StdPeriph_Lib_V3.3.0/Libraries/STM32F10x_StdPeriph_Driver/src/stm32f10x_rcc.c ****   *          RCC_APB1Periph_PWR, RCC_APB1Periph_DAC, RCC_APB1Periph_CEC,
1128:firmware/STM32F10x_StdPeriph_Lib_V3.3.0/Libraries/STM32F10x_StdPeriph_Driver/src/stm32f10x_rcc.c ****   *          RCC_APB1Periph_TIM12, RCC_APB1Periph_TIM13, RCC_APB1Periph_TIM14
1129:firmware/STM32F10x_StdPeriph_Lib_V3.3.0/Libraries/STM32F10x_StdPeriph_Driver/src/stm32f10x_rcc.c ****   * @param  NewState: new state of the specified peripheral clock.
1130:firmware/STM32F10x_StdPeriph_Lib_V3.3.0/Libraries/STM32F10x_StdPeriph_Driver/src/stm32f10x_rcc.c ****   *   This parameter can be: ENABLE or DISABLE.
1131:firmware/STM32F10x_StdPeriph_Lib_V3.3.0/Libraries/STM32F10x_StdPeriph_Driver/src/stm32f10x_rcc.c ****   * @retval None
1132:firmware/STM32F10x_StdPeriph_Lib_V3.3.0/Libraries/STM32F10x_StdPeriph_Driver/src/stm32f10x_rcc.c ****   */
1133:firmware/STM32F10x_StdPeriph_Lib_V3.3.0/Libraries/STM32F10x_StdPeriph_Driver/src/stm32f10x_rcc.c **** void RCC_APB1PeriphClockCmd(uint32_t RCC_APB1Periph, FunctionalState NewState)
1134:firmware/STM32F10x_StdPeriph_Lib_V3.3.0/Libraries/STM32F10x_StdPeriph_Driver/src/stm32f10x_rcc.c **** {
 869              		.loc 1 1134 0
 870              		.cfi_startproc
 871              		@ args = 0, pretend = 0, frame = 0
 872              		@ frame_needed = 0, uses_anonymous_args = 0
 873              		@ link register save eliminated.
 874              	.LVL70:
 875 0000 044B     		ldr	r3, .L94
1135:firmware/STM32F10x_StdPeriph_Lib_V3.3.0/Libraries/STM32F10x_StdPeriph_Driver/src/stm32f10x_rcc.c ****   /* Check the parameters */
1136:firmware/STM32F10x_StdPeriph_Lib_V3.3.0/Libraries/STM32F10x_StdPeriph_Driver/src/stm32f10x_rcc.c ****   assert_param(IS_RCC_APB1_PERIPH(RCC_APB1Periph));
1137:firmware/STM32F10x_StdPeriph_Lib_V3.3.0/Libraries/STM32F10x_StdPeriph_Driver/src/stm32f10x_rcc.c ****   assert_param(IS_FUNCTIONAL_STATE(NewState));
1138:firmware/STM32F10x_StdPeriph_Lib_V3.3.0/Libraries/STM32F10x_StdPeriph_Driver/src/stm32f10x_rcc.c ****   if (NewState != DISABLE)
 876              		.loc 1 1138 0
 877 0002 11B1     		cbz	r1, .L91
1139:firmware/STM32F10x_StdPeriph_Lib_V3.3.0/Libraries/STM32F10x_StdPeriph_Driver/src/stm32f10x_rcc.c ****   {
1140:firmware/STM32F10x_StdPeriph_Lib_V3.3.0/Libraries/STM32F10x_StdPeriph_Driver/src/stm32f10x_rcc.c ****     RCC->APB1ENR |= RCC_APB1Periph;
 878              		.loc 1 1140 0
 879 0004 DA69     		ldr	r2, [r3, #28]
 880 0006 1043     		orrs	r0, r0, r2
 881              	.LVL71:
 882 0008 02E0     		b	.L93
 883              	.LVL72:
 884              	.L91:
1141:firmware/STM32F10x_StdPeriph_Lib_V3.3.0/Libraries/STM32F10x_StdPeriph_Driver/src/stm32f10x_rcc.c ****   }
1142:firmware/STM32F10x_StdPeriph_Lib_V3.3.0/Libraries/STM32F10x_StdPeriph_Driver/src/stm32f10x_rcc.c ****   else
1143:firmware/STM32F10x_StdPeriph_Lib_V3.3.0/Libraries/STM32F10x_StdPeriph_Driver/src/stm32f10x_rcc.c ****   {
1144:firmware/STM32F10x_StdPeriph_Lib_V3.3.0/Libraries/STM32F10x_StdPeriph_Driver/src/stm32f10x_rcc.c ****     RCC->APB1ENR &= ~RCC_APB1Periph;
 885              		.loc 1 1144 0
 886 000a DA69     		ldr	r2, [r3, #28]
 887 000c 22EA0000 		bic	r0, r2, r0
 888              	.LVL73:
 889              	.L93:
 890 0010 D861     		str	r0, [r3, #28]
 891 0012 7047     		bx	lr
 892              	.L95:
 893              		.align	2
 894              	.L94:
 895 0014 00100240 		.word	1073876992
 896              		.cfi_endproc
 897              	.LFE51:
 899              		.section	.text.RCC_APB2PeriphResetCmd,"ax",%progbits
 900              		.align	1
 901              		.global	RCC_APB2PeriphResetCmd
 902              		.thumb
 903              		.thumb_func
 905              	RCC_APB2PeriphResetCmd:
 906              	.LFB52:
1145:firmware/STM32F10x_StdPeriph_Lib_V3.3.0/Libraries/STM32F10x_StdPeriph_Driver/src/stm32f10x_rcc.c ****   }
1146:firmware/STM32F10x_StdPeriph_Lib_V3.3.0/Libraries/STM32F10x_StdPeriph_Driver/src/stm32f10x_rcc.c **** }
1147:firmware/STM32F10x_StdPeriph_Lib_V3.3.0/Libraries/STM32F10x_StdPeriph_Driver/src/stm32f10x_rcc.c **** 
1148:firmware/STM32F10x_StdPeriph_Lib_V3.3.0/Libraries/STM32F10x_StdPeriph_Driver/src/stm32f10x_rcc.c **** #ifdef STM32F10X_CL
1149:firmware/STM32F10x_StdPeriph_Lib_V3.3.0/Libraries/STM32F10x_StdPeriph_Driver/src/stm32f10x_rcc.c **** /**
1150:firmware/STM32F10x_StdPeriph_Lib_V3.3.0/Libraries/STM32F10x_StdPeriph_Driver/src/stm32f10x_rcc.c ****   * @brief  Forces or releases AHB peripheral reset.
1151:firmware/STM32F10x_StdPeriph_Lib_V3.3.0/Libraries/STM32F10x_StdPeriph_Driver/src/stm32f10x_rcc.c ****   * @note   This function applies only to STM32 Connectivity line devices.
1152:firmware/STM32F10x_StdPeriph_Lib_V3.3.0/Libraries/STM32F10x_StdPeriph_Driver/src/stm32f10x_rcc.c ****   * @param  RCC_AHBPeriph: specifies the AHB peripheral to reset.
1153:firmware/STM32F10x_StdPeriph_Lib_V3.3.0/Libraries/STM32F10x_StdPeriph_Driver/src/stm32f10x_rcc.c ****   *   This parameter can be any combination of the following values:
1154:firmware/STM32F10x_StdPeriph_Lib_V3.3.0/Libraries/STM32F10x_StdPeriph_Driver/src/stm32f10x_rcc.c ****   *     @arg RCC_AHBPeriph_OTG_FS 
1155:firmware/STM32F10x_StdPeriph_Lib_V3.3.0/Libraries/STM32F10x_StdPeriph_Driver/src/stm32f10x_rcc.c ****   *     @arg RCC_AHBPeriph_ETH_MAC
1156:firmware/STM32F10x_StdPeriph_Lib_V3.3.0/Libraries/STM32F10x_StdPeriph_Driver/src/stm32f10x_rcc.c ****   * @param  NewState: new state of the specified peripheral reset.
1157:firmware/STM32F10x_StdPeriph_Lib_V3.3.0/Libraries/STM32F10x_StdPeriph_Driver/src/stm32f10x_rcc.c ****   *   This parameter can be: ENABLE or DISABLE.
1158:firmware/STM32F10x_StdPeriph_Lib_V3.3.0/Libraries/STM32F10x_StdPeriph_Driver/src/stm32f10x_rcc.c ****   * @retval None
1159:firmware/STM32F10x_StdPeriph_Lib_V3.3.0/Libraries/STM32F10x_StdPeriph_Driver/src/stm32f10x_rcc.c ****   */
1160:firmware/STM32F10x_StdPeriph_Lib_V3.3.0/Libraries/STM32F10x_StdPeriph_Driver/src/stm32f10x_rcc.c **** void RCC_AHBPeriphResetCmd(uint32_t RCC_AHBPeriph, FunctionalState NewState)
1161:firmware/STM32F10x_StdPeriph_Lib_V3.3.0/Libraries/STM32F10x_StdPeriph_Driver/src/stm32f10x_rcc.c **** {
1162:firmware/STM32F10x_StdPeriph_Lib_V3.3.0/Libraries/STM32F10x_StdPeriph_Driver/src/stm32f10x_rcc.c ****   /* Check the parameters */
1163:firmware/STM32F10x_StdPeriph_Lib_V3.3.0/Libraries/STM32F10x_StdPeriph_Driver/src/stm32f10x_rcc.c ****   assert_param(IS_RCC_AHB_PERIPH_RESET(RCC_AHBPeriph));
1164:firmware/STM32F10x_StdPeriph_Lib_V3.3.0/Libraries/STM32F10x_StdPeriph_Driver/src/stm32f10x_rcc.c ****   assert_param(IS_FUNCTIONAL_STATE(NewState));
1165:firmware/STM32F10x_StdPeriph_Lib_V3.3.0/Libraries/STM32F10x_StdPeriph_Driver/src/stm32f10x_rcc.c **** 
1166:firmware/STM32F10x_StdPeriph_Lib_V3.3.0/Libraries/STM32F10x_StdPeriph_Driver/src/stm32f10x_rcc.c ****   if (NewState != DISABLE)
1167:firmware/STM32F10x_StdPeriph_Lib_V3.3.0/Libraries/STM32F10x_StdPeriph_Driver/src/stm32f10x_rcc.c ****   {
1168:firmware/STM32F10x_StdPeriph_Lib_V3.3.0/Libraries/STM32F10x_StdPeriph_Driver/src/stm32f10x_rcc.c ****     RCC->AHBRSTR |= RCC_AHBPeriph;
1169:firmware/STM32F10x_StdPeriph_Lib_V3.3.0/Libraries/STM32F10x_StdPeriph_Driver/src/stm32f10x_rcc.c ****   }
1170:firmware/STM32F10x_StdPeriph_Lib_V3.3.0/Libraries/STM32F10x_StdPeriph_Driver/src/stm32f10x_rcc.c ****   else
1171:firmware/STM32F10x_StdPeriph_Lib_V3.3.0/Libraries/STM32F10x_StdPeriph_Driver/src/stm32f10x_rcc.c ****   {
1172:firmware/STM32F10x_StdPeriph_Lib_V3.3.0/Libraries/STM32F10x_StdPeriph_Driver/src/stm32f10x_rcc.c ****     RCC->AHBRSTR &= ~RCC_AHBPeriph;
1173:firmware/STM32F10x_StdPeriph_Lib_V3.3.0/Libraries/STM32F10x_StdPeriph_Driver/src/stm32f10x_rcc.c ****   }
1174:firmware/STM32F10x_StdPeriph_Lib_V3.3.0/Libraries/STM32F10x_StdPeriph_Driver/src/stm32f10x_rcc.c **** }
1175:firmware/STM32F10x_StdPeriph_Lib_V3.3.0/Libraries/STM32F10x_StdPeriph_Driver/src/stm32f10x_rcc.c **** #endif /* STM32F10X_CL */ 
1176:firmware/STM32F10x_StdPeriph_Lib_V3.3.0/Libraries/STM32F10x_StdPeriph_Driver/src/stm32f10x_rcc.c **** 
1177:firmware/STM32F10x_StdPeriph_Lib_V3.3.0/Libraries/STM32F10x_StdPeriph_Driver/src/stm32f10x_rcc.c **** /**
1178:firmware/STM32F10x_StdPeriph_Lib_V3.3.0/Libraries/STM32F10x_StdPeriph_Driver/src/stm32f10x_rcc.c ****   * @brief  Forces or releases High Speed APB (APB2) peripheral reset.
1179:firmware/STM32F10x_StdPeriph_Lib_V3.3.0/Libraries/STM32F10x_StdPeriph_Driver/src/stm32f10x_rcc.c ****   * @param  RCC_APB2Periph: specifies the APB2 peripheral to reset.
1180:firmware/STM32F10x_StdPeriph_Lib_V3.3.0/Libraries/STM32F10x_StdPeriph_Driver/src/stm32f10x_rcc.c ****   *   This parameter can be any combination of the following values:
1181:firmware/STM32F10x_StdPeriph_Lib_V3.3.0/Libraries/STM32F10x_StdPeriph_Driver/src/stm32f10x_rcc.c ****   *     @arg RCC_APB2Periph_AFIO, RCC_APB2Periph_GPIOA, RCC_APB2Periph_GPIOB,
1182:firmware/STM32F10x_StdPeriph_Lib_V3.3.0/Libraries/STM32F10x_StdPeriph_Driver/src/stm32f10x_rcc.c ****   *          RCC_APB2Periph_GPIOC, RCC_APB2Periph_GPIOD, RCC_APB2Periph_GPIOE,
1183:firmware/STM32F10x_StdPeriph_Lib_V3.3.0/Libraries/STM32F10x_StdPeriph_Driver/src/stm32f10x_rcc.c ****   *          RCC_APB2Periph_GPIOF, RCC_APB2Periph_GPIOG, RCC_APB2Periph_ADC1,
1184:firmware/STM32F10x_StdPeriph_Lib_V3.3.0/Libraries/STM32F10x_StdPeriph_Driver/src/stm32f10x_rcc.c ****   *          RCC_APB2Periph_ADC2, RCC_APB2Periph_TIM1, RCC_APB2Periph_SPI1,
1185:firmware/STM32F10x_StdPeriph_Lib_V3.3.0/Libraries/STM32F10x_StdPeriph_Driver/src/stm32f10x_rcc.c ****   *          RCC_APB2Periph_TIM8, RCC_APB2Periph_USART1, RCC_APB2Periph_ADC3,
1186:firmware/STM32F10x_StdPeriph_Lib_V3.3.0/Libraries/STM32F10x_StdPeriph_Driver/src/stm32f10x_rcc.c ****   *          RCC_APB2Periph_TIM15, RCC_APB2Periph_TIM16, RCC_APB2Periph_TIM17,
1187:firmware/STM32F10x_StdPeriph_Lib_V3.3.0/Libraries/STM32F10x_StdPeriph_Driver/src/stm32f10x_rcc.c ****   *          RCC_APB2Periph_TIM9, RCC_APB2Periph_TIM10, RCC_APB2Periph_TIM11  
1188:firmware/STM32F10x_StdPeriph_Lib_V3.3.0/Libraries/STM32F10x_StdPeriph_Driver/src/stm32f10x_rcc.c ****   * @param  NewState: new state of the specified peripheral reset.
1189:firmware/STM32F10x_StdPeriph_Lib_V3.3.0/Libraries/STM32F10x_StdPeriph_Driver/src/stm32f10x_rcc.c ****   *   This parameter can be: ENABLE or DISABLE.
1190:firmware/STM32F10x_StdPeriph_Lib_V3.3.0/Libraries/STM32F10x_StdPeriph_Driver/src/stm32f10x_rcc.c ****   * @retval None
1191:firmware/STM32F10x_StdPeriph_Lib_V3.3.0/Libraries/STM32F10x_StdPeriph_Driver/src/stm32f10x_rcc.c ****   */
1192:firmware/STM32F10x_StdPeriph_Lib_V3.3.0/Libraries/STM32F10x_StdPeriph_Driver/src/stm32f10x_rcc.c **** void RCC_APB2PeriphResetCmd(uint32_t RCC_APB2Periph, FunctionalState NewState)
1193:firmware/STM32F10x_StdPeriph_Lib_V3.3.0/Libraries/STM32F10x_StdPeriph_Driver/src/stm32f10x_rcc.c **** {
 907              		.loc 1 1193 0
 908              		.cfi_startproc
 909              		@ args = 0, pretend = 0, frame = 0
 910              		@ frame_needed = 0, uses_anonymous_args = 0
 911              		@ link register save eliminated.
 912              	.LVL74:
 913 0000 044B     		ldr	r3, .L100
1194:firmware/STM32F10x_StdPeriph_Lib_V3.3.0/Libraries/STM32F10x_StdPeriph_Driver/src/stm32f10x_rcc.c ****   /* Check the parameters */
1195:firmware/STM32F10x_StdPeriph_Lib_V3.3.0/Libraries/STM32F10x_StdPeriph_Driver/src/stm32f10x_rcc.c ****   assert_param(IS_RCC_APB2_PERIPH(RCC_APB2Periph));
1196:firmware/STM32F10x_StdPeriph_Lib_V3.3.0/Libraries/STM32F10x_StdPeriph_Driver/src/stm32f10x_rcc.c ****   assert_param(IS_FUNCTIONAL_STATE(NewState));
1197:firmware/STM32F10x_StdPeriph_Lib_V3.3.0/Libraries/STM32F10x_StdPeriph_Driver/src/stm32f10x_rcc.c ****   if (NewState != DISABLE)
 914              		.loc 1 1197 0
 915 0002 11B1     		cbz	r1, .L97
1198:firmware/STM32F10x_StdPeriph_Lib_V3.3.0/Libraries/STM32F10x_StdPeriph_Driver/src/stm32f10x_rcc.c ****   {
1199:firmware/STM32F10x_StdPeriph_Lib_V3.3.0/Libraries/STM32F10x_StdPeriph_Driver/src/stm32f10x_rcc.c ****     RCC->APB2RSTR |= RCC_APB2Periph;
 916              		.loc 1 1199 0
 917 0004 DA68     		ldr	r2, [r3, #12]
 918 0006 1043     		orrs	r0, r0, r2
 919              	.LVL75:
 920 0008 02E0     		b	.L99
 921              	.LVL76:
 922              	.L97:
1200:firmware/STM32F10x_StdPeriph_Lib_V3.3.0/Libraries/STM32F10x_StdPeriph_Driver/src/stm32f10x_rcc.c ****   }
1201:firmware/STM32F10x_StdPeriph_Lib_V3.3.0/Libraries/STM32F10x_StdPeriph_Driver/src/stm32f10x_rcc.c ****   else
1202:firmware/STM32F10x_StdPeriph_Lib_V3.3.0/Libraries/STM32F10x_StdPeriph_Driver/src/stm32f10x_rcc.c ****   {
1203:firmware/STM32F10x_StdPeriph_Lib_V3.3.0/Libraries/STM32F10x_StdPeriph_Driver/src/stm32f10x_rcc.c ****     RCC->APB2RSTR &= ~RCC_APB2Periph;
 923              		.loc 1 1203 0
 924 000a DA68     		ldr	r2, [r3, #12]
 925 000c 22EA0000 		bic	r0, r2, r0
 926              	.LVL77:
 927              	.L99:
 928 0010 D860     		str	r0, [r3, #12]
 929 0012 7047     		bx	lr
 930              	.L101:
 931              		.align	2
 932              	.L100:
 933 0014 00100240 		.word	1073876992
 934              		.cfi_endproc
 935              	.LFE52:
 937              		.section	.text.RCC_APB1PeriphResetCmd,"ax",%progbits
 938              		.align	1
 939              		.global	RCC_APB1PeriphResetCmd
 940              		.thumb
 941              		.thumb_func
 943              	RCC_APB1PeriphResetCmd:
 944              	.LFB53:
1204:firmware/STM32F10x_StdPeriph_Lib_V3.3.0/Libraries/STM32F10x_StdPeriph_Driver/src/stm32f10x_rcc.c ****   }
1205:firmware/STM32F10x_StdPeriph_Lib_V3.3.0/Libraries/STM32F10x_StdPeriph_Driver/src/stm32f10x_rcc.c **** }
1206:firmware/STM32F10x_StdPeriph_Lib_V3.3.0/Libraries/STM32F10x_StdPeriph_Driver/src/stm32f10x_rcc.c **** 
1207:firmware/STM32F10x_StdPeriph_Lib_V3.3.0/Libraries/STM32F10x_StdPeriph_Driver/src/stm32f10x_rcc.c **** /**
1208:firmware/STM32F10x_StdPeriph_Lib_V3.3.0/Libraries/STM32F10x_StdPeriph_Driver/src/stm32f10x_rcc.c ****   * @brief  Forces or releases Low Speed APB (APB1) peripheral reset.
1209:firmware/STM32F10x_StdPeriph_Lib_V3.3.0/Libraries/STM32F10x_StdPeriph_Driver/src/stm32f10x_rcc.c ****   * @param  RCC_APB1Periph: specifies the APB1 peripheral to reset.
1210:firmware/STM32F10x_StdPeriph_Lib_V3.3.0/Libraries/STM32F10x_StdPeriph_Driver/src/stm32f10x_rcc.c ****   *   This parameter can be any combination of the following values:
1211:firmware/STM32F10x_StdPeriph_Lib_V3.3.0/Libraries/STM32F10x_StdPeriph_Driver/src/stm32f10x_rcc.c ****   *     @arg RCC_APB1Periph_TIM2, RCC_APB1Periph_TIM3, RCC_APB1Periph_TIM4,
1212:firmware/STM32F10x_StdPeriph_Lib_V3.3.0/Libraries/STM32F10x_StdPeriph_Driver/src/stm32f10x_rcc.c ****   *          RCC_APB1Periph_TIM5, RCC_APB1Periph_TIM6, RCC_APB1Periph_TIM7,
1213:firmware/STM32F10x_StdPeriph_Lib_V3.3.0/Libraries/STM32F10x_StdPeriph_Driver/src/stm32f10x_rcc.c ****   *          RCC_APB1Periph_WWDG, RCC_APB1Periph_SPI2, RCC_APB1Periph_SPI3,
1214:firmware/STM32F10x_StdPeriph_Lib_V3.3.0/Libraries/STM32F10x_StdPeriph_Driver/src/stm32f10x_rcc.c ****   *          RCC_APB1Periph_USART2, RCC_APB1Periph_USART3, RCC_APB1Periph_USART4, 
1215:firmware/STM32F10x_StdPeriph_Lib_V3.3.0/Libraries/STM32F10x_StdPeriph_Driver/src/stm32f10x_rcc.c ****   *          RCC_APB1Periph_USART5, RCC_APB1Periph_I2C1, RCC_APB1Periph_I2C2,
1216:firmware/STM32F10x_StdPeriph_Lib_V3.3.0/Libraries/STM32F10x_StdPeriph_Driver/src/stm32f10x_rcc.c ****   *          RCC_APB1Periph_USB, RCC_APB1Periph_CAN1, RCC_APB1Periph_BKP,
1217:firmware/STM32F10x_StdPeriph_Lib_V3.3.0/Libraries/STM32F10x_StdPeriph_Driver/src/stm32f10x_rcc.c ****   *          RCC_APB1Periph_PWR, RCC_APB1Periph_DAC, RCC_APB1Periph_CEC,
1218:firmware/STM32F10x_StdPeriph_Lib_V3.3.0/Libraries/STM32F10x_StdPeriph_Driver/src/stm32f10x_rcc.c ****   *          RCC_APB1Periph_TIM12, RCC_APB1Periph_TIM13, RCC_APB1Periph_TIM14  
1219:firmware/STM32F10x_StdPeriph_Lib_V3.3.0/Libraries/STM32F10x_StdPeriph_Driver/src/stm32f10x_rcc.c ****   * @param  NewState: new state of the specified peripheral clock.
1220:firmware/STM32F10x_StdPeriph_Lib_V3.3.0/Libraries/STM32F10x_StdPeriph_Driver/src/stm32f10x_rcc.c ****   *   This parameter can be: ENABLE or DISABLE.
1221:firmware/STM32F10x_StdPeriph_Lib_V3.3.0/Libraries/STM32F10x_StdPeriph_Driver/src/stm32f10x_rcc.c ****   * @retval None
1222:firmware/STM32F10x_StdPeriph_Lib_V3.3.0/Libraries/STM32F10x_StdPeriph_Driver/src/stm32f10x_rcc.c ****   */
1223:firmware/STM32F10x_StdPeriph_Lib_V3.3.0/Libraries/STM32F10x_StdPeriph_Driver/src/stm32f10x_rcc.c **** void RCC_APB1PeriphResetCmd(uint32_t RCC_APB1Periph, FunctionalState NewState)
1224:firmware/STM32F10x_StdPeriph_Lib_V3.3.0/Libraries/STM32F10x_StdPeriph_Driver/src/stm32f10x_rcc.c **** {
 945              		.loc 1 1224 0
 946              		.cfi_startproc
 947              		@ args = 0, pretend = 0, frame = 0
 948              		@ frame_needed = 0, uses_anonymous_args = 0
 949              		@ link register save eliminated.
 950              	.LVL78:
 951 0000 044B     		ldr	r3, .L106
1225:firmware/STM32F10x_StdPeriph_Lib_V3.3.0/Libraries/STM32F10x_StdPeriph_Driver/src/stm32f10x_rcc.c ****   /* Check the parameters */
1226:firmware/STM32F10x_StdPeriph_Lib_V3.3.0/Libraries/STM32F10x_StdPeriph_Driver/src/stm32f10x_rcc.c ****   assert_param(IS_RCC_APB1_PERIPH(RCC_APB1Periph));
1227:firmware/STM32F10x_StdPeriph_Lib_V3.3.0/Libraries/STM32F10x_StdPeriph_Driver/src/stm32f10x_rcc.c ****   assert_param(IS_FUNCTIONAL_STATE(NewState));
1228:firmware/STM32F10x_StdPeriph_Lib_V3.3.0/Libraries/STM32F10x_StdPeriph_Driver/src/stm32f10x_rcc.c ****   if (NewState != DISABLE)
 952              		.loc 1 1228 0
 953 0002 11B1     		cbz	r1, .L103
1229:firmware/STM32F10x_StdPeriph_Lib_V3.3.0/Libraries/STM32F10x_StdPeriph_Driver/src/stm32f10x_rcc.c ****   {
1230:firmware/STM32F10x_StdPeriph_Lib_V3.3.0/Libraries/STM32F10x_StdPeriph_Driver/src/stm32f10x_rcc.c ****     RCC->APB1RSTR |= RCC_APB1Periph;
 954              		.loc 1 1230 0
 955 0004 1A69     		ldr	r2, [r3, #16]
 956 0006 1043     		orrs	r0, r0, r2
 957              	.LVL79:
 958 0008 02E0     		b	.L105
 959              	.LVL80:
 960              	.L103:
1231:firmware/STM32F10x_StdPeriph_Lib_V3.3.0/Libraries/STM32F10x_StdPeriph_Driver/src/stm32f10x_rcc.c ****   }
1232:firmware/STM32F10x_StdPeriph_Lib_V3.3.0/Libraries/STM32F10x_StdPeriph_Driver/src/stm32f10x_rcc.c ****   else
1233:firmware/STM32F10x_StdPeriph_Lib_V3.3.0/Libraries/STM32F10x_StdPeriph_Driver/src/stm32f10x_rcc.c ****   {
1234:firmware/STM32F10x_StdPeriph_Lib_V3.3.0/Libraries/STM32F10x_StdPeriph_Driver/src/stm32f10x_rcc.c ****     RCC->APB1RSTR &= ~RCC_APB1Periph;
 961              		.loc 1 1234 0
 962 000a 1A69     		ldr	r2, [r3, #16]
 963 000c 22EA0000 		bic	r0, r2, r0
 964              	.LVL81:
 965              	.L105:
 966 0010 1861     		str	r0, [r3, #16]
 967 0012 7047     		bx	lr
 968              	.L107:
 969              		.align	2
 970              	.L106:
 971 0014 00100240 		.word	1073876992
 972              		.cfi_endproc
 973              	.LFE53:
 975              		.section	.text.RCC_BackupResetCmd,"ax",%progbits
 976              		.align	1
 977              		.global	RCC_BackupResetCmd
 978              		.thumb
 979              		.thumb_func
 981              	RCC_BackupResetCmd:
 982              	.LFB54:
1235:firmware/STM32F10x_StdPeriph_Lib_V3.3.0/Libraries/STM32F10x_StdPeriph_Driver/src/stm32f10x_rcc.c ****   }
1236:firmware/STM32F10x_StdPeriph_Lib_V3.3.0/Libraries/STM32F10x_StdPeriph_Driver/src/stm32f10x_rcc.c **** }
1237:firmware/STM32F10x_StdPeriph_Lib_V3.3.0/Libraries/STM32F10x_StdPeriph_Driver/src/stm32f10x_rcc.c **** 
1238:firmware/STM32F10x_StdPeriph_Lib_V3.3.0/Libraries/STM32F10x_StdPeriph_Driver/src/stm32f10x_rcc.c **** /**
1239:firmware/STM32F10x_StdPeriph_Lib_V3.3.0/Libraries/STM32F10x_StdPeriph_Driver/src/stm32f10x_rcc.c ****   * @brief  Forces or releases the Backup domain reset.
1240:firmware/STM32F10x_StdPeriph_Lib_V3.3.0/Libraries/STM32F10x_StdPeriph_Driver/src/stm32f10x_rcc.c ****   * @param  NewState: new state of the Backup domain reset.
1241:firmware/STM32F10x_StdPeriph_Lib_V3.3.0/Libraries/STM32F10x_StdPeriph_Driver/src/stm32f10x_rcc.c ****   *   This parameter can be: ENABLE or DISABLE.
1242:firmware/STM32F10x_StdPeriph_Lib_V3.3.0/Libraries/STM32F10x_StdPeriph_Driver/src/stm32f10x_rcc.c ****   * @retval None
1243:firmware/STM32F10x_StdPeriph_Lib_V3.3.0/Libraries/STM32F10x_StdPeriph_Driver/src/stm32f10x_rcc.c ****   */
1244:firmware/STM32F10x_StdPeriph_Lib_V3.3.0/Libraries/STM32F10x_StdPeriph_Driver/src/stm32f10x_rcc.c **** void RCC_BackupResetCmd(FunctionalState NewState)
1245:firmware/STM32F10x_StdPeriph_Lib_V3.3.0/Libraries/STM32F10x_StdPeriph_Driver/src/stm32f10x_rcc.c **** {
 983              		.loc 1 1245 0
 984              		.cfi_startproc
 985              		@ args = 0, pretend = 0, frame = 0
 986              		@ frame_needed = 0, uses_anonymous_args = 0
 987              		@ link register save eliminated.
 988              	.LVL82:
1246:firmware/STM32F10x_StdPeriph_Lib_V3.3.0/Libraries/STM32F10x_StdPeriph_Driver/src/stm32f10x_rcc.c ****   /* Check the parameters */
1247:firmware/STM32F10x_StdPeriph_Lib_V3.3.0/Libraries/STM32F10x_StdPeriph_Driver/src/stm32f10x_rcc.c ****   assert_param(IS_FUNCTIONAL_STATE(NewState));
1248:firmware/STM32F10x_StdPeriph_Lib_V3.3.0/Libraries/STM32F10x_StdPeriph_Driver/src/stm32f10x_rcc.c ****   *(__IO uint32_t *) BDCR_BDRST_BB = (uint32_t)NewState;
 989              		.loc 1 1248 0
 990 0000 014B     		ldr	r3, .L109
 991 0002 1860     		str	r0, [r3, #0]
1249:firmware/STM32F10x_StdPeriph_Lib_V3.3.0/Libraries/STM32F10x_StdPeriph_Driver/src/stm32f10x_rcc.c **** }
 992              		.loc 1 1249 0
 993 0004 7047     		bx	lr
 994              	.L110:
 995 0006 00BF     		.align	2
 996              	.L109:
 997 0008 40044242 		.word	1111622720
 998              		.cfi_endproc
 999              	.LFE54:
 1001              		.section	.text.RCC_ClockSecuritySystemCmd,"ax",%progbits
 1002              		.align	1
 1003              		.global	RCC_ClockSecuritySystemCmd
 1004              		.thumb
 1005              		.thumb_func
 1007              	RCC_ClockSecuritySystemCmd:
 1008              	.LFB55:
1250:firmware/STM32F10x_StdPeriph_Lib_V3.3.0/Libraries/STM32F10x_StdPeriph_Driver/src/stm32f10x_rcc.c **** 
1251:firmware/STM32F10x_StdPeriph_Lib_V3.3.0/Libraries/STM32F10x_StdPeriph_Driver/src/stm32f10x_rcc.c **** /**
1252:firmware/STM32F10x_StdPeriph_Lib_V3.3.0/Libraries/STM32F10x_StdPeriph_Driver/src/stm32f10x_rcc.c ****   * @brief  Enables or disables the Clock Security System.
1253:firmware/STM32F10x_StdPeriph_Lib_V3.3.0/Libraries/STM32F10x_StdPeriph_Driver/src/stm32f10x_rcc.c ****   * @param  NewState: new state of the Clock Security System..
1254:firmware/STM32F10x_StdPeriph_Lib_V3.3.0/Libraries/STM32F10x_StdPeriph_Driver/src/stm32f10x_rcc.c ****   *   This parameter can be: ENABLE or DISABLE.
1255:firmware/STM32F10x_StdPeriph_Lib_V3.3.0/Libraries/STM32F10x_StdPeriph_Driver/src/stm32f10x_rcc.c ****   * @retval None
1256:firmware/STM32F10x_StdPeriph_Lib_V3.3.0/Libraries/STM32F10x_StdPeriph_Driver/src/stm32f10x_rcc.c ****   */
1257:firmware/STM32F10x_StdPeriph_Lib_V3.3.0/Libraries/STM32F10x_StdPeriph_Driver/src/stm32f10x_rcc.c **** void RCC_ClockSecuritySystemCmd(FunctionalState NewState)
1258:firmware/STM32F10x_StdPeriph_Lib_V3.3.0/Libraries/STM32F10x_StdPeriph_Driver/src/stm32f10x_rcc.c **** {
 1009              		.loc 1 1258 0
 1010              		.cfi_startproc
 1011              		@ args = 0, pretend = 0, frame = 0
 1012              		@ frame_needed = 0, uses_anonymous_args = 0
 1013              		@ link register save eliminated.
 1014              	.LVL83:
1259:firmware/STM32F10x_StdPeriph_Lib_V3.3.0/Libraries/STM32F10x_StdPeriph_Driver/src/stm32f10x_rcc.c ****   /* Check the parameters */
1260:firmware/STM32F10x_StdPeriph_Lib_V3.3.0/Libraries/STM32F10x_StdPeriph_Driver/src/stm32f10x_rcc.c ****   assert_param(IS_FUNCTIONAL_STATE(NewState));
1261:firmware/STM32F10x_StdPeriph_Lib_V3.3.0/Libraries/STM32F10x_StdPeriph_Driver/src/stm32f10x_rcc.c ****   *(__IO uint32_t *) CR_CSSON_BB = (uint32_t)NewState;
 1015              		.loc 1 1261 0
 1016 0000 014B     		ldr	r3, .L112
 1017 0002 1860     		str	r0, [r3, #0]
1262:firmware/STM32F10x_StdPeriph_Lib_V3.3.0/Libraries/STM32F10x_StdPeriph_Driver/src/stm32f10x_rcc.c **** }
 1018              		.loc 1 1262 0
 1019 0004 7047     		bx	lr
 1020              	.L113:
 1021 0006 00BF     		.align	2
 1022              	.L112:
 1023 0008 4C004242 		.word	1111621708
 1024              		.cfi_endproc
 1025              	.LFE55:
 1027              		.section	.text.RCC_MCOConfig,"ax",%progbits
 1028              		.align	1
 1029              		.global	RCC_MCOConfig
 1030              		.thumb
 1031              		.thumb_func
 1033              	RCC_MCOConfig:
 1034              	.LFB56:
1263:firmware/STM32F10x_StdPeriph_Lib_V3.3.0/Libraries/STM32F10x_StdPeriph_Driver/src/stm32f10x_rcc.c **** 
1264:firmware/STM32F10x_StdPeriph_Lib_V3.3.0/Libraries/STM32F10x_StdPeriph_Driver/src/stm32f10x_rcc.c **** /**
1265:firmware/STM32F10x_StdPeriph_Lib_V3.3.0/Libraries/STM32F10x_StdPeriph_Driver/src/stm32f10x_rcc.c ****   * @brief  Selects the clock source to output on MCO pin.
1266:firmware/STM32F10x_StdPeriph_Lib_V3.3.0/Libraries/STM32F10x_StdPeriph_Driver/src/stm32f10x_rcc.c ****   * @param  RCC_MCO: specifies the clock source to output.
1267:firmware/STM32F10x_StdPeriph_Lib_V3.3.0/Libraries/STM32F10x_StdPeriph_Driver/src/stm32f10x_rcc.c ****   *   
1268:firmware/STM32F10x_StdPeriph_Lib_V3.3.0/Libraries/STM32F10x_StdPeriph_Driver/src/stm32f10x_rcc.c ****   *   For @b STM32_Connectivity_line_devices, this parameter can be one of the
1269:firmware/STM32F10x_StdPeriph_Lib_V3.3.0/Libraries/STM32F10x_StdPeriph_Driver/src/stm32f10x_rcc.c ****   *   following values:       
1270:firmware/STM32F10x_StdPeriph_Lib_V3.3.0/Libraries/STM32F10x_StdPeriph_Driver/src/stm32f10x_rcc.c ****   *     @arg RCC_MCO_NoClock: No clock selected
1271:firmware/STM32F10x_StdPeriph_Lib_V3.3.0/Libraries/STM32F10x_StdPeriph_Driver/src/stm32f10x_rcc.c ****   *     @arg RCC_MCO_SYSCLK: System clock selected
1272:firmware/STM32F10x_StdPeriph_Lib_V3.3.0/Libraries/STM32F10x_StdPeriph_Driver/src/stm32f10x_rcc.c ****   *     @arg RCC_MCO_HSI: HSI oscillator clock selected
1273:firmware/STM32F10x_StdPeriph_Lib_V3.3.0/Libraries/STM32F10x_StdPeriph_Driver/src/stm32f10x_rcc.c ****   *     @arg RCC_MCO_HSE: HSE oscillator clock selected
1274:firmware/STM32F10x_StdPeriph_Lib_V3.3.0/Libraries/STM32F10x_StdPeriph_Driver/src/stm32f10x_rcc.c ****   *     @arg RCC_MCO_PLLCLK_Div2: PLL clock divided by 2 selected
1275:firmware/STM32F10x_StdPeriph_Lib_V3.3.0/Libraries/STM32F10x_StdPeriph_Driver/src/stm32f10x_rcc.c ****   *     @arg RCC_MCO_PLL2CLK: PLL2 clock selected                     
1276:firmware/STM32F10x_StdPeriph_Lib_V3.3.0/Libraries/STM32F10x_StdPeriph_Driver/src/stm32f10x_rcc.c ****   *     @arg RCC_MCO_PLL3CLK_Div2: PLL3 clock divided by 2 selected   
1277:firmware/STM32F10x_StdPeriph_Lib_V3.3.0/Libraries/STM32F10x_StdPeriph_Driver/src/stm32f10x_rcc.c ****   *     @arg RCC_MCO_XT1: External 3-25 MHz oscillator clock selected  
1278:firmware/STM32F10x_StdPeriph_Lib_V3.3.0/Libraries/STM32F10x_StdPeriph_Driver/src/stm32f10x_rcc.c ****   *     @arg RCC_MCO_PLL3CLK: PLL3 clock selected 
1279:firmware/STM32F10x_StdPeriph_Lib_V3.3.0/Libraries/STM32F10x_StdPeriph_Driver/src/stm32f10x_rcc.c ****   * 
1280:firmware/STM32F10x_StdPeriph_Lib_V3.3.0/Libraries/STM32F10x_StdPeriph_Driver/src/stm32f10x_rcc.c ****   *   For  @b other_STM32_devices, this parameter can be one of the following values:        
1281:firmware/STM32F10x_StdPeriph_Lib_V3.3.0/Libraries/STM32F10x_StdPeriph_Driver/src/stm32f10x_rcc.c ****   *     @arg RCC_MCO_NoClock: No clock selected
1282:firmware/STM32F10x_StdPeriph_Lib_V3.3.0/Libraries/STM32F10x_StdPeriph_Driver/src/stm32f10x_rcc.c ****   *     @arg RCC_MCO_SYSCLK: System clock selected
1283:firmware/STM32F10x_StdPeriph_Lib_V3.3.0/Libraries/STM32F10x_StdPeriph_Driver/src/stm32f10x_rcc.c ****   *     @arg RCC_MCO_HSI: HSI oscillator clock selected
1284:firmware/STM32F10x_StdPeriph_Lib_V3.3.0/Libraries/STM32F10x_StdPeriph_Driver/src/stm32f10x_rcc.c ****   *     @arg RCC_MCO_HSE: HSE oscillator clock selected
1285:firmware/STM32F10x_StdPeriph_Lib_V3.3.0/Libraries/STM32F10x_StdPeriph_Driver/src/stm32f10x_rcc.c ****   *     @arg RCC_MCO_PLLCLK_Div2: PLL clock divided by 2 selected
1286:firmware/STM32F10x_StdPeriph_Lib_V3.3.0/Libraries/STM32F10x_StdPeriph_Driver/src/stm32f10x_rcc.c ****   *   
1287:firmware/STM32F10x_StdPeriph_Lib_V3.3.0/Libraries/STM32F10x_StdPeriph_Driver/src/stm32f10x_rcc.c ****   * @retval None
1288:firmware/STM32F10x_StdPeriph_Lib_V3.3.0/Libraries/STM32F10x_StdPeriph_Driver/src/stm32f10x_rcc.c ****   */
1289:firmware/STM32F10x_StdPeriph_Lib_V3.3.0/Libraries/STM32F10x_StdPeriph_Driver/src/stm32f10x_rcc.c **** void RCC_MCOConfig(uint8_t RCC_MCO)
1290:firmware/STM32F10x_StdPeriph_Lib_V3.3.0/Libraries/STM32F10x_StdPeriph_Driver/src/stm32f10x_rcc.c **** {
 1035              		.loc 1 1290 0
 1036              		.cfi_startproc
 1037              		@ args = 0, pretend = 0, frame = 0
 1038              		@ frame_needed = 0, uses_anonymous_args = 0
 1039              		@ link register save eliminated.
 1040              	.LVL84:
1291:firmware/STM32F10x_StdPeriph_Lib_V3.3.0/Libraries/STM32F10x_StdPeriph_Driver/src/stm32f10x_rcc.c ****   /* Check the parameters */
1292:firmware/STM32F10x_StdPeriph_Lib_V3.3.0/Libraries/STM32F10x_StdPeriph_Driver/src/stm32f10x_rcc.c ****   assert_param(IS_RCC_MCO(RCC_MCO));
1293:firmware/STM32F10x_StdPeriph_Lib_V3.3.0/Libraries/STM32F10x_StdPeriph_Driver/src/stm32f10x_rcc.c **** 
1294:firmware/STM32F10x_StdPeriph_Lib_V3.3.0/Libraries/STM32F10x_StdPeriph_Driver/src/stm32f10x_rcc.c ****   /* Perform Byte access to MCO bits to select the MCO source */
1295:firmware/STM32F10x_StdPeriph_Lib_V3.3.0/Libraries/STM32F10x_StdPeriph_Driver/src/stm32f10x_rcc.c ****   *(__IO uint8_t *) CFGR_BYTE4_ADDRESS = RCC_MCO;
 1041              		.loc 1 1295 0
 1042 0000 014B     		ldr	r3, .L115
 1043 0002 1870     		strb	r0, [r3, #0]
1296:firmware/STM32F10x_StdPeriph_Lib_V3.3.0/Libraries/STM32F10x_StdPeriph_Driver/src/stm32f10x_rcc.c **** }
 1044              		.loc 1 1296 0
 1045 0004 7047     		bx	lr
 1046              	.L116:
 1047 0006 00BF     		.align	2
 1048              	.L115:
 1049 0008 07100240 		.word	1073876999
 1050              		.cfi_endproc
 1051              	.LFE56:
 1053              		.section	.text.RCC_GetFlagStatus,"ax",%progbits
 1054              		.align	1
 1055              		.global	RCC_GetFlagStatus
 1056              		.thumb
 1057              		.thumb_func
 1059              	RCC_GetFlagStatus:
 1060              	.LFB57:
1297:firmware/STM32F10x_StdPeriph_Lib_V3.3.0/Libraries/STM32F10x_StdPeriph_Driver/src/stm32f10x_rcc.c **** 
1298:firmware/STM32F10x_StdPeriph_Lib_V3.3.0/Libraries/STM32F10x_StdPeriph_Driver/src/stm32f10x_rcc.c **** /**
1299:firmware/STM32F10x_StdPeriph_Lib_V3.3.0/Libraries/STM32F10x_StdPeriph_Driver/src/stm32f10x_rcc.c ****   * @brief  Checks whether the specified RCC flag is set or not.
1300:firmware/STM32F10x_StdPeriph_Lib_V3.3.0/Libraries/STM32F10x_StdPeriph_Driver/src/stm32f10x_rcc.c ****   * @param  RCC_FLAG: specifies the flag to check.
1301:firmware/STM32F10x_StdPeriph_Lib_V3.3.0/Libraries/STM32F10x_StdPeriph_Driver/src/stm32f10x_rcc.c ****   *   
1302:firmware/STM32F10x_StdPeriph_Lib_V3.3.0/Libraries/STM32F10x_StdPeriph_Driver/src/stm32f10x_rcc.c ****   *   For @b STM32_Connectivity_line_devices, this parameter can be one of the
1303:firmware/STM32F10x_StdPeriph_Lib_V3.3.0/Libraries/STM32F10x_StdPeriph_Driver/src/stm32f10x_rcc.c ****   *   following values:
1304:firmware/STM32F10x_StdPeriph_Lib_V3.3.0/Libraries/STM32F10x_StdPeriph_Driver/src/stm32f10x_rcc.c ****   *     @arg RCC_FLAG_HSIRDY: HSI oscillator clock ready
1305:firmware/STM32F10x_StdPeriph_Lib_V3.3.0/Libraries/STM32F10x_StdPeriph_Driver/src/stm32f10x_rcc.c ****   *     @arg RCC_FLAG_HSERDY: HSE oscillator clock ready
1306:firmware/STM32F10x_StdPeriph_Lib_V3.3.0/Libraries/STM32F10x_StdPeriph_Driver/src/stm32f10x_rcc.c ****   *     @arg RCC_FLAG_PLLRDY: PLL clock ready
1307:firmware/STM32F10x_StdPeriph_Lib_V3.3.0/Libraries/STM32F10x_StdPeriph_Driver/src/stm32f10x_rcc.c ****   *     @arg RCC_FLAG_PLL2RDY: PLL2 clock ready      
1308:firmware/STM32F10x_StdPeriph_Lib_V3.3.0/Libraries/STM32F10x_StdPeriph_Driver/src/stm32f10x_rcc.c ****   *     @arg RCC_FLAG_PLL3RDY: PLL3 clock ready                           
1309:firmware/STM32F10x_StdPeriph_Lib_V3.3.0/Libraries/STM32F10x_StdPeriph_Driver/src/stm32f10x_rcc.c ****   *     @arg RCC_FLAG_LSERDY: LSE oscillator clock ready
1310:firmware/STM32F10x_StdPeriph_Lib_V3.3.0/Libraries/STM32F10x_StdPeriph_Driver/src/stm32f10x_rcc.c ****   *     @arg RCC_FLAG_LSIRDY: LSI oscillator clock ready
1311:firmware/STM32F10x_StdPeriph_Lib_V3.3.0/Libraries/STM32F10x_StdPeriph_Driver/src/stm32f10x_rcc.c ****   *     @arg RCC_FLAG_PINRST: Pin reset
1312:firmware/STM32F10x_StdPeriph_Lib_V3.3.0/Libraries/STM32F10x_StdPeriph_Driver/src/stm32f10x_rcc.c ****   *     @arg RCC_FLAG_PORRST: POR/PDR reset
1313:firmware/STM32F10x_StdPeriph_Lib_V3.3.0/Libraries/STM32F10x_StdPeriph_Driver/src/stm32f10x_rcc.c ****   *     @arg RCC_FLAG_SFTRST: Software reset
1314:firmware/STM32F10x_StdPeriph_Lib_V3.3.0/Libraries/STM32F10x_StdPeriph_Driver/src/stm32f10x_rcc.c ****   *     @arg RCC_FLAG_IWDGRST: Independent Watchdog reset
1315:firmware/STM32F10x_StdPeriph_Lib_V3.3.0/Libraries/STM32F10x_StdPeriph_Driver/src/stm32f10x_rcc.c ****   *     @arg RCC_FLAG_WWDGRST: Window Watchdog reset
1316:firmware/STM32F10x_StdPeriph_Lib_V3.3.0/Libraries/STM32F10x_StdPeriph_Driver/src/stm32f10x_rcc.c ****   *     @arg RCC_FLAG_LPWRRST: Low Power reset
1317:firmware/STM32F10x_StdPeriph_Lib_V3.3.0/Libraries/STM32F10x_StdPeriph_Driver/src/stm32f10x_rcc.c ****   * 
1318:firmware/STM32F10x_StdPeriph_Lib_V3.3.0/Libraries/STM32F10x_StdPeriph_Driver/src/stm32f10x_rcc.c ****   *   For @b other_STM32_devices, this parameter can be one of the following values:        
1319:firmware/STM32F10x_StdPeriph_Lib_V3.3.0/Libraries/STM32F10x_StdPeriph_Driver/src/stm32f10x_rcc.c ****   *     @arg RCC_FLAG_HSIRDY: HSI oscillator clock ready
1320:firmware/STM32F10x_StdPeriph_Lib_V3.3.0/Libraries/STM32F10x_StdPeriph_Driver/src/stm32f10x_rcc.c ****   *     @arg RCC_FLAG_HSERDY: HSE oscillator clock ready
1321:firmware/STM32F10x_StdPeriph_Lib_V3.3.0/Libraries/STM32F10x_StdPeriph_Driver/src/stm32f10x_rcc.c ****   *     @arg RCC_FLAG_PLLRDY: PLL clock ready
1322:firmware/STM32F10x_StdPeriph_Lib_V3.3.0/Libraries/STM32F10x_StdPeriph_Driver/src/stm32f10x_rcc.c ****   *     @arg RCC_FLAG_LSERDY: LSE oscillator clock ready
1323:firmware/STM32F10x_StdPeriph_Lib_V3.3.0/Libraries/STM32F10x_StdPeriph_Driver/src/stm32f10x_rcc.c ****   *     @arg RCC_FLAG_LSIRDY: LSI oscillator clock ready
1324:firmware/STM32F10x_StdPeriph_Lib_V3.3.0/Libraries/STM32F10x_StdPeriph_Driver/src/stm32f10x_rcc.c ****   *     @arg RCC_FLAG_PINRST: Pin reset
1325:firmware/STM32F10x_StdPeriph_Lib_V3.3.0/Libraries/STM32F10x_StdPeriph_Driver/src/stm32f10x_rcc.c ****   *     @arg RCC_FLAG_PORRST: POR/PDR reset
1326:firmware/STM32F10x_StdPeriph_Lib_V3.3.0/Libraries/STM32F10x_StdPeriph_Driver/src/stm32f10x_rcc.c ****   *     @arg RCC_FLAG_SFTRST: Software reset
1327:firmware/STM32F10x_StdPeriph_Lib_V3.3.0/Libraries/STM32F10x_StdPeriph_Driver/src/stm32f10x_rcc.c ****   *     @arg RCC_FLAG_IWDGRST: Independent Watchdog reset
1328:firmware/STM32F10x_StdPeriph_Lib_V3.3.0/Libraries/STM32F10x_StdPeriph_Driver/src/stm32f10x_rcc.c ****   *     @arg RCC_FLAG_WWDGRST: Window Watchdog reset
1329:firmware/STM32F10x_StdPeriph_Lib_V3.3.0/Libraries/STM32F10x_StdPeriph_Driver/src/stm32f10x_rcc.c ****   *     @arg RCC_FLAG_LPWRRST: Low Power reset
1330:firmware/STM32F10x_StdPeriph_Lib_V3.3.0/Libraries/STM32F10x_StdPeriph_Driver/src/stm32f10x_rcc.c ****   *   
1331:firmware/STM32F10x_StdPeriph_Lib_V3.3.0/Libraries/STM32F10x_StdPeriph_Driver/src/stm32f10x_rcc.c ****   * @retval The new state of RCC_FLAG (SET or RESET).
1332:firmware/STM32F10x_StdPeriph_Lib_V3.3.0/Libraries/STM32F10x_StdPeriph_Driver/src/stm32f10x_rcc.c ****   */
1333:firmware/STM32F10x_StdPeriph_Lib_V3.3.0/Libraries/STM32F10x_StdPeriph_Driver/src/stm32f10x_rcc.c **** FlagStatus RCC_GetFlagStatus(uint8_t RCC_FLAG)
1334:firmware/STM32F10x_StdPeriph_Lib_V3.3.0/Libraries/STM32F10x_StdPeriph_Driver/src/stm32f10x_rcc.c **** {
 1061              		.loc 1 1334 0
 1062              		.cfi_startproc
 1063              		@ args = 0, pretend = 0, frame = 0
 1064              		@ frame_needed = 0, uses_anonymous_args = 0
 1065              		@ link register save eliminated.
 1066              	.LVL85:
1335:firmware/STM32F10x_StdPeriph_Lib_V3.3.0/Libraries/STM32F10x_StdPeriph_Driver/src/stm32f10x_rcc.c ****   uint32_t tmp = 0;
1336:firmware/STM32F10x_StdPeriph_Lib_V3.3.0/Libraries/STM32F10x_StdPeriph_Driver/src/stm32f10x_rcc.c ****   uint32_t statusreg = 0;
1337:firmware/STM32F10x_StdPeriph_Lib_V3.3.0/Libraries/STM32F10x_StdPeriph_Driver/src/stm32f10x_rcc.c ****   FlagStatus bitstatus = RESET;
1338:firmware/STM32F10x_StdPeriph_Lib_V3.3.0/Libraries/STM32F10x_StdPeriph_Driver/src/stm32f10x_rcc.c ****   /* Check the parameters */
1339:firmware/STM32F10x_StdPeriph_Lib_V3.3.0/Libraries/STM32F10x_StdPeriph_Driver/src/stm32f10x_rcc.c ****   assert_param(IS_RCC_FLAG(RCC_FLAG));
1340:firmware/STM32F10x_StdPeriph_Lib_V3.3.0/Libraries/STM32F10x_StdPeriph_Driver/src/stm32f10x_rcc.c **** 
1341:firmware/STM32F10x_StdPeriph_Lib_V3.3.0/Libraries/STM32F10x_StdPeriph_Driver/src/stm32f10x_rcc.c ****   /* Get the RCC register index */
1342:firmware/STM32F10x_StdPeriph_Lib_V3.3.0/Libraries/STM32F10x_StdPeriph_Driver/src/stm32f10x_rcc.c ****   tmp = RCC_FLAG >> 5;
 1067              		.loc 1 1342 0
 1068 0000 4309     		lsrs	r3, r0, #5
 1069              	.LVL86:
1343:firmware/STM32F10x_StdPeriph_Lib_V3.3.0/Libraries/STM32F10x_StdPeriph_Driver/src/stm32f10x_rcc.c ****   if (tmp == 1)               /* The flag to check is in CR register */
 1070              		.loc 1 1343 0
 1071 0002 012B     		cmp	r3, #1
 1072 0004 074A     		ldr	r2, .L121
 1073 0006 01D1     		bne	.L118
1344:firmware/STM32F10x_StdPeriph_Lib_V3.3.0/Libraries/STM32F10x_StdPeriph_Driver/src/stm32f10x_rcc.c ****   {
1345:firmware/STM32F10x_StdPeriph_Lib_V3.3.0/Libraries/STM32F10x_StdPeriph_Driver/src/stm32f10x_rcc.c ****     statusreg = RCC->CR;
 1074              		.loc 1 1345 0
 1075 0008 1368     		ldr	r3, [r2, #0]
 1076              	.LVL87:
 1077 000a 03E0     		b	.L119
 1078              	.LVL88:
 1079              	.L118:
1346:firmware/STM32F10x_StdPeriph_Lib_V3.3.0/Libraries/STM32F10x_StdPeriph_Driver/src/stm32f10x_rcc.c ****   }
1347:firmware/STM32F10x_StdPeriph_Lib_V3.3.0/Libraries/STM32F10x_StdPeriph_Driver/src/stm32f10x_rcc.c ****   else if (tmp == 2)          /* The flag to check is in BDCR register */
 1080              		.loc 1 1347 0
 1081 000c 022B     		cmp	r3, #2
1348:firmware/STM32F10x_StdPeriph_Lib_V3.3.0/Libraries/STM32F10x_StdPeriph_Driver/src/stm32f10x_rcc.c ****   {
1349:firmware/STM32F10x_StdPeriph_Lib_V3.3.0/Libraries/STM32F10x_StdPeriph_Driver/src/stm32f10x_rcc.c ****     statusreg = RCC->BDCR;
 1082              		.loc 1 1349 0
 1083 000e 0CBF     		ite	eq
 1084 0010 136A     		ldreq	r3, [r2, #32]
 1085              	.LVL89:
1350:firmware/STM32F10x_StdPeriph_Lib_V3.3.0/Libraries/STM32F10x_StdPeriph_Driver/src/stm32f10x_rcc.c ****   }
1351:firmware/STM32F10x_StdPeriph_Lib_V3.3.0/Libraries/STM32F10x_StdPeriph_Driver/src/stm32f10x_rcc.c ****   else                       /* The flag to check is in CSR register */
1352:firmware/STM32F10x_StdPeriph_Lib_V3.3.0/Libraries/STM32F10x_StdPeriph_Driver/src/stm32f10x_rcc.c ****   {
1353:firmware/STM32F10x_StdPeriph_Lib_V3.3.0/Libraries/STM32F10x_StdPeriph_Driver/src/stm32f10x_rcc.c ****     statusreg = RCC->CSR;
 1086              		.loc 1 1353 0
 1087 0012 536A     		ldrne	r3, [r2, #36]
 1088              	.LVL90:
 1089              	.L119:
1354:firmware/STM32F10x_StdPeriph_Lib_V3.3.0/Libraries/STM32F10x_StdPeriph_Driver/src/stm32f10x_rcc.c ****   }
1355:firmware/STM32F10x_StdPeriph_Lib_V3.3.0/Libraries/STM32F10x_StdPeriph_Driver/src/stm32f10x_rcc.c **** 
1356:firmware/STM32F10x_StdPeriph_Lib_V3.3.0/Libraries/STM32F10x_StdPeriph_Driver/src/stm32f10x_rcc.c ****   /* Get the flag position */
1357:firmware/STM32F10x_StdPeriph_Lib_V3.3.0/Libraries/STM32F10x_StdPeriph_Driver/src/stm32f10x_rcc.c ****   tmp = RCC_FLAG & FLAG_Mask;
 1090              		.loc 1 1357 0
 1091 0014 00F01F00 		and	r0, r0, #31
 1092              	.LVL91:
1358:firmware/STM32F10x_StdPeriph_Lib_V3.3.0/Libraries/STM32F10x_StdPeriph_Driver/src/stm32f10x_rcc.c ****   if ((statusreg & ((uint32_t)1 << tmp)) != (uint32_t)RESET)
 1093              		.loc 1 1358 0
 1094 0018 33FA00F0 		lsrs	r0, r3, r0
1359:firmware/STM32F10x_StdPeriph_Lib_V3.3.0/Libraries/STM32F10x_StdPeriph_Driver/src/stm32f10x_rcc.c ****   {
1360:firmware/STM32F10x_StdPeriph_Lib_V3.3.0/Libraries/STM32F10x_StdPeriph_Driver/src/stm32f10x_rcc.c ****     bitstatus = SET;
1361:firmware/STM32F10x_StdPeriph_Lib_V3.3.0/Libraries/STM32F10x_StdPeriph_Driver/src/stm32f10x_rcc.c ****   }
1362:firmware/STM32F10x_StdPeriph_Lib_V3.3.0/Libraries/STM32F10x_StdPeriph_Driver/src/stm32f10x_rcc.c ****   else
1363:firmware/STM32F10x_StdPeriph_Lib_V3.3.0/Libraries/STM32F10x_StdPeriph_Driver/src/stm32f10x_rcc.c ****   {
1364:firmware/STM32F10x_StdPeriph_Lib_V3.3.0/Libraries/STM32F10x_StdPeriph_Driver/src/stm32f10x_rcc.c ****     bitstatus = RESET;
1365:firmware/STM32F10x_StdPeriph_Lib_V3.3.0/Libraries/STM32F10x_StdPeriph_Driver/src/stm32f10x_rcc.c ****   }
1366:firmware/STM32F10x_StdPeriph_Lib_V3.3.0/Libraries/STM32F10x_StdPeriph_Driver/src/stm32f10x_rcc.c **** 
1367:firmware/STM32F10x_StdPeriph_Lib_V3.3.0/Libraries/STM32F10x_StdPeriph_Driver/src/stm32f10x_rcc.c ****   /* Return the flag status */
1368:firmware/STM32F10x_StdPeriph_Lib_V3.3.0/Libraries/STM32F10x_StdPeriph_Driver/src/stm32f10x_rcc.c ****   return bitstatus;
1369:firmware/STM32F10x_StdPeriph_Lib_V3.3.0/Libraries/STM32F10x_StdPeriph_Driver/src/stm32f10x_rcc.c **** }
 1095              		.loc 1 1369 0
 1096 001c 00F00100 		and	r0, r0, #1
 1097 0020 7047     		bx	lr
 1098              	.L122:
 1099 0022 00BF     		.align	2
 1100              	.L121:
 1101 0024 00100240 		.word	1073876992
 1102              		.cfi_endproc
 1103              	.LFE57:
 1105              		.section	.text.RCC_WaitForHSEStartUp,"ax",%progbits
 1106              		.align	1
 1107              		.global	RCC_WaitForHSEStartUp
 1108              		.thumb
 1109              		.thumb_func
 1111              	RCC_WaitForHSEStartUp:
 1112              	.LFB31:
 314:firmware/STM32F10x_StdPeriph_Lib_V3.3.0/Libraries/STM32F10x_StdPeriph_Driver/src/stm32f10x_rcc.c **** {
 1113              		.loc 1 314 0
 1114              		.cfi_startproc
 1115              		@ args = 0, pretend = 0, frame = 8
 1116              		@ frame_needed = 0, uses_anonymous_args = 0
 1117 0000 07B5     		push	{r0, r1, r2, lr}
 1118              	.LCFI1:
 1119              		.cfi_def_cfa_offset 16
 315:firmware/STM32F10x_StdPeriph_Lib_V3.3.0/Libraries/STM32F10x_StdPeriph_Driver/src/stm32f10x_rcc.c ****   __IO uint32_t StartUpCounter = 0;
 1120              		.loc 1 315 0
 1121 0002 0023     		movs	r3, #0
 1122 0004 0193     		str	r3, [sp, #4]
 1123              	.LVL92:
 1124              	.L125:
 322:firmware/STM32F10x_StdPeriph_Lib_V3.3.0/Libraries/STM32F10x_StdPeriph_Driver/src/stm32f10x_rcc.c ****     HSEStatus = RCC_GetFlagStatus(RCC_FLAG_HSERDY);
 1125              		.loc 1 322 0 discriminator 1
 1126 0006 3120     		movs	r0, #49
 1127              		.cfi_offset 14, -4
 1128              		.cfi_offset 2, -8
 1129              		.cfi_offset 1, -12
 1130              		.cfi_offset 0, -16
 1131 0008 FFF7FEFF 		bl	RCC_GetFlagStatus
 1132              	.LVL93:
 323:firmware/STM32F10x_StdPeriph_Lib_V3.3.0/Libraries/STM32F10x_StdPeriph_Driver/src/stm32f10x_rcc.c ****     StartUpCounter++;  
 1133              		.loc 1 323 0 discriminator 1
 1134 000c 019B     		ldr	r3, [sp, #4]
 1135 000e 0133     		adds	r3, r3, #1
 1136              	.LVL94:
 1137 0010 0193     		str	r3, [sp, #4]
 1138              	.LVL95:
 324:firmware/STM32F10x_StdPeriph_Lib_V3.3.0/Libraries/STM32F10x_StdPeriph_Driver/src/stm32f10x_rcc.c ****   } while((StartUpCounter != HSEStartUp_TimeOut) && (HSEStatus == RESET));
 1139              		.loc 1 324 0 discriminator 1
 1140 0012 019B     		ldr	r3, [sp, #4]
 1141              	.LVL96:
 1142 0014 B3F5A06F 		cmp	r3, #1280
 1143 0018 01D0     		beq	.L124
 1144 001a 0028     		cmp	r0, #0
 1145 001c F3D0     		beq	.L125
 1146              	.L124:
 326:firmware/STM32F10x_StdPeriph_Lib_V3.3.0/Libraries/STM32F10x_StdPeriph_Driver/src/stm32f10x_rcc.c ****   if (RCC_GetFlagStatus(RCC_FLAG_HSERDY) != RESET)
 1147              		.loc 1 326 0
 1148 001e 3120     		movs	r0, #49
 1149              	.LVL97:
 1150 0020 FFF7FEFF 		bl	RCC_GetFlagStatus
 1151              	.LVL98:
 335:firmware/STM32F10x_StdPeriph_Lib_V3.3.0/Libraries/STM32F10x_StdPeriph_Driver/src/stm32f10x_rcc.c **** }
 1152              		.loc 1 335 0
 1153 0024 0038     		subs	r0, r0, #0
 1154              	.LVL99:
 1155 0026 18BF     		it	ne
 1156 0028 0120     		movne	r0, #1
 1157 002a 0EBD     		pop	{r1, r2, r3, pc}
 1158              		.cfi_endproc
 1159              	.LFE31:
 1161              		.section	.text.RCC_ClearFlag,"ax",%progbits
 1162              		.align	1
 1163              		.global	RCC_ClearFlag
 1164              		.thumb
 1165              		.thumb_func
 1167              	RCC_ClearFlag:
 1168              	.LFB58:
1370:firmware/STM32F10x_StdPeriph_Lib_V3.3.0/Libraries/STM32F10x_StdPeriph_Driver/src/stm32f10x_rcc.c **** 
1371:firmware/STM32F10x_StdPeriph_Lib_V3.3.0/Libraries/STM32F10x_StdPeriph_Driver/src/stm32f10x_rcc.c **** /**
1372:firmware/STM32F10x_StdPeriph_Lib_V3.3.0/Libraries/STM32F10x_StdPeriph_Driver/src/stm32f10x_rcc.c ****   * @brief  Clears the RCC reset flags.
1373:firmware/STM32F10x_StdPeriph_Lib_V3.3.0/Libraries/STM32F10x_StdPeriph_Driver/src/stm32f10x_rcc.c ****   * @note   The reset flags are: RCC_FLAG_PINRST, RCC_FLAG_PORRST, RCC_FLAG_SFTRST,
1374:firmware/STM32F10x_StdPeriph_Lib_V3.3.0/Libraries/STM32F10x_StdPeriph_Driver/src/stm32f10x_rcc.c ****   *   RCC_FLAG_IWDGRST, RCC_FLAG_WWDGRST, RCC_FLAG_LPWRRST
1375:firmware/STM32F10x_StdPeriph_Lib_V3.3.0/Libraries/STM32F10x_StdPeriph_Driver/src/stm32f10x_rcc.c ****   * @param  None
1376:firmware/STM32F10x_StdPeriph_Lib_V3.3.0/Libraries/STM32F10x_StdPeriph_Driver/src/stm32f10x_rcc.c ****   * @retval None
1377:firmware/STM32F10x_StdPeriph_Lib_V3.3.0/Libraries/STM32F10x_StdPeriph_Driver/src/stm32f10x_rcc.c ****   */
1378:firmware/STM32F10x_StdPeriph_Lib_V3.3.0/Libraries/STM32F10x_StdPeriph_Driver/src/stm32f10x_rcc.c **** void RCC_ClearFlag(void)
1379:firmware/STM32F10x_StdPeriph_Lib_V3.3.0/Libraries/STM32F10x_StdPeriph_Driver/src/stm32f10x_rcc.c **** {
 1169              		.loc 1 1379 0
 1170              		.cfi_startproc
 1171              		@ args = 0, pretend = 0, frame = 0
 1172              		@ frame_needed = 0, uses_anonymous_args = 0
 1173              		@ link register save eliminated.
1380:firmware/STM32F10x_StdPeriph_Lib_V3.3.0/Libraries/STM32F10x_StdPeriph_Driver/src/stm32f10x_rcc.c ****   /* Set RMVF bit to clear the reset flags */
1381:firmware/STM32F10x_StdPeriph_Lib_V3.3.0/Libraries/STM32F10x_StdPeriph_Driver/src/stm32f10x_rcc.c ****   RCC->CSR |= CSR_RMVF_Set;
 1174              		.loc 1 1381 0
 1175 0000 024B     		ldr	r3, .L127
 1176 0002 5A6A     		ldr	r2, [r3, #36]
 1177 0004 42F08072 		orr	r2, r2, #16777216
 1178 0008 5A62     		str	r2, [r3, #36]
1382:firmware/STM32F10x_StdPeriph_Lib_V3.3.0/Libraries/STM32F10x_StdPeriph_Driver/src/stm32f10x_rcc.c **** }
 1179              		.loc 1 1382 0
 1180 000a 7047     		bx	lr
 1181              	.L128:
 1182              		.align	2
 1183              	.L127:
 1184 000c 00100240 		.word	1073876992
 1185              		.cfi_endproc
 1186              	.LFE58:
 1188              		.section	.text.RCC_GetITStatus,"ax",%progbits
 1189              		.align	1
 1190              		.global	RCC_GetITStatus
 1191              		.thumb
 1192              		.thumb_func
 1194              	RCC_GetITStatus:
 1195              	.LFB59:
1383:firmware/STM32F10x_StdPeriph_Lib_V3.3.0/Libraries/STM32F10x_StdPeriph_Driver/src/stm32f10x_rcc.c **** 
1384:firmware/STM32F10x_StdPeriph_Lib_V3.3.0/Libraries/STM32F10x_StdPeriph_Driver/src/stm32f10x_rcc.c **** /**
1385:firmware/STM32F10x_StdPeriph_Lib_V3.3.0/Libraries/STM32F10x_StdPeriph_Driver/src/stm32f10x_rcc.c ****   * @brief  Checks whether the specified RCC interrupt has occurred or not.
1386:firmware/STM32F10x_StdPeriph_Lib_V3.3.0/Libraries/STM32F10x_StdPeriph_Driver/src/stm32f10x_rcc.c ****   * @param  RCC_IT: specifies the RCC interrupt source to check.
1387:firmware/STM32F10x_StdPeriph_Lib_V3.3.0/Libraries/STM32F10x_StdPeriph_Driver/src/stm32f10x_rcc.c ****   *   
1388:firmware/STM32F10x_StdPeriph_Lib_V3.3.0/Libraries/STM32F10x_StdPeriph_Driver/src/stm32f10x_rcc.c ****   *   For @b STM32_Connectivity_line_devices, this parameter can be one of the
1389:firmware/STM32F10x_StdPeriph_Lib_V3.3.0/Libraries/STM32F10x_StdPeriph_Driver/src/stm32f10x_rcc.c ****   *   following values:
1390:firmware/STM32F10x_StdPeriph_Lib_V3.3.0/Libraries/STM32F10x_StdPeriph_Driver/src/stm32f10x_rcc.c ****   *     @arg RCC_IT_LSIRDY: LSI ready interrupt
1391:firmware/STM32F10x_StdPeriph_Lib_V3.3.0/Libraries/STM32F10x_StdPeriph_Driver/src/stm32f10x_rcc.c ****   *     @arg RCC_IT_LSERDY: LSE ready interrupt
1392:firmware/STM32F10x_StdPeriph_Lib_V3.3.0/Libraries/STM32F10x_StdPeriph_Driver/src/stm32f10x_rcc.c ****   *     @arg RCC_IT_HSIRDY: HSI ready interrupt
1393:firmware/STM32F10x_StdPeriph_Lib_V3.3.0/Libraries/STM32F10x_StdPeriph_Driver/src/stm32f10x_rcc.c ****   *     @arg RCC_IT_HSERDY: HSE ready interrupt
1394:firmware/STM32F10x_StdPeriph_Lib_V3.3.0/Libraries/STM32F10x_StdPeriph_Driver/src/stm32f10x_rcc.c ****   *     @arg RCC_IT_PLLRDY: PLL ready interrupt
1395:firmware/STM32F10x_StdPeriph_Lib_V3.3.0/Libraries/STM32F10x_StdPeriph_Driver/src/stm32f10x_rcc.c ****   *     @arg RCC_IT_PLL2RDY: PLL2 ready interrupt 
1396:firmware/STM32F10x_StdPeriph_Lib_V3.3.0/Libraries/STM32F10x_StdPeriph_Driver/src/stm32f10x_rcc.c ****   *     @arg RCC_IT_PLL3RDY: PLL3 ready interrupt                      
1397:firmware/STM32F10x_StdPeriph_Lib_V3.3.0/Libraries/STM32F10x_StdPeriph_Driver/src/stm32f10x_rcc.c ****   *     @arg RCC_IT_CSS: Clock Security System interrupt
1398:firmware/STM32F10x_StdPeriph_Lib_V3.3.0/Libraries/STM32F10x_StdPeriph_Driver/src/stm32f10x_rcc.c ****   * 
1399:firmware/STM32F10x_StdPeriph_Lib_V3.3.0/Libraries/STM32F10x_StdPeriph_Driver/src/stm32f10x_rcc.c ****   *   For @b other_STM32_devices, this parameter can be one of the following values:        
1400:firmware/STM32F10x_StdPeriph_Lib_V3.3.0/Libraries/STM32F10x_StdPeriph_Driver/src/stm32f10x_rcc.c ****   *     @arg RCC_IT_LSIRDY: LSI ready interrupt
1401:firmware/STM32F10x_StdPeriph_Lib_V3.3.0/Libraries/STM32F10x_StdPeriph_Driver/src/stm32f10x_rcc.c ****   *     @arg RCC_IT_LSERDY: LSE ready interrupt
1402:firmware/STM32F10x_StdPeriph_Lib_V3.3.0/Libraries/STM32F10x_StdPeriph_Driver/src/stm32f10x_rcc.c ****   *     @arg RCC_IT_HSIRDY: HSI ready interrupt
1403:firmware/STM32F10x_StdPeriph_Lib_V3.3.0/Libraries/STM32F10x_StdPeriph_Driver/src/stm32f10x_rcc.c ****   *     @arg RCC_IT_HSERDY: HSE ready interrupt
1404:firmware/STM32F10x_StdPeriph_Lib_V3.3.0/Libraries/STM32F10x_StdPeriph_Driver/src/stm32f10x_rcc.c ****   *     @arg RCC_IT_PLLRDY: PLL ready interrupt
1405:firmware/STM32F10x_StdPeriph_Lib_V3.3.0/Libraries/STM32F10x_StdPeriph_Driver/src/stm32f10x_rcc.c ****   *     @arg RCC_IT_CSS: Clock Security System interrupt
1406:firmware/STM32F10x_StdPeriph_Lib_V3.3.0/Libraries/STM32F10x_StdPeriph_Driver/src/stm32f10x_rcc.c ****   *   
1407:firmware/STM32F10x_StdPeriph_Lib_V3.3.0/Libraries/STM32F10x_StdPeriph_Driver/src/stm32f10x_rcc.c ****   * @retval The new state of RCC_IT (SET or RESET).
1408:firmware/STM32F10x_StdPeriph_Lib_V3.3.0/Libraries/STM32F10x_StdPeriph_Driver/src/stm32f10x_rcc.c ****   */
1409:firmware/STM32F10x_StdPeriph_Lib_V3.3.0/Libraries/STM32F10x_StdPeriph_Driver/src/stm32f10x_rcc.c **** ITStatus RCC_GetITStatus(uint8_t RCC_IT)
1410:firmware/STM32F10x_StdPeriph_Lib_V3.3.0/Libraries/STM32F10x_StdPeriph_Driver/src/stm32f10x_rcc.c **** {
 1196              		.loc 1 1410 0
 1197              		.cfi_startproc
 1198              		@ args = 0, pretend = 0, frame = 0
 1199              		@ frame_needed = 0, uses_anonymous_args = 0
 1200              		@ link register save eliminated.
 1201              	.LVL100:
1411:firmware/STM32F10x_StdPeriph_Lib_V3.3.0/Libraries/STM32F10x_StdPeriph_Driver/src/stm32f10x_rcc.c ****   ITStatus bitstatus = RESET;
1412:firmware/STM32F10x_StdPeriph_Lib_V3.3.0/Libraries/STM32F10x_StdPeriph_Driver/src/stm32f10x_rcc.c ****   /* Check the parameters */
1413:firmware/STM32F10x_StdPeriph_Lib_V3.3.0/Libraries/STM32F10x_StdPeriph_Driver/src/stm32f10x_rcc.c ****   assert_param(IS_RCC_GET_IT(RCC_IT));
1414:firmware/STM32F10x_StdPeriph_Lib_V3.3.0/Libraries/STM32F10x_StdPeriph_Driver/src/stm32f10x_rcc.c **** 
1415:firmware/STM32F10x_StdPeriph_Lib_V3.3.0/Libraries/STM32F10x_StdPeriph_Driver/src/stm32f10x_rcc.c ****   /* Check the status of the specified RCC interrupt */
1416:firmware/STM32F10x_StdPeriph_Lib_V3.3.0/Libraries/STM32F10x_StdPeriph_Driver/src/stm32f10x_rcc.c ****   if ((RCC->CIR & RCC_IT) != (uint32_t)RESET)
 1202              		.loc 1 1416 0
 1203 0000 034B     		ldr	r3, .L130
 1204 0002 9B68     		ldr	r3, [r3, #8]
 1205              	.LVL101:
1417:firmware/STM32F10x_StdPeriph_Lib_V3.3.0/Libraries/STM32F10x_StdPeriph_Driver/src/stm32f10x_rcc.c ****   {
1418:firmware/STM32F10x_StdPeriph_Lib_V3.3.0/Libraries/STM32F10x_StdPeriph_Driver/src/stm32f10x_rcc.c ****     bitstatus = SET;
 1206              		.loc 1 1418 0
 1207 0004 1842     		tst	r0, r3
1419:firmware/STM32F10x_StdPeriph_Lib_V3.3.0/Libraries/STM32F10x_StdPeriph_Driver/src/stm32f10x_rcc.c ****   }
1420:firmware/STM32F10x_StdPeriph_Lib_V3.3.0/Libraries/STM32F10x_StdPeriph_Driver/src/stm32f10x_rcc.c ****   else
1421:firmware/STM32F10x_StdPeriph_Lib_V3.3.0/Libraries/STM32F10x_StdPeriph_Driver/src/stm32f10x_rcc.c ****   {
1422:firmware/STM32F10x_StdPeriph_Lib_V3.3.0/Libraries/STM32F10x_StdPeriph_Driver/src/stm32f10x_rcc.c ****     bitstatus = RESET;
1423:firmware/STM32F10x_StdPeriph_Lib_V3.3.0/Libraries/STM32F10x_StdPeriph_Driver/src/stm32f10x_rcc.c ****   }
1424:firmware/STM32F10x_StdPeriph_Lib_V3.3.0/Libraries/STM32F10x_StdPeriph_Driver/src/stm32f10x_rcc.c **** 
1425:firmware/STM32F10x_StdPeriph_Lib_V3.3.0/Libraries/STM32F10x_StdPeriph_Driver/src/stm32f10x_rcc.c ****   /* Return the RCC_IT status */
1426:firmware/STM32F10x_StdPeriph_Lib_V3.3.0/Libraries/STM32F10x_StdPeriph_Driver/src/stm32f10x_rcc.c ****   return  bitstatus;
1427:firmware/STM32F10x_StdPeriph_Lib_V3.3.0/Libraries/STM32F10x_StdPeriph_Driver/src/stm32f10x_rcc.c **** }
 1208              		.loc 1 1427 0
 1209 0006 0CBF     		ite	eq
 1210 0008 0020     		moveq	r0, #0
 1211 000a 0120     		movne	r0, #1
 1212              	.LVL102:
 1213 000c 7047     		bx	lr
 1214              	.L131:
 1215 000e 00BF     		.align	2
 1216              	.L130:
 1217 0010 00100240 		.word	1073876992
 1218              		.cfi_endproc
 1219              	.LFE59:
 1221              		.section	.text.RCC_ClearITPendingBit,"ax",%progbits
 1222              		.align	1
 1223              		.global	RCC_ClearITPendingBit
 1224              		.thumb
 1225              		.thumb_func
 1227              	RCC_ClearITPendingBit:
 1228              	.LFB60:
1428:firmware/STM32F10x_StdPeriph_Lib_V3.3.0/Libraries/STM32F10x_StdPeriph_Driver/src/stm32f10x_rcc.c **** 
1429:firmware/STM32F10x_StdPeriph_Lib_V3.3.0/Libraries/STM32F10x_StdPeriph_Driver/src/stm32f10x_rcc.c **** /**
1430:firmware/STM32F10x_StdPeriph_Lib_V3.3.0/Libraries/STM32F10x_StdPeriph_Driver/src/stm32f10x_rcc.c ****   * @brief  Clears the RCCs interrupt pending bits.
1431:firmware/STM32F10x_StdPeriph_Lib_V3.3.0/Libraries/STM32F10x_StdPeriph_Driver/src/stm32f10x_rcc.c ****   * @param  RCC_IT: specifies the interrupt pending bit to clear.
1432:firmware/STM32F10x_StdPeriph_Lib_V3.3.0/Libraries/STM32F10x_StdPeriph_Driver/src/stm32f10x_rcc.c ****   *   
1433:firmware/STM32F10x_StdPeriph_Lib_V3.3.0/Libraries/STM32F10x_StdPeriph_Driver/src/stm32f10x_rcc.c ****   *   For @b STM32_Connectivity_line_devices, this parameter can be any combination
1434:firmware/STM32F10x_StdPeriph_Lib_V3.3.0/Libraries/STM32F10x_StdPeriph_Driver/src/stm32f10x_rcc.c ****   *   of the following values:
1435:firmware/STM32F10x_StdPeriph_Lib_V3.3.0/Libraries/STM32F10x_StdPeriph_Driver/src/stm32f10x_rcc.c ****   *     @arg RCC_IT_LSIRDY: LSI ready interrupt
1436:firmware/STM32F10x_StdPeriph_Lib_V3.3.0/Libraries/STM32F10x_StdPeriph_Driver/src/stm32f10x_rcc.c ****   *     @arg RCC_IT_LSERDY: LSE ready interrupt
1437:firmware/STM32F10x_StdPeriph_Lib_V3.3.0/Libraries/STM32F10x_StdPeriph_Driver/src/stm32f10x_rcc.c ****   *     @arg RCC_IT_HSIRDY: HSI ready interrupt
1438:firmware/STM32F10x_StdPeriph_Lib_V3.3.0/Libraries/STM32F10x_StdPeriph_Driver/src/stm32f10x_rcc.c ****   *     @arg RCC_IT_HSERDY: HSE ready interrupt
1439:firmware/STM32F10x_StdPeriph_Lib_V3.3.0/Libraries/STM32F10x_StdPeriph_Driver/src/stm32f10x_rcc.c ****   *     @arg RCC_IT_PLLRDY: PLL ready interrupt
1440:firmware/STM32F10x_StdPeriph_Lib_V3.3.0/Libraries/STM32F10x_StdPeriph_Driver/src/stm32f10x_rcc.c ****   *     @arg RCC_IT_PLL2RDY: PLL2 ready interrupt 
1441:firmware/STM32F10x_StdPeriph_Lib_V3.3.0/Libraries/STM32F10x_StdPeriph_Driver/src/stm32f10x_rcc.c ****   *     @arg RCC_IT_PLL3RDY: PLL3 ready interrupt                      
1442:firmware/STM32F10x_StdPeriph_Lib_V3.3.0/Libraries/STM32F10x_StdPeriph_Driver/src/stm32f10x_rcc.c ****   *     @arg RCC_IT_CSS: Clock Security System interrupt
1443:firmware/STM32F10x_StdPeriph_Lib_V3.3.0/Libraries/STM32F10x_StdPeriph_Driver/src/stm32f10x_rcc.c ****   * 
