   1              		.syntax unified
   2              		.cpu cortex-m3
   3              		.fpu softvfp
   4              		.eabi_attribute 20, 1
   5              		.eabi_attribute 21, 1
   6              		.eabi_attribute 23, 3
   7              		.eabi_attribute 24, 1
   8              		.eabi_attribute 25, 1
   9              		.eabi_attribute 26, 1
  10              		.eabi_attribute 30, 4
  11              		.eabi_attribute 18, 4
  12              		.thumb
  13              		.file	"misc.c"
  21              	.Ltext0:
  22              		.cfi_sections	.debug_frame
  23              		.section	.text.NVIC_PriorityGroupConfig,"ax",%progbits
  24              		.align	1
  25              		.global	NVIC_PriorityGroupConfig
  26              		.thumb
  27              		.thumb_func
  29              	NVIC_PriorityGroupConfig:
  30              	.LFB29:
  31              		.file 1 "firmware/STM32F10x_StdPeriph_Lib_V3.3.0/Libraries/STM32F10x_StdPeriph_Driver/src/misc.c"
   1:firmware/STM32F10x_StdPeriph_Lib_V3.3.0/Libraries/STM32F10x_StdPeriph_Driver/src/misc.c **** /**
   2:firmware/STM32F10x_StdPeriph_Lib_V3.3.0/Libraries/STM32F10x_StdPeriph_Driver/src/misc.c ****   ******************************************************************************
   3:firmware/STM32F10x_StdPeriph_Lib_V3.3.0/Libraries/STM32F10x_StdPeriph_Driver/src/misc.c ****   * @file    misc.c
   4:firmware/STM32F10x_StdPeriph_Lib_V3.3.0/Libraries/STM32F10x_StdPeriph_Driver/src/misc.c ****   * @author  MCD Application Team
   5:firmware/STM32F10x_StdPeriph_Lib_V3.3.0/Libraries/STM32F10x_StdPeriph_Driver/src/misc.c ****   * @version V3.3.0
   6:firmware/STM32F10x_StdPeriph_Lib_V3.3.0/Libraries/STM32F10x_StdPeriph_Driver/src/misc.c ****   * @date    04/16/2010
   7:firmware/STM32F10x_StdPeriph_Lib_V3.3.0/Libraries/STM32F10x_StdPeriph_Driver/src/misc.c ****   * @brief   This file provides all the miscellaneous firmware functions (add-on
   8:firmware/STM32F10x_StdPeriph_Lib_V3.3.0/Libraries/STM32F10x_StdPeriph_Driver/src/misc.c ****   *          to CMSIS functions).
   9:firmware/STM32F10x_StdPeriph_Lib_V3.3.0/Libraries/STM32F10x_StdPeriph_Driver/src/misc.c ****   ******************************************************************************
  10:firmware/STM32F10x_StdPeriph_Lib_V3.3.0/Libraries/STM32F10x_StdPeriph_Driver/src/misc.c ****   * @copy
  11:firmware/STM32F10x_StdPeriph_Lib_V3.3.0/Libraries/STM32F10x_StdPeriph_Driver/src/misc.c ****   *
  12:firmware/STM32F10x_StdPeriph_Lib_V3.3.0/Libraries/STM32F10x_StdPeriph_Driver/src/misc.c ****   * THE PRESENT FIRMWARE WHICH IS FOR GUIDANCE ONLY AIMS AT PROVIDING CUSTOMERS
  13:firmware/STM32F10x_StdPeriph_Lib_V3.3.0/Libraries/STM32F10x_StdPeriph_Driver/src/misc.c ****   * WITH CODING INFORMATION REGARDING THEIR PRODUCTS IN ORDER FOR THEM TO SAVE
  14:firmware/STM32F10x_StdPeriph_Lib_V3.3.0/Libraries/STM32F10x_StdPeriph_Driver/src/misc.c ****   * TIME. AS A RESULT, STMICROELECTRONICS SHALL NOT BE HELD LIABLE FOR ANY
  15:firmware/STM32F10x_StdPeriph_Lib_V3.3.0/Libraries/STM32F10x_StdPeriph_Driver/src/misc.c ****   * DIRECT, INDIRECT OR CONSEQUENTIAL DAMAGES WITH RESPECT TO ANY CLAIMS ARISING
  16:firmware/STM32F10x_StdPeriph_Lib_V3.3.0/Libraries/STM32F10x_StdPeriph_Driver/src/misc.c ****   * FROM THE CONTENT OF SUCH FIRMWARE AND/OR THE USE MADE BY CUSTOMERS OF THE
  17:firmware/STM32F10x_StdPeriph_Lib_V3.3.0/Libraries/STM32F10x_StdPeriph_Driver/src/misc.c ****   * CODING INFORMATION CONTAINED HEREIN IN CONNECTION WITH THEIR PRODUCTS.
  18:firmware/STM32F10x_StdPeriph_Lib_V3.3.0/Libraries/STM32F10x_StdPeriph_Driver/src/misc.c ****   *
  19:firmware/STM32F10x_StdPeriph_Lib_V3.3.0/Libraries/STM32F10x_StdPeriph_Driver/src/misc.c ****   * <h2><center>&copy; COPYRIGHT 2010 STMicroelectronics</center></h2>
  20:firmware/STM32F10x_StdPeriph_Lib_V3.3.0/Libraries/STM32F10x_StdPeriph_Driver/src/misc.c ****   */ 
  21:firmware/STM32F10x_StdPeriph_Lib_V3.3.0/Libraries/STM32F10x_StdPeriph_Driver/src/misc.c **** 
  22:firmware/STM32F10x_StdPeriph_Lib_V3.3.0/Libraries/STM32F10x_StdPeriph_Driver/src/misc.c **** /* Includes ------------------------------------------------------------------*/
  23:firmware/STM32F10x_StdPeriph_Lib_V3.3.0/Libraries/STM32F10x_StdPeriph_Driver/src/misc.c **** #include "misc.h"
  24:firmware/STM32F10x_StdPeriph_Lib_V3.3.0/Libraries/STM32F10x_StdPeriph_Driver/src/misc.c **** #include "stm32f10x_conf.h"
  25:firmware/STM32F10x_StdPeriph_Lib_V3.3.0/Libraries/STM32F10x_StdPeriph_Driver/src/misc.c **** 
  26:firmware/STM32F10x_StdPeriph_Lib_V3.3.0/Libraries/STM32F10x_StdPeriph_Driver/src/misc.c **** /** @addtogroup STM32F10x_StdPeriph_Driver
  27:firmware/STM32F10x_StdPeriph_Lib_V3.3.0/Libraries/STM32F10x_StdPeriph_Driver/src/misc.c ****   * @{
  28:firmware/STM32F10x_StdPeriph_Lib_V3.3.0/Libraries/STM32F10x_StdPeriph_Driver/src/misc.c ****   */
  29:firmware/STM32F10x_StdPeriph_Lib_V3.3.0/Libraries/STM32F10x_StdPeriph_Driver/src/misc.c **** 
  30:firmware/STM32F10x_StdPeriph_Lib_V3.3.0/Libraries/STM32F10x_StdPeriph_Driver/src/misc.c **** /** @defgroup MISC 
  31:firmware/STM32F10x_StdPeriph_Lib_V3.3.0/Libraries/STM32F10x_StdPeriph_Driver/src/misc.c ****   * @brief MISC driver modules
  32:firmware/STM32F10x_StdPeriph_Lib_V3.3.0/Libraries/STM32F10x_StdPeriph_Driver/src/misc.c ****   * @{
  33:firmware/STM32F10x_StdPeriph_Lib_V3.3.0/Libraries/STM32F10x_StdPeriph_Driver/src/misc.c ****   */
  34:firmware/STM32F10x_StdPeriph_Lib_V3.3.0/Libraries/STM32F10x_StdPeriph_Driver/src/misc.c **** 
  35:firmware/STM32F10x_StdPeriph_Lib_V3.3.0/Libraries/STM32F10x_StdPeriph_Driver/src/misc.c **** /** @defgroup MISC_Private_TypesDefinitions
  36:firmware/STM32F10x_StdPeriph_Lib_V3.3.0/Libraries/STM32F10x_StdPeriph_Driver/src/misc.c ****   * @{
  37:firmware/STM32F10x_StdPeriph_Lib_V3.3.0/Libraries/STM32F10x_StdPeriph_Driver/src/misc.c ****   */
  38:firmware/STM32F10x_StdPeriph_Lib_V3.3.0/Libraries/STM32F10x_StdPeriph_Driver/src/misc.c **** 
  39:firmware/STM32F10x_StdPeriph_Lib_V3.3.0/Libraries/STM32F10x_StdPeriph_Driver/src/misc.c **** /**
  40:firmware/STM32F10x_StdPeriph_Lib_V3.3.0/Libraries/STM32F10x_StdPeriph_Driver/src/misc.c ****   * @}
  41:firmware/STM32F10x_StdPeriph_Lib_V3.3.0/Libraries/STM32F10x_StdPeriph_Driver/src/misc.c ****   */ 
  42:firmware/STM32F10x_StdPeriph_Lib_V3.3.0/Libraries/STM32F10x_StdPeriph_Driver/src/misc.c **** 
  43:firmware/STM32F10x_StdPeriph_Lib_V3.3.0/Libraries/STM32F10x_StdPeriph_Driver/src/misc.c **** /** @defgroup MISC_Private_Defines
  44:firmware/STM32F10x_StdPeriph_Lib_V3.3.0/Libraries/STM32F10x_StdPeriph_Driver/src/misc.c ****   * @{
  45:firmware/STM32F10x_StdPeriph_Lib_V3.3.0/Libraries/STM32F10x_StdPeriph_Driver/src/misc.c ****   */
  46:firmware/STM32F10x_StdPeriph_Lib_V3.3.0/Libraries/STM32F10x_StdPeriph_Driver/src/misc.c **** 
  47:firmware/STM32F10x_StdPeriph_Lib_V3.3.0/Libraries/STM32F10x_StdPeriph_Driver/src/misc.c **** #define AIRCR_VECTKEY_MASK    ((uint32_t)0x05FA0000)
  48:firmware/STM32F10x_StdPeriph_Lib_V3.3.0/Libraries/STM32F10x_StdPeriph_Driver/src/misc.c **** /**
  49:firmware/STM32F10x_StdPeriph_Lib_V3.3.0/Libraries/STM32F10x_StdPeriph_Driver/src/misc.c ****   * @}
  50:firmware/STM32F10x_StdPeriph_Lib_V3.3.0/Libraries/STM32F10x_StdPeriph_Driver/src/misc.c ****   */
  51:firmware/STM32F10x_StdPeriph_Lib_V3.3.0/Libraries/STM32F10x_StdPeriph_Driver/src/misc.c **** 
  52:firmware/STM32F10x_StdPeriph_Lib_V3.3.0/Libraries/STM32F10x_StdPeriph_Driver/src/misc.c **** /** @defgroup MISC_Private_Macros
  53:firmware/STM32F10x_StdPeriph_Lib_V3.3.0/Libraries/STM32F10x_StdPeriph_Driver/src/misc.c ****   * @{
  54:firmware/STM32F10x_StdPeriph_Lib_V3.3.0/Libraries/STM32F10x_StdPeriph_Driver/src/misc.c ****   */
  55:firmware/STM32F10x_StdPeriph_Lib_V3.3.0/Libraries/STM32F10x_StdPeriph_Driver/src/misc.c **** 
  56:firmware/STM32F10x_StdPeriph_Lib_V3.3.0/Libraries/STM32F10x_StdPeriph_Driver/src/misc.c **** /**
  57:firmware/STM32F10x_StdPeriph_Lib_V3.3.0/Libraries/STM32F10x_StdPeriph_Driver/src/misc.c ****   * @}
  58:firmware/STM32F10x_StdPeriph_Lib_V3.3.0/Libraries/STM32F10x_StdPeriph_Driver/src/misc.c ****   */
  59:firmware/STM32F10x_StdPeriph_Lib_V3.3.0/Libraries/STM32F10x_StdPeriph_Driver/src/misc.c **** 
  60:firmware/STM32F10x_StdPeriph_Lib_V3.3.0/Libraries/STM32F10x_StdPeriph_Driver/src/misc.c **** /** @defgroup MISC_Private_Variables
  61:firmware/STM32F10x_StdPeriph_Lib_V3.3.0/Libraries/STM32F10x_StdPeriph_Driver/src/misc.c ****   * @{
  62:firmware/STM32F10x_StdPeriph_Lib_V3.3.0/Libraries/STM32F10x_StdPeriph_Driver/src/misc.c ****   */
  63:firmware/STM32F10x_StdPeriph_Lib_V3.3.0/Libraries/STM32F10x_StdPeriph_Driver/src/misc.c **** 
  64:firmware/STM32F10x_StdPeriph_Lib_V3.3.0/Libraries/STM32F10x_StdPeriph_Driver/src/misc.c **** /**
  65:firmware/STM32F10x_StdPeriph_Lib_V3.3.0/Libraries/STM32F10x_StdPeriph_Driver/src/misc.c ****   * @}
  66:firmware/STM32F10x_StdPeriph_Lib_V3.3.0/Libraries/STM32F10x_StdPeriph_Driver/src/misc.c ****   */
  67:firmware/STM32F10x_StdPeriph_Lib_V3.3.0/Libraries/STM32F10x_StdPeriph_Driver/src/misc.c **** 
  68:firmware/STM32F10x_StdPeriph_Lib_V3.3.0/Libraries/STM32F10x_StdPeriph_Driver/src/misc.c **** /** @defgroup MISC_Private_FunctionPrototypes
  69:firmware/STM32F10x_StdPeriph_Lib_V3.3.0/Libraries/STM32F10x_StdPeriph_Driver/src/misc.c ****   * @{
  70:firmware/STM32F10x_StdPeriph_Lib_V3.3.0/Libraries/STM32F10x_StdPeriph_Driver/src/misc.c ****   */
  71:firmware/STM32F10x_StdPeriph_Lib_V3.3.0/Libraries/STM32F10x_StdPeriph_Driver/src/misc.c **** 
  72:firmware/STM32F10x_StdPeriph_Lib_V3.3.0/Libraries/STM32F10x_StdPeriph_Driver/src/misc.c **** /**
  73:firmware/STM32F10x_StdPeriph_Lib_V3.3.0/Libraries/STM32F10x_StdPeriph_Driver/src/misc.c ****   * @}
  74:firmware/STM32F10x_StdPeriph_Lib_V3.3.0/Libraries/STM32F10x_StdPeriph_Driver/src/misc.c ****   */
  75:firmware/STM32F10x_StdPeriph_Lib_V3.3.0/Libraries/STM32F10x_StdPeriph_Driver/src/misc.c **** 
  76:firmware/STM32F10x_StdPeriph_Lib_V3.3.0/Libraries/STM32F10x_StdPeriph_Driver/src/misc.c **** /** @defgroup MISC_Private_Functions
  77:firmware/STM32F10x_StdPeriph_Lib_V3.3.0/Libraries/STM32F10x_StdPeriph_Driver/src/misc.c ****   * @{
  78:firmware/STM32F10x_StdPeriph_Lib_V3.3.0/Libraries/STM32F10x_StdPeriph_Driver/src/misc.c ****   */
  79:firmware/STM32F10x_StdPeriph_Lib_V3.3.0/Libraries/STM32F10x_StdPeriph_Driver/src/misc.c **** 
  80:firmware/STM32F10x_StdPeriph_Lib_V3.3.0/Libraries/STM32F10x_StdPeriph_Driver/src/misc.c **** /**
  81:firmware/STM32F10x_StdPeriph_Lib_V3.3.0/Libraries/STM32F10x_StdPeriph_Driver/src/misc.c ****   * @brief  Configures the priority grouping: pre-emption priority and subpriority.
  82:firmware/STM32F10x_StdPeriph_Lib_V3.3.0/Libraries/STM32F10x_StdPeriph_Driver/src/misc.c ****   * @param  NVIC_PriorityGroup: specifies the priority grouping bits length. 
  83:firmware/STM32F10x_StdPeriph_Lib_V3.3.0/Libraries/STM32F10x_StdPeriph_Driver/src/misc.c ****   *   This parameter can be one of the following values:
  84:firmware/STM32F10x_StdPeriph_Lib_V3.3.0/Libraries/STM32F10x_StdPeriph_Driver/src/misc.c ****   *     @arg NVIC_PriorityGroup_0: 0 bits for pre-emption priority
  85:firmware/STM32F10x_StdPeriph_Lib_V3.3.0/Libraries/STM32F10x_StdPeriph_Driver/src/misc.c ****   *                                4 bits for subpriority
  86:firmware/STM32F10x_StdPeriph_Lib_V3.3.0/Libraries/STM32F10x_StdPeriph_Driver/src/misc.c ****   *     @arg NVIC_PriorityGroup_1: 1 bits for pre-emption priority
  87:firmware/STM32F10x_StdPeriph_Lib_V3.3.0/Libraries/STM32F10x_StdPeriph_Driver/src/misc.c ****   *                                3 bits for subpriority
  88:firmware/STM32F10x_StdPeriph_Lib_V3.3.0/Libraries/STM32F10x_StdPeriph_Driver/src/misc.c ****   *     @arg NVIC_PriorityGroup_2: 2 bits for pre-emption priority
  89:firmware/STM32F10x_StdPeriph_Lib_V3.3.0/Libraries/STM32F10x_StdPeriph_Driver/src/misc.c ****   *                                2 bits for subpriority
  90:firmware/STM32F10x_StdPeriph_Lib_V3.3.0/Libraries/STM32F10x_StdPeriph_Driver/src/misc.c ****   *     @arg NVIC_PriorityGroup_3: 3 bits for pre-emption priority
  91:firmware/STM32F10x_StdPeriph_Lib_V3.3.0/Libraries/STM32F10x_StdPeriph_Driver/src/misc.c ****   *                                1 bits for subpriority
  92:firmware/STM32F10x_StdPeriph_Lib_V3.3.0/Libraries/STM32F10x_StdPeriph_Driver/src/misc.c ****   *     @arg NVIC_PriorityGroup_4: 4 bits for pre-emption priority
  93:firmware/STM32F10x_StdPeriph_Lib_V3.3.0/Libraries/STM32F10x_StdPeriph_Driver/src/misc.c ****   *                                0 bits for subpriority
  94:firmware/STM32F10x_StdPeriph_Lib_V3.3.0/Libraries/STM32F10x_StdPeriph_Driver/src/misc.c ****   * @retval None
  95:firmware/STM32F10x_StdPeriph_Lib_V3.3.0/Libraries/STM32F10x_StdPeriph_Driver/src/misc.c ****   */
  96:firmware/STM32F10x_StdPeriph_Lib_V3.3.0/Libraries/STM32F10x_StdPeriph_Driver/src/misc.c **** void NVIC_PriorityGroupConfig(uint32_t NVIC_PriorityGroup)
  97:firmware/STM32F10x_StdPeriph_Lib_V3.3.0/Libraries/STM32F10x_StdPeriph_Driver/src/misc.c **** {
  32              		.loc 1 97 0
  33              		.cfi_startproc
  34              		@ args = 0, pretend = 0, frame = 0
  35              		@ frame_needed = 0, uses_anonymous_args = 0
  36              		@ link register save eliminated.
  37              	.LVL0:
  98:firmware/STM32F10x_StdPeriph_Lib_V3.3.0/Libraries/STM32F10x_StdPeriph_Driver/src/misc.c ****   /* Check the parameters */
  99:firmware/STM32F10x_StdPeriph_Lib_V3.3.0/Libraries/STM32F10x_StdPeriph_Driver/src/misc.c ****   assert_param(IS_NVIC_PRIORITY_GROUP(NVIC_PriorityGroup));
 100:firmware/STM32F10x_StdPeriph_Lib_V3.3.0/Libraries/STM32F10x_StdPeriph_Driver/src/misc.c ****   
 101:firmware/STM32F10x_StdPeriph_Lib_V3.3.0/Libraries/STM32F10x_StdPeriph_Driver/src/misc.c ****   /* Set the PRIGROUP[10:8] bits according to NVIC_PriorityGroup value */
 102:firmware/STM32F10x_StdPeriph_Lib_V3.3.0/Libraries/STM32F10x_StdPeriph_Driver/src/misc.c ****   SCB->AIRCR = AIRCR_VECTKEY_MASK | NVIC_PriorityGroup;
  38              		.loc 1 102 0
  39 0000 40F0BE60 		orr	r0, r0, #99614720
  40              	.LVL1:
  41 0004 024B     		ldr	r3, .L2
  42 0006 40F42020 		orr	r0, r0, #655360
  43 000a D860     		str	r0, [r3, #12]
 103:firmware/STM32F10x_StdPeriph_Lib_V3.3.0/Libraries/STM32F10x_StdPeriph_Driver/src/misc.c **** }
  44              		.loc 1 103 0
  45 000c 7047     		bx	lr
  46              	.L3:
  47 000e 00BF     		.align	2
  48              	.L2:
  49 0010 00ED00E0 		.word	-536810240
  50              		.cfi_endproc
  51              	.LFE29:
  53              		.section	.text.NVIC_Init,"ax",%progbits
  54              		.align	1
  55              		.global	NVIC_Init
  56              		.thumb
  57              		.thumb_func
  59              	NVIC_Init:
  60              	.LFB30:
 104:firmware/STM32F10x_StdPeriph_Lib_V3.3.0/Libraries/STM32F10x_StdPeriph_Driver/src/misc.c **** 
 105:firmware/STM32F10x_StdPeriph_Lib_V3.3.0/Libraries/STM32F10x_StdPeriph_Driver/src/misc.c **** /**
 106:firmware/STM32F10x_StdPeriph_Lib_V3.3.0/Libraries/STM32F10x_StdPeriph_Driver/src/misc.c ****   * @brief  Initializes the NVIC peripheral according to the specified
 107:firmware/STM32F10x_StdPeriph_Lib_V3.3.0/Libraries/STM32F10x_StdPeriph_Driver/src/misc.c ****   *   parameters in the NVIC_InitStruct.
 108:firmware/STM32F10x_StdPeriph_Lib_V3.3.0/Libraries/STM32F10x_StdPeriph_Driver/src/misc.c ****   * @param  NVIC_InitStruct: pointer to a NVIC_InitTypeDef structure that contains
 109:firmware/STM32F10x_StdPeriph_Lib_V3.3.0/Libraries/STM32F10x_StdPeriph_Driver/src/misc.c ****   *   the configuration information for the specified NVIC peripheral.
 110:firmware/STM32F10x_StdPeriph_Lib_V3.3.0/Libraries/STM32F10x_StdPeriph_Driver/src/misc.c ****   * @retval None
 111:firmware/STM32F10x_StdPeriph_Lib_V3.3.0/Libraries/STM32F10x_StdPeriph_Driver/src/misc.c ****   */
 112:firmware/STM32F10x_StdPeriph_Lib_V3.3.0/Libraries/STM32F10x_StdPeriph_Driver/src/misc.c **** void NVIC_Init(NVIC_InitTypeDef* NVIC_InitStruct)
 113:firmware/STM32F10x_StdPeriph_Lib_V3.3.0/Libraries/STM32F10x_StdPeriph_Driver/src/misc.c **** {
  61              		.loc 1 113 0
  62              		.cfi_startproc
  63              		@ args = 0, pretend = 0, frame = 0
  64              		@ frame_needed = 0, uses_anonymous_args = 0
  65              	.LVL2:
 114:firmware/STM32F10x_StdPeriph_Lib_V3.3.0/Libraries/STM32F10x_StdPeriph_Driver/src/misc.c ****   uint32_t tmppriority = 0x00, tmppre = 0x00, tmpsub = 0x0F;
 115:firmware/STM32F10x_StdPeriph_Lib_V3.3.0/Libraries/STM32F10x_StdPeriph_Driver/src/misc.c ****   
 116:firmware/STM32F10x_StdPeriph_Lib_V3.3.0/Libraries/STM32F10x_StdPeriph_Driver/src/misc.c ****   /* Check the parameters */
 117:firmware/STM32F10x_StdPeriph_Lib_V3.3.0/Libraries/STM32F10x_StdPeriph_Driver/src/misc.c ****   assert_param(IS_FUNCTIONAL_STATE(NVIC_InitStruct->NVIC_IRQChannelCmd));
 118:firmware/STM32F10x_StdPeriph_Lib_V3.3.0/Libraries/STM32F10x_StdPeriph_Driver/src/misc.c ****   assert_param(IS_NVIC_PREEMPTION_PRIORITY(NVIC_InitStruct->NVIC_IRQChannelPreemptionPriority));  
 119:firmware/STM32F10x_StdPeriph_Lib_V3.3.0/Libraries/STM32F10x_StdPeriph_Driver/src/misc.c ****   assert_param(IS_NVIC_SUB_PRIORITY(NVIC_InitStruct->NVIC_IRQChannelSubPriority));
 120:firmware/STM32F10x_StdPeriph_Lib_V3.3.0/Libraries/STM32F10x_StdPeriph_Driver/src/misc.c ****     
 121:firmware/STM32F10x_StdPeriph_Lib_V3.3.0/Libraries/STM32F10x_StdPeriph_Driver/src/misc.c ****   if (NVIC_InitStruct->NVIC_IRQChannelCmd != DISABLE)
  66              		.loc 1 121 0
  67 0000 C378     		ldrb	r3, [r0, #3]	@ zero_extendqisi2
 113:firmware/STM32F10x_StdPeriph_Lib_V3.3.0/Libraries/STM32F10x_StdPeriph_Driver/src/misc.c **** {
  68              		.loc 1 113 0
  69 0002 10B5     		push	{r4, lr}
  70              	.LCFI0:
  71              		.cfi_def_cfa_offset 8
  72              		.loc 1 121 0
  73 0004 EBB1     		cbz	r3, .L5
  74              		.cfi_offset 14, -4
  75              		.cfi_offset 4, -8
 122:firmware/STM32F10x_StdPeriph_Lib_V3.3.0/Libraries/STM32F10x_StdPeriph_Driver/src/misc.c ****   {
 123:firmware/STM32F10x_StdPeriph_Lib_V3.3.0/Libraries/STM32F10x_StdPeriph_Driver/src/misc.c ****     /* Compute the Corresponding IRQ Priority --------------------------------*/    
 124:firmware/STM32F10x_StdPeriph_Lib_V3.3.0/Libraries/STM32F10x_StdPeriph_Driver/src/misc.c ****     tmppriority = (0x700 - ((SCB->AIRCR) & (uint32_t)0x700))>> 0x08;
  76              		.loc 1 124 0
  77 0006 154B     		ldr	r3, .L8
 125:firmware/STM32F10x_StdPeriph_Lib_V3.3.0/Libraries/STM32F10x_StdPeriph_Driver/src/misc.c ****     tmppre = (0x4 - tmppriority);
 126:firmware/STM32F10x_StdPeriph_Lib_V3.3.0/Libraries/STM32F10x_StdPeriph_Driver/src/misc.c ****     tmpsub = tmpsub >> tmppriority;
 127:firmware/STM32F10x_StdPeriph_Lib_V3.3.0/Libraries/STM32F10x_StdPeriph_Driver/src/misc.c **** 
 128:firmware/STM32F10x_StdPeriph_Lib_V3.3.0/Libraries/STM32F10x_StdPeriph_Driver/src/misc.c ****     tmppriority = (uint32_t)NVIC_InitStruct->NVIC_IRQChannelPreemptionPriority << tmppre;
  78              		.loc 1 128 0
  79 0008 4178     		ldrb	r1, [r0, #1]	@ zero_extendqisi2
 124:firmware/STM32F10x_StdPeriph_Lib_V3.3.0/Libraries/STM32F10x_StdPeriph_Driver/src/misc.c ****     tmppriority = (0x700 - ((SCB->AIRCR) & (uint32_t)0x700))>> 0x08;
  80              		.loc 1 124 0
  81 000a DB68     		ldr	r3, [r3, #12]
 129:firmware/STM32F10x_StdPeriph_Lib_V3.3.0/Libraries/STM32F10x_StdPeriph_Driver/src/misc.c ****     tmppriority |=  NVIC_InitStruct->NVIC_IRQChannelSubPriority & tmpsub;
  82              		.loc 1 129 0
  83 000c 8478     		ldrb	r4, [r0, #2]	@ zero_extendqisi2
 124:firmware/STM32F10x_StdPeriph_Lib_V3.3.0/Libraries/STM32F10x_StdPeriph_Driver/src/misc.c ****     tmppriority = (0x700 - ((SCB->AIRCR) & (uint32_t)0x700))>> 0x08;
  84              		.loc 1 124 0
  85 000e DB43     		mvns	r3, r3
  86 0010 03F4E063 		and	r3, r3, #1792
  87 0014 1B0A     		lsrs	r3, r3, #8
  88              	.LVL3:
 125:firmware/STM32F10x_StdPeriph_Lib_V3.3.0/Libraries/STM32F10x_StdPeriph_Driver/src/misc.c ****     tmppre = (0x4 - tmppriority);
  89              		.loc 1 125 0
  90 0016 C3F10402 		rsb	r2, r3, #4
 128:firmware/STM32F10x_StdPeriph_Lib_V3.3.0/Libraries/STM32F10x_StdPeriph_Driver/src/misc.c ****     tmppriority = (uint32_t)NVIC_InitStruct->NVIC_IRQChannelPreemptionPriority << tmppre;
  91              		.loc 1 128 0
  92 001a 9140     		lsls	r1, r1, r2
  93              	.LVL4:
 126:firmware/STM32F10x_StdPeriph_Lib_V3.3.0/Libraries/STM32F10x_StdPeriph_Driver/src/misc.c ****     tmpsub = tmpsub >> tmppriority;
  94              		.loc 1 126 0
  95 001c 0F22     		movs	r2, #15
  96 001e DA40     		lsrs	r2, r2, r3
  97              		.loc 1 129 0
  98 0020 2240     		ands	r2, r2, r4
  99 0022 0A43     		orrs	r2, r2, r1
 100              	.LVL5:
 130:firmware/STM32F10x_StdPeriph_Lib_V3.3.0/Libraries/STM32F10x_StdPeriph_Driver/src/misc.c ****     tmppriority = tmppriority << 0x04;
 131:firmware/STM32F10x_StdPeriph_Lib_V3.3.0/Libraries/STM32F10x_StdPeriph_Driver/src/misc.c ****         
 132:firmware/STM32F10x_StdPeriph_Lib_V3.3.0/Libraries/STM32F10x_StdPeriph_Driver/src/misc.c ****     NVIC->IP[NVIC_InitStruct->NVIC_IRQChannel] = tmppriority;
 101              		.loc 1 132 0
 102 0024 0E4B     		ldr	r3, .L8+4
 103              	.LVL6:
 104 0026 0178     		ldrb	r1, [r0, #0]	@ zero_extendqisi2
 130:firmware/STM32F10x_StdPeriph_Lib_V3.3.0/Libraries/STM32F10x_StdPeriph_Driver/src/misc.c ****     tmppriority = tmppriority << 0x04;
 105              		.loc 1 130 0
 106 0028 1201     		lsls	r2, r2, #4
 107              	.LVL7:
 108              		.loc 1 132 0
 109 002a CB18     		adds	r3, r1, r3
 110 002c D2B2     		uxtb	r2, r2
 111              	.LVL8:
 112 002e 83F80023 		strb	r2, [r3, #768]
 133:firmware/STM32F10x_StdPeriph_Lib_V3.3.0/Libraries/STM32F10x_StdPeriph_Driver/src/misc.c ****     
 134:firmware/STM32F10x_StdPeriph_Lib_V3.3.0/Libraries/STM32F10x_StdPeriph_Driver/src/misc.c ****     /* Enable the Selected IRQ Channels --------------------------------------*/
 135:firmware/STM32F10x_StdPeriph_Lib_V3.3.0/Libraries/STM32F10x_StdPeriph_Driver/src/misc.c ****     NVIC->ISER[NVIC_InitStruct->NVIC_IRQChannel >> 0x05] =
 113              		.loc 1 135 0
 114 0032 0378     		ldrb	r3, [r0, #0]	@ zero_extendqisi2
 136:firmware/STM32F10x_StdPeriph_Lib_V3.3.0/Libraries/STM32F10x_StdPeriph_Driver/src/misc.c ****       (uint32_t)0x01 << (NVIC_InitStruct->NVIC_IRQChannel & (uint8_t)0x1F);
 115              		.loc 1 136 0
 116 0034 0122     		movs	r2, #1
 135:firmware/STM32F10x_StdPeriph_Lib_V3.3.0/Libraries/STM32F10x_StdPeriph_Driver/src/misc.c ****     NVIC->ISER[NVIC_InitStruct->NVIC_IRQChannel >> 0x05] =
 117              		.loc 1 135 0
 118 0036 5909     		lsrs	r1, r3, #5
 119              		.loc 1 136 0
 120 0038 03F01F03 		and	r3, r3, #31
 121 003c 12FA03F3 		lsls	r3, r2, r3
 122 0040 07E0     		b	.L7
 123              	.LVL9:
 124              	.L5:
 137:firmware/STM32F10x_StdPeriph_Lib_V3.3.0/Libraries/STM32F10x_StdPeriph_Driver/src/misc.c ****   }
 138:firmware/STM32F10x_StdPeriph_Lib_V3.3.0/Libraries/STM32F10x_StdPeriph_Driver/src/misc.c ****   else
 139:firmware/STM32F10x_StdPeriph_Lib_V3.3.0/Libraries/STM32F10x_StdPeriph_Driver/src/misc.c ****   {
 140:firmware/STM32F10x_StdPeriph_Lib_V3.3.0/Libraries/STM32F10x_StdPeriph_Driver/src/misc.c ****     /* Disable the Selected IRQ Channels -------------------------------------*/
 141:firmware/STM32F10x_StdPeriph_Lib_V3.3.0/Libraries/STM32F10x_StdPeriph_Driver/src/misc.c ****     NVIC->ICER[NVIC_InitStruct->NVIC_IRQChannel >> 0x05] =
 125              		.loc 1 141 0
 126 0042 0378     		ldrb	r3, [r0, #0]	@ zero_extendqisi2
 142:firmware/STM32F10x_StdPeriph_Lib_V3.3.0/Libraries/STM32F10x_StdPeriph_Driver/src/misc.c ****       (uint32_t)0x01 << (NVIC_InitStruct->NVIC_IRQChannel & (uint8_t)0x1F);
 127              		.loc 1 142 0
 128 0044 0122     		movs	r2, #1
 141:firmware/STM32F10x_StdPeriph_Lib_V3.3.0/Libraries/STM32F10x_StdPeriph_Driver/src/misc.c ****     NVIC->ICER[NVIC_InitStruct->NVIC_IRQChannel >> 0x05] =
 129              		.loc 1 141 0
 130 0046 5909     		lsrs	r1, r3, #5
 131              		.loc 1 142 0
 132 0048 03F01F03 		and	r3, r3, #31
 133 004c 12FA03F3 		lsls	r3, r2, r3
 141:firmware/STM32F10x_StdPeriph_Lib_V3.3.0/Libraries/STM32F10x_StdPeriph_Driver/src/misc.c ****     NVIC->ICER[NVIC_InitStruct->NVIC_IRQChannel >> 0x05] =
 134              		.loc 1 141 0
 135 0050 2031     		adds	r1, r1, #32
 136              	.LVL10:
 137              	.L7:
 138 0052 034A     		ldr	r2, .L8+4
 139 0054 42F82130 		str	r3, [r2, r1, lsl #2]
 140 0058 10BD     		pop	{r4, pc}
 141              	.L9:
 142 005a 00BF     		.align	2
 143              	.L8:
 144 005c 00ED00E0 		.word	-536810240
 145 0060 00E100E0 		.word	-536813312
 146              		.cfi_endproc
 147              	.LFE30:
 149              		.section	.text.NVIC_SetVectorTable,"ax",%progbits
 150              		.align	1
 151              		.global	NVIC_SetVectorTable
 152              		.thumb
 153              		.thumb_func
 155              	NVIC_SetVectorTable:
 156              	.LFB31:
 143:firmware/STM32F10x_StdPeriph_Lib_V3.3.0/Libraries/STM32F10x_StdPeriph_Driver/src/misc.c ****   }
 144:firmware/STM32F10x_StdPeriph_Lib_V3.3.0/Libraries/STM32F10x_StdPeriph_Driver/src/misc.c **** }
 145:firmware/STM32F10x_StdPeriph_Lib_V3.3.0/Libraries/STM32F10x_StdPeriph_Driver/src/misc.c **** 
 146:firmware/STM32F10x_StdPeriph_Lib_V3.3.0/Libraries/STM32F10x_StdPeriph_Driver/src/misc.c **** /**
 147:firmware/STM32F10x_StdPeriph_Lib_V3.3.0/Libraries/STM32F10x_StdPeriph_Driver/src/misc.c ****   * @brief  Sets the vector table location and Offset.
 148:firmware/STM32F10x_StdPeriph_Lib_V3.3.0/Libraries/STM32F10x_StdPeriph_Driver/src/misc.c ****   * @param  NVIC_VectTab: specifies if the vector table is in RAM or FLASH memory.
 149:firmware/STM32F10x_StdPeriph_Lib_V3.3.0/Libraries/STM32F10x_StdPeriph_Driver/src/misc.c ****   *   This parameter can be one of the following values:
 150:firmware/STM32F10x_StdPeriph_Lib_V3.3.0/Libraries/STM32F10x_StdPeriph_Driver/src/misc.c ****   *     @arg NVIC_VectTab_RAM
 151:firmware/STM32F10x_StdPeriph_Lib_V3.3.0/Libraries/STM32F10x_StdPeriph_Driver/src/misc.c ****   *     @arg NVIC_VectTab_FLASH
 152:firmware/STM32F10x_StdPeriph_Lib_V3.3.0/Libraries/STM32F10x_StdPeriph_Driver/src/misc.c ****   * @param  Offset: Vector Table base offset field. This value must be a multiple of 0x100.
 153:firmware/STM32F10x_StdPeriph_Lib_V3.3.0/Libraries/STM32F10x_StdPeriph_Driver/src/misc.c ****   * @retval None
 154:firmware/STM32F10x_StdPeriph_Lib_V3.3.0/Libraries/STM32F10x_StdPeriph_Driver/src/misc.c ****   */
 155:firmware/STM32F10x_StdPeriph_Lib_V3.3.0/Libraries/STM32F10x_StdPeriph_Driver/src/misc.c **** void NVIC_SetVectorTable(uint32_t NVIC_VectTab, uint32_t Offset)
 156:firmware/STM32F10x_StdPeriph_Lib_V3.3.0/Libraries/STM32F10x_StdPeriph_Driver/src/misc.c **** { 
 157              		.loc 1 156 0
 158              		.cfi_startproc
 159              		@ args = 0, pretend = 0, frame = 0
 160              		@ frame_needed = 0, uses_anonymous_args = 0
 161              		@ link register save eliminated.
 162              	.LVL11:
 157:firmware/STM32F10x_StdPeriph_Lib_V3.3.0/Libraries/STM32F10x_StdPeriph_Driver/src/misc.c ****   /* Check the parameters */
 158:firmware/STM32F10x_StdPeriph_Lib_V3.3.0/Libraries/STM32F10x_StdPeriph_Driver/src/misc.c ****   assert_param(IS_NVIC_VECTTAB(NVIC_VectTab));
 159:firmware/STM32F10x_StdPeriph_Lib_V3.3.0/Libraries/STM32F10x_StdPeriph_Driver/src/misc.c ****   assert_param(IS_NVIC_OFFSET(Offset));  
 160:firmware/STM32F10x_StdPeriph_Lib_V3.3.0/Libraries/STM32F10x_StdPeriph_Driver/src/misc.c ****    
 161:firmware/STM32F10x_StdPeriph_Lib_V3.3.0/Libraries/STM32F10x_StdPeriph_Driver/src/misc.c ****   SCB->VTOR = NVIC_VectTab | (Offset & (uint32_t)0x1FFFFF80);
 163              		.loc 1 161 0
 164 0000 21F06041 		bic	r1, r1, #-536870912
 165              	.LVL12:
 166 0004 21F07F01 		bic	r1, r1, #127
 167 0008 014B     		ldr	r3, .L11
 168 000a 0143     		orrs	r1, r1, r0
 169 000c 9960     		str	r1, [r3, #8]
 162:firmware/STM32F10x_StdPeriph_Lib_V3.3.0/Libraries/STM32F10x_StdPeriph_Driver/src/misc.c **** }
 170              		.loc 1 162 0
 171 000e 7047     		bx	lr
 172              	.L12:
 173              		.align	2
 174              	.L11:
 175 0010 00ED00E0 		.word	-536810240
 176              		.cfi_endproc
 177              	.LFE31:
 179              		.section	.text.NVIC_SystemLPConfig,"ax",%progbits
 180              		.align	1
 181              		.global	NVIC_SystemLPConfig
 182              		.thumb
 183              		.thumb_func
 185              	NVIC_SystemLPConfig:
 186              	.LFB32:
 163:firmware/STM32F10x_StdPeriph_Lib_V3.3.0/Libraries/STM32F10x_StdPeriph_Driver/src/misc.c **** 
 164:firmware/STM32F10x_StdPeriph_Lib_V3.3.0/Libraries/STM32F10x_StdPeriph_Driver/src/misc.c **** /**
 165:firmware/STM32F10x_StdPeriph_Lib_V3.3.0/Libraries/STM32F10x_StdPeriph_Driver/src/misc.c ****   * @brief  Selects the condition for the system to enter low power mode.
 166:firmware/STM32F10x_StdPeriph_Lib_V3.3.0/Libraries/STM32F10x_StdPeriph_Driver/src/misc.c ****   * @param  LowPowerMode: Specifies the new mode for the system to enter low power mode.
 167:firmware/STM32F10x_StdPeriph_Lib_V3.3.0/Libraries/STM32F10x_StdPeriph_Driver/src/misc.c ****   *   This parameter can be one of the following values:
 168:firmware/STM32F10x_StdPeriph_Lib_V3.3.0/Libraries/STM32F10x_StdPeriph_Driver/src/misc.c ****   *     @arg NVIC_LP_SEVONPEND
 169:firmware/STM32F10x_StdPeriph_Lib_V3.3.0/Libraries/STM32F10x_StdPeriph_Driver/src/misc.c ****   *     @arg NVIC_LP_SLEEPDEEP
 170:firmware/STM32F10x_StdPeriph_Lib_V3.3.0/Libraries/STM32F10x_StdPeriph_Driver/src/misc.c ****   *     @arg NVIC_LP_SLEEPONEXIT
 171:firmware/STM32F10x_StdPeriph_Lib_V3.3.0/Libraries/STM32F10x_StdPeriph_Driver/src/misc.c ****   * @param  NewState: new state of LP condition. This parameter can be: ENABLE or DISABLE.
 172:firmware/STM32F10x_StdPeriph_Lib_V3.3.0/Libraries/STM32F10x_StdPeriph_Driver/src/misc.c ****   * @retval None
 173:firmware/STM32F10x_StdPeriph_Lib_V3.3.0/Libraries/STM32F10x_StdPeriph_Driver/src/misc.c ****   */
 174:firmware/STM32F10x_StdPeriph_Lib_V3.3.0/Libraries/STM32F10x_StdPeriph_Driver/src/misc.c **** void NVIC_SystemLPConfig(uint8_t LowPowerMode, FunctionalState NewState)
 175:firmware/STM32F10x_StdPeriph_Lib_V3.3.0/Libraries/STM32F10x_StdPeriph_Driver/src/misc.c **** {
 187              		.loc 1 175 0
 188              		.cfi_startproc
 189              		@ args = 0, pretend = 0, frame = 0
 190              		@ frame_needed = 0, uses_anonymous_args = 0
 191              		@ link register save eliminated.
 192              	.LVL13:
 193 0000 044B     		ldr	r3, .L17
 176:firmware/STM32F10x_StdPeriph_Lib_V3.3.0/Libraries/STM32F10x_StdPeriph_Driver/src/misc.c ****   /* Check the parameters */
 177:firmware/STM32F10x_StdPeriph_Lib_V3.3.0/Libraries/STM32F10x_StdPeriph_Driver/src/misc.c ****   assert_param(IS_NVIC_LP(LowPowerMode));
 178:firmware/STM32F10x_StdPeriph_Lib_V3.3.0/Libraries/STM32F10x_StdPeriph_Driver/src/misc.c ****   assert_param(IS_FUNCTIONAL_STATE(NewState));  
 179:firmware/STM32F10x_StdPeriph_Lib_V3.3.0/Libraries/STM32F10x_StdPeriph_Driver/src/misc.c ****   
 180:firmware/STM32F10x_StdPeriph_Lib_V3.3.0/Libraries/STM32F10x_StdPeriph_Driver/src/misc.c ****   if (NewState != DISABLE)
 194              		.loc 1 180 0
 195 0002 11B1     		cbz	r1, .L14
 181:firmware/STM32F10x_StdPeriph_Lib_V3.3.0/Libraries/STM32F10x_StdPeriph_Driver/src/misc.c ****   {
 182:firmware/STM32F10x_StdPeriph_Lib_V3.3.0/Libraries/STM32F10x_StdPeriph_Driver/src/misc.c ****     SCB->SCR |= LowPowerMode;
 196              		.loc 1 182 0
 197 0004 1A69     		ldr	r2, [r3, #16]
 198 0006 1043     		orrs	r0, r0, r2
 199              	.LVL14:
 200 0008 02E0     		b	.L16
 201              	.LVL15:
 202              	.L14:
 183:firmware/STM32F10x_StdPeriph_Lib_V3.3.0/Libraries/STM32F10x_StdPeriph_Driver/src/misc.c ****   }
 184:firmware/STM32F10x_StdPeriph_Lib_V3.3.0/Libraries/STM32F10x_StdPeriph_Driver/src/misc.c ****   else
 185:firmware/STM32F10x_StdPeriph_Lib_V3.3.0/Libraries/STM32F10x_StdPeriph_Driver/src/misc.c ****   {
 186:firmware/STM32F10x_StdPeriph_Lib_V3.3.0/Libraries/STM32F10x_StdPeriph_Driver/src/misc.c ****     SCB->SCR &= (uint32_t)(~(uint32_t)LowPowerMode);
 203              		.loc 1 186 0
 204 000a 1A69     		ldr	r2, [r3, #16]
 205 000c 22EA0000 		bic	r0, r2, r0
 206              	.LVL16:
 207              	.L16:
 208 0010 1861     		str	r0, [r3, #16]
 209 0012 7047     		bx	lr
 210              	.L18:
 211              		.align	2
 212              	.L17:
 213 0014 00ED00E0 		.word	-536810240
 214              		.cfi_endproc
 215              	.LFE32:
 217              		.section	.text.SysTick_CLKSourceConfig,"ax",%progbits
 218              		.align	1
 219              		.global	SysTick_CLKSourceConfig
 220              		.thumb
 221              		.thumb_func
 223              	SysTick_CLKSourceConfig:
 224              	.LFB33:
 187:firmware/STM32F10x_StdPeriph_Lib_V3.3.0/Libraries/STM32F10x_StdPeriph_Driver/src/misc.c ****   }
 188:firmware/STM32F10x_StdPeriph_Lib_V3.3.0/Libraries/STM32F10x_StdPeriph_Driver/src/misc.c **** }
 189:firmware/STM32F10x_StdPeriph_Lib_V3.3.0/Libraries/STM32F10x_StdPeriph_Driver/src/misc.c **** 
 190:firmware/STM32F10x_StdPeriph_Lib_V3.3.0/Libraries/STM32F10x_StdPeriph_Driver/src/misc.c **** /**
 191:firmware/STM32F10x_StdPeriph_Lib_V3.3.0/Libraries/STM32F10x_StdPeriph_Driver/src/misc.c ****   * @brief  Configures the SysTick clock source.
 192:firmware/STM32F10x_StdPeriph_Lib_V3.3.0/Libraries/STM32F10x_StdPeriph_Driver/src/misc.c ****   * @param  SysTick_CLKSource: specifies the SysTick clock source.
 193:firmware/STM32F10x_StdPeriph_Lib_V3.3.0/Libraries/STM32F10x_StdPeriph_Driver/src/misc.c ****   *   This parameter can be one of the following values:
 194:firmware/STM32F10x_StdPeriph_Lib_V3.3.0/Libraries/STM32F10x_StdPeriph_Driver/src/misc.c ****   *     @arg SysTick_CLKSource_HCLK_Div8: AHB clock divided by 8 selected as SysTick clock source.
 195:firmware/STM32F10x_StdPeriph_Lib_V3.3.0/Libraries/STM32F10x_StdPeriph_Driver/src/misc.c ****   *     @arg SysTick_CLKSource_HCLK: AHB clock selected as SysTick clock source.
 196:firmware/STM32F10x_StdPeriph_Lib_V3.3.0/Libraries/STM32F10x_StdPeriph_Driver/src/misc.c ****   * @retval None
 197:firmware/STM32F10x_StdPeriph_Lib_V3.3.0/Libraries/STM32F10x_StdPeriph_Driver/src/misc.c ****   */
 198:firmware/STM32F10x_StdPeriph_Lib_V3.3.0/Libraries/STM32F10x_StdPeriph_Driver/src/misc.c **** void SysTick_CLKSourceConfig(uint32_t SysTick_CLKSource)
 199:firmware/STM32F10x_StdPeriph_Lib_V3.3.0/Libraries/STM32F10x_StdPeriph_Driver/src/misc.c **** {
 225              		.loc 1 199 0
 226              		.cfi_startproc
 227              		@ args = 0, pretend = 0, frame = 0
 228              		@ frame_needed = 0, uses_anonymous_args = 0
 229              		@ link register save eliminated.
 230              	.LVL17:
 231 0000 044B     		ldr	r3, .L23
 200:firmware/STM32F10x_StdPeriph_Lib_V3.3.0/Libraries/STM32F10x_StdPeriph_Driver/src/misc.c ****   /* Check the parameters */
 201:firmware/STM32F10x_StdPeriph_Lib_V3.3.0/Libraries/STM32F10x_StdPeriph_Driver/src/misc.c ****   assert_param(IS_SYSTICK_CLK_SOURCE(SysTick_CLKSource));
 202:firmware/STM32F10x_StdPeriph_Lib_V3.3.0/Libraries/STM32F10x_StdPeriph_Driver/src/misc.c ****   if (SysTick_CLKSource == SysTick_CLKSource_HCLK)
 232              		.loc 1 202 0
 233 0002 0428     		cmp	r0, #4
 203:firmware/STM32F10x_StdPeriph_Lib_V3.3.0/Libraries/STM32F10x_StdPeriph_Driver/src/misc.c ****   {
 204:firmware/STM32F10x_StdPeriph_Lib_V3.3.0/Libraries/STM32F10x_StdPeriph_Driver/src/misc.c ****     SysTick->CTRL |= SysTick_CLKSource_HCLK;
 234              		.loc 1 204 0
 235 0004 1A68     		ldr	r2, [r3, #0]
 236 0006 0CBF     		ite	eq
 237 0008 42F00402 		orreq	r2, r2, #4
 205:firmware/STM32F10x_StdPeriph_Lib_V3.3.0/Libraries/STM32F10x_StdPeriph_Driver/src/misc.c ****   }
 206:firmware/STM32F10x_StdPeriph_Lib_V3.3.0/Libraries/STM32F10x_StdPeriph_Driver/src/misc.c ****   else
 207:firmware/STM32F10x_StdPeriph_Lib_V3.3.0/Libraries/STM32F10x_StdPeriph_Driver/src/misc.c ****   {
 208:firmware/STM32F10x_StdPeriph_Lib_V3.3.0/Libraries/STM32F10x_StdPeriph_Driver/src/misc.c ****     SysTick->CTRL &= SysTick_CLKSource_HCLK_Div8;
 238              		.loc 1 208 0
 239 000c 22F00402 		bicne	r2, r2, #4
 240 0010 1A60     		str	r2, [r3, #0]
 241 0012 7047     		bx	lr
 242              	.L24:
 243              		.align	2
 244              	.L23:
 245 0014 10E000E0 		.word	-536813552
 246              		.cfi_endproc
 247              	.LFE33:
 249              		.text
 250              	.Letext0: