   1              		.syntax unified
   2              		.cpu cortex-m3
   3              		.fpu softvfp
   4              		.eabi_attribute 20, 1
   5              		.eabi_attribute 21, 1
   6              		.eabi_attribute 23, 3
   7              		.eabi_attribute 24, 1
   8              		.eabi_attribute 25, 1
   9              		.eabi_attribute 26, 1
  10              		.eabi_attribute 30, 4
  11              		.eabi_attribute 18, 4
  12              		.thumb
  13              		.file	"stm32f10x_usart.c"
  21              	.Ltext0:
  22              		.cfi_sections	.debug_frame
  23              		.section	.text.USART_DeInit,"ax",%progbits
  24              		.align	1
  25              		.global	USART_DeInit
  26              		.thumb
  27              		.thumb_func
  29              	USART_DeInit:
  30              	.LFB29:
  31              		.file 1 "firmware/STM32F10x_StdPeriph_Lib_V3.3.0/Libraries/STM32F10x_StdPeriph_Driver/src/stm32f10
   1:firmware/STM32F10x_StdPeriph_Lib_V3.3.0/Libraries/STM32F10x_StdPeriph_Driver/src/stm32f10x_usart.c **** /**
   2:firmware/STM32F10x_StdPeriph_Lib_V3.3.0/Libraries/STM32F10x_StdPeriph_Driver/src/stm32f10x_usart.c ****   ******************************************************************************
   3:firmware/STM32F10x_StdPeriph_Lib_V3.3.0/Libraries/STM32F10x_StdPeriph_Driver/src/stm32f10x_usart.c ****   * @file    stm32f10x_usart.c
   4:firmware/STM32F10x_StdPeriph_Lib_V3.3.0/Libraries/STM32F10x_StdPeriph_Driver/src/stm32f10x_usart.c ****   * @author  MCD Application Team
   5:firmware/STM32F10x_StdPeriph_Lib_V3.3.0/Libraries/STM32F10x_StdPeriph_Driver/src/stm32f10x_usart.c ****   * @version V3.3.0
   6:firmware/STM32F10x_StdPeriph_Lib_V3.3.0/Libraries/STM32F10x_StdPeriph_Driver/src/stm32f10x_usart.c ****   * @date    04/16/2010
   7:firmware/STM32F10x_StdPeriph_Lib_V3.3.0/Libraries/STM32F10x_StdPeriph_Driver/src/stm32f10x_usart.c ****   * @brief   This file provides all the USART firmware functions.
   8:firmware/STM32F10x_StdPeriph_Lib_V3.3.0/Libraries/STM32F10x_StdPeriph_Driver/src/stm32f10x_usart.c ****   ******************************************************************************
   9:firmware/STM32F10x_StdPeriph_Lib_V3.3.0/Libraries/STM32F10x_StdPeriph_Driver/src/stm32f10x_usart.c ****   * @copy
  10:firmware/STM32F10x_StdPeriph_Lib_V3.3.0/Libraries/STM32F10x_StdPeriph_Driver/src/stm32f10x_usart.c ****   *
  11:firmware/STM32F10x_StdPeriph_Lib_V3.3.0/Libraries/STM32F10x_StdPeriph_Driver/src/stm32f10x_usart.c ****   * THE PRESENT FIRMWARE WHICH IS FOR GUIDANCE ONLY AIMS AT PROVIDING CUSTOMERS
  12:firmware/STM32F10x_StdPeriph_Lib_V3.3.0/Libraries/STM32F10x_StdPeriph_Driver/src/stm32f10x_usart.c ****   * WITH CODING INFORMATION REGARDING THEIR PRODUCTS IN ORDER FOR THEM TO SAVE
  13:firmware/STM32F10x_StdPeriph_Lib_V3.3.0/Libraries/STM32F10x_StdPeriph_Driver/src/stm32f10x_usart.c ****   * TIME. AS A RESULT, STMICROELECTRONICS SHALL NOT BE HELD LIABLE FOR ANY
  14:firmware/STM32F10x_StdPeriph_Lib_V3.3.0/Libraries/STM32F10x_StdPeriph_Driver/src/stm32f10x_usart.c ****   * DIRECT, INDIRECT OR CONSEQUENTIAL DAMAGES WITH RESPECT TO ANY CLAIMS ARISING
  15:firmware/STM32F10x_StdPeriph_Lib_V3.3.0/Libraries/STM32F10x_StdPeriph_Driver/src/stm32f10x_usart.c ****   * FROM THE CONTENT OF SUCH FIRMWARE AND/OR THE USE MADE BY CUSTOMERS OF THE
  16:firmware/STM32F10x_StdPeriph_Lib_V3.3.0/Libraries/STM32F10x_StdPeriph_Driver/src/stm32f10x_usart.c ****   * CODING INFORMATION CONTAINED HEREIN IN CONNECTION WITH THEIR PRODUCTS.
  17:firmware/STM32F10x_StdPeriph_Lib_V3.3.0/Libraries/STM32F10x_StdPeriph_Driver/src/stm32f10x_usart.c ****   *
  18:firmware/STM32F10x_StdPeriph_Lib_V3.3.0/Libraries/STM32F10x_StdPeriph_Driver/src/stm32f10x_usart.c ****   * <h2><center>&copy; COPYRIGHT 2010 STMicroelectronics</center></h2>
  19:firmware/STM32F10x_StdPeriph_Lib_V3.3.0/Libraries/STM32F10x_StdPeriph_Driver/src/stm32f10x_usart.c ****   */ 
  20:firmware/STM32F10x_StdPeriph_Lib_V3.3.0/Libraries/STM32F10x_StdPeriph_Driver/src/stm32f10x_usart.c **** 
  21:firmware/STM32F10x_StdPeriph_Lib_V3.3.0/Libraries/STM32F10x_StdPeriph_Driver/src/stm32f10x_usart.c **** /* Includes ------------------------------------------------------------------*/
  22:firmware/STM32F10x_StdPeriph_Lib_V3.3.0/Libraries/STM32F10x_StdPeriph_Driver/src/stm32f10x_usart.c **** #include "stm32f10x_usart.h"
  23:firmware/STM32F10x_StdPeriph_Lib_V3.3.0/Libraries/STM32F10x_StdPeriph_Driver/src/stm32f10x_usart.c **** #include "stm32f10x_rcc.h"
  24:firmware/STM32F10x_StdPeriph_Lib_V3.3.0/Libraries/STM32F10x_StdPeriph_Driver/src/stm32f10x_usart.c **** 
  25:firmware/STM32F10x_StdPeriph_Lib_V3.3.0/Libraries/STM32F10x_StdPeriph_Driver/src/stm32f10x_usart.c **** /** @addtogroup STM32F10x_StdPeriph_Driver
  26:firmware/STM32F10x_StdPeriph_Lib_V3.3.0/Libraries/STM32F10x_StdPeriph_Driver/src/stm32f10x_usart.c ****   * @{
  27:firmware/STM32F10x_StdPeriph_Lib_V3.3.0/Libraries/STM32F10x_StdPeriph_Driver/src/stm32f10x_usart.c ****   */
  28:firmware/STM32F10x_StdPeriph_Lib_V3.3.0/Libraries/STM32F10x_StdPeriph_Driver/src/stm32f10x_usart.c **** 
  29:firmware/STM32F10x_StdPeriph_Lib_V3.3.0/Libraries/STM32F10x_StdPeriph_Driver/src/stm32f10x_usart.c **** /** @defgroup USART 
  30:firmware/STM32F10x_StdPeriph_Lib_V3.3.0/Libraries/STM32F10x_StdPeriph_Driver/src/stm32f10x_usart.c ****   * @brief USART driver modules
  31:firmware/STM32F10x_StdPeriph_Lib_V3.3.0/Libraries/STM32F10x_StdPeriph_Driver/src/stm32f10x_usart.c ****   * @{
  32:firmware/STM32F10x_StdPeriph_Lib_V3.3.0/Libraries/STM32F10x_StdPeriph_Driver/src/stm32f10x_usart.c ****   */
  33:firmware/STM32F10x_StdPeriph_Lib_V3.3.0/Libraries/STM32F10x_StdPeriph_Driver/src/stm32f10x_usart.c **** 
  34:firmware/STM32F10x_StdPeriph_Lib_V3.3.0/Libraries/STM32F10x_StdPeriph_Driver/src/stm32f10x_usart.c **** /** @defgroup USART_Private_TypesDefinitions
  35:firmware/STM32F10x_StdPeriph_Lib_V3.3.0/Libraries/STM32F10x_StdPeriph_Driver/src/stm32f10x_usart.c ****   * @{
  36:firmware/STM32F10x_StdPeriph_Lib_V3.3.0/Libraries/STM32F10x_StdPeriph_Driver/src/stm32f10x_usart.c ****   */
  37:firmware/STM32F10x_StdPeriph_Lib_V3.3.0/Libraries/STM32F10x_StdPeriph_Driver/src/stm32f10x_usart.c **** 
  38:firmware/STM32F10x_StdPeriph_Lib_V3.3.0/Libraries/STM32F10x_StdPeriph_Driver/src/stm32f10x_usart.c **** /**
  39:firmware/STM32F10x_StdPeriph_Lib_V3.3.0/Libraries/STM32F10x_StdPeriph_Driver/src/stm32f10x_usart.c ****   * @}
  40:firmware/STM32F10x_StdPeriph_Lib_V3.3.0/Libraries/STM32F10x_StdPeriph_Driver/src/stm32f10x_usart.c ****   */
  41:firmware/STM32F10x_StdPeriph_Lib_V3.3.0/Libraries/STM32F10x_StdPeriph_Driver/src/stm32f10x_usart.c **** 
  42:firmware/STM32F10x_StdPeriph_Lib_V3.3.0/Libraries/STM32F10x_StdPeriph_Driver/src/stm32f10x_usart.c **** /** @defgroup USART_Private_Defines
  43:firmware/STM32F10x_StdPeriph_Lib_V3.3.0/Libraries/STM32F10x_StdPeriph_Driver/src/stm32f10x_usart.c ****   * @{
  44:firmware/STM32F10x_StdPeriph_Lib_V3.3.0/Libraries/STM32F10x_StdPeriph_Driver/src/stm32f10x_usart.c ****   */
  45:firmware/STM32F10x_StdPeriph_Lib_V3.3.0/Libraries/STM32F10x_StdPeriph_Driver/src/stm32f10x_usart.c **** 
  46:firmware/STM32F10x_StdPeriph_Lib_V3.3.0/Libraries/STM32F10x_StdPeriph_Driver/src/stm32f10x_usart.c **** #define CR1_UE_Set                ((uint16_t)0x2000)  /*!< USART Enable Mask */
  47:firmware/STM32F10x_StdPeriph_Lib_V3.3.0/Libraries/STM32F10x_StdPeriph_Driver/src/stm32f10x_usart.c **** #define CR1_UE_Reset              ((uint16_t)0xDFFF)  /*!< USART Disable Mask */
  48:firmware/STM32F10x_StdPeriph_Lib_V3.3.0/Libraries/STM32F10x_StdPeriph_Driver/src/stm32f10x_usart.c **** 
  49:firmware/STM32F10x_StdPeriph_Lib_V3.3.0/Libraries/STM32F10x_StdPeriph_Driver/src/stm32f10x_usart.c **** #define CR1_WAKE_Mask             ((uint16_t)0xF7FF)  /*!< USART WakeUp Method Mask */
  50:firmware/STM32F10x_StdPeriph_Lib_V3.3.0/Libraries/STM32F10x_StdPeriph_Driver/src/stm32f10x_usart.c **** 
  51:firmware/STM32F10x_StdPeriph_Lib_V3.3.0/Libraries/STM32F10x_StdPeriph_Driver/src/stm32f10x_usart.c **** #define CR1_RWU_Set               ((uint16_t)0x0002)  /*!< USART mute mode Enable Mask */
  52:firmware/STM32F10x_StdPeriph_Lib_V3.3.0/Libraries/STM32F10x_StdPeriph_Driver/src/stm32f10x_usart.c **** #define CR1_RWU_Reset             ((uint16_t)0xFFFD)  /*!< USART mute mode Enable Mask */
  53:firmware/STM32F10x_StdPeriph_Lib_V3.3.0/Libraries/STM32F10x_StdPeriph_Driver/src/stm32f10x_usart.c **** #define CR1_SBK_Set               ((uint16_t)0x0001)  /*!< USART Break Character send Mask */
  54:firmware/STM32F10x_StdPeriph_Lib_V3.3.0/Libraries/STM32F10x_StdPeriph_Driver/src/stm32f10x_usart.c **** #define CR1_CLEAR_Mask            ((uint16_t)0xE9F3)  /*!< USART CR1 Mask */
  55:firmware/STM32F10x_StdPeriph_Lib_V3.3.0/Libraries/STM32F10x_StdPeriph_Driver/src/stm32f10x_usart.c **** #define CR2_Address_Mask          ((uint16_t)0xFFF0)  /*!< USART address Mask */
  56:firmware/STM32F10x_StdPeriph_Lib_V3.3.0/Libraries/STM32F10x_StdPeriph_Driver/src/stm32f10x_usart.c **** 
  57:firmware/STM32F10x_StdPeriph_Lib_V3.3.0/Libraries/STM32F10x_StdPeriph_Driver/src/stm32f10x_usart.c **** #define CR2_LINEN_Set              ((uint16_t)0x4000)  /*!< USART LIN Enable Mask */
  58:firmware/STM32F10x_StdPeriph_Lib_V3.3.0/Libraries/STM32F10x_StdPeriph_Driver/src/stm32f10x_usart.c **** #define CR2_LINEN_Reset            ((uint16_t)0xBFFF)  /*!< USART LIN Disable Mask */
  59:firmware/STM32F10x_StdPeriph_Lib_V3.3.0/Libraries/STM32F10x_StdPeriph_Driver/src/stm32f10x_usart.c **** 
  60:firmware/STM32F10x_StdPeriph_Lib_V3.3.0/Libraries/STM32F10x_StdPeriph_Driver/src/stm32f10x_usart.c **** #define CR2_LBDL_Mask             ((uint16_t)0xFFDF)  /*!< USART LIN Break detection Mask */
  61:firmware/STM32F10x_StdPeriph_Lib_V3.3.0/Libraries/STM32F10x_StdPeriph_Driver/src/stm32f10x_usart.c **** #define CR2_STOP_CLEAR_Mask       ((uint16_t)0xCFFF)  /*!< USART CR2 STOP Bits Mask */
  62:firmware/STM32F10x_StdPeriph_Lib_V3.3.0/Libraries/STM32F10x_StdPeriph_Driver/src/stm32f10x_usart.c **** #define CR2_CLOCK_CLEAR_Mask      ((uint16_t)0xF0FF)  /*!< USART CR2 Clock Mask */
  63:firmware/STM32F10x_StdPeriph_Lib_V3.3.0/Libraries/STM32F10x_StdPeriph_Driver/src/stm32f10x_usart.c **** 
  64:firmware/STM32F10x_StdPeriph_Lib_V3.3.0/Libraries/STM32F10x_StdPeriph_Driver/src/stm32f10x_usart.c **** #define CR3_SCEN_Set              ((uint16_t)0x0020)  /*!< USART SC Enable Mask */
  65:firmware/STM32F10x_StdPeriph_Lib_V3.3.0/Libraries/STM32F10x_StdPeriph_Driver/src/stm32f10x_usart.c **** #define CR3_SCEN_Reset            ((uint16_t)0xFFDF)  /*!< USART SC Disable Mask */
  66:firmware/STM32F10x_StdPeriph_Lib_V3.3.0/Libraries/STM32F10x_StdPeriph_Driver/src/stm32f10x_usart.c **** 
  67:firmware/STM32F10x_StdPeriph_Lib_V3.3.0/Libraries/STM32F10x_StdPeriph_Driver/src/stm32f10x_usart.c **** #define CR3_NACK_Set              ((uint16_t)0x0010)  /*!< USART SC NACK Enable Mask */
  68:firmware/STM32F10x_StdPeriph_Lib_V3.3.0/Libraries/STM32F10x_StdPeriph_Driver/src/stm32f10x_usart.c **** #define CR3_NACK_Reset            ((uint16_t)0xFFEF)  /*!< USART SC NACK Disable Mask */
  69:firmware/STM32F10x_StdPeriph_Lib_V3.3.0/Libraries/STM32F10x_StdPeriph_Driver/src/stm32f10x_usart.c **** 
  70:firmware/STM32F10x_StdPeriph_Lib_V3.3.0/Libraries/STM32F10x_StdPeriph_Driver/src/stm32f10x_usart.c **** #define CR3_HDSEL_Set             ((uint16_t)0x0008)  /*!< USART Half-Duplex Enable Mask */
  71:firmware/STM32F10x_StdPeriph_Lib_V3.3.0/Libraries/STM32F10x_StdPeriph_Driver/src/stm32f10x_usart.c **** #define CR3_HDSEL_Reset           ((uint16_t)0xFFF7)  /*!< USART Half-Duplex Disable Mask */
  72:firmware/STM32F10x_StdPeriph_Lib_V3.3.0/Libraries/STM32F10x_StdPeriph_Driver/src/stm32f10x_usart.c **** 
  73:firmware/STM32F10x_StdPeriph_Lib_V3.3.0/Libraries/STM32F10x_StdPeriph_Driver/src/stm32f10x_usart.c **** #define CR3_IRLP_Mask             ((uint16_t)0xFFFB)  /*!< USART IrDA LowPower mode Mask */
  74:firmware/STM32F10x_StdPeriph_Lib_V3.3.0/Libraries/STM32F10x_StdPeriph_Driver/src/stm32f10x_usart.c **** #define CR3_CLEAR_Mask            ((uint16_t)0xFCFF)  /*!< USART CR3 Mask */
  75:firmware/STM32F10x_StdPeriph_Lib_V3.3.0/Libraries/STM32F10x_StdPeriph_Driver/src/stm32f10x_usart.c **** 
  76:firmware/STM32F10x_StdPeriph_Lib_V3.3.0/Libraries/STM32F10x_StdPeriph_Driver/src/stm32f10x_usart.c **** #define CR3_IREN_Set              ((uint16_t)0x0002)  /*!< USART IrDA Enable Mask */
  77:firmware/STM32F10x_StdPeriph_Lib_V3.3.0/Libraries/STM32F10x_StdPeriph_Driver/src/stm32f10x_usart.c **** #define CR3_IREN_Reset            ((uint16_t)0xFFFD)  /*!< USART IrDA Disable Mask */
  78:firmware/STM32F10x_StdPeriph_Lib_V3.3.0/Libraries/STM32F10x_StdPeriph_Driver/src/stm32f10x_usart.c **** #define GTPR_LSB_Mask             ((uint16_t)0x00FF)  /*!< Guard Time Register LSB Mask */
  79:firmware/STM32F10x_StdPeriph_Lib_V3.3.0/Libraries/STM32F10x_StdPeriph_Driver/src/stm32f10x_usart.c **** #define GTPR_MSB_Mask             ((uint16_t)0xFF00)  /*!< Guard Time Register MSB Mask */
  80:firmware/STM32F10x_StdPeriph_Lib_V3.3.0/Libraries/STM32F10x_StdPeriph_Driver/src/stm32f10x_usart.c **** #define IT_Mask                   ((uint16_t)0x001F)  /*!< USART Interrupt Mask */
  81:firmware/STM32F10x_StdPeriph_Lib_V3.3.0/Libraries/STM32F10x_StdPeriph_Driver/src/stm32f10x_usart.c **** 
  82:firmware/STM32F10x_StdPeriph_Lib_V3.3.0/Libraries/STM32F10x_StdPeriph_Driver/src/stm32f10x_usart.c **** /* USART OverSampling-8 Mask */
  83:firmware/STM32F10x_StdPeriph_Lib_V3.3.0/Libraries/STM32F10x_StdPeriph_Driver/src/stm32f10x_usart.c **** #define CR1_OVER8_Set             ((u16)0x8000)  /* USART OVER8 mode Enable Mask */
  84:firmware/STM32F10x_StdPeriph_Lib_V3.3.0/Libraries/STM32F10x_StdPeriph_Driver/src/stm32f10x_usart.c **** #define CR1_OVER8_Reset           ((u16)0x7FFF)  /* USART OVER8 mode Disable Mask */
  85:firmware/STM32F10x_StdPeriph_Lib_V3.3.0/Libraries/STM32F10x_StdPeriph_Driver/src/stm32f10x_usart.c **** 
  86:firmware/STM32F10x_StdPeriph_Lib_V3.3.0/Libraries/STM32F10x_StdPeriph_Driver/src/stm32f10x_usart.c **** /* USART One Bit Sampling Mask */
  87:firmware/STM32F10x_StdPeriph_Lib_V3.3.0/Libraries/STM32F10x_StdPeriph_Driver/src/stm32f10x_usart.c **** #define CR3_ONEBITE_Set           ((u16)0x0800)  /* USART ONEBITE mode Enable Mask */
  88:firmware/STM32F10x_StdPeriph_Lib_V3.3.0/Libraries/STM32F10x_StdPeriph_Driver/src/stm32f10x_usart.c **** #define CR3_ONEBITE_Reset         ((u16)0xF7FF)  /* USART ONEBITE mode Disable Mask */
  89:firmware/STM32F10x_StdPeriph_Lib_V3.3.0/Libraries/STM32F10x_StdPeriph_Driver/src/stm32f10x_usart.c **** 
  90:firmware/STM32F10x_StdPeriph_Lib_V3.3.0/Libraries/STM32F10x_StdPeriph_Driver/src/stm32f10x_usart.c **** /**
  91:firmware/STM32F10x_StdPeriph_Lib_V3.3.0/Libraries/STM32F10x_StdPeriph_Driver/src/stm32f10x_usart.c ****   * @}
  92:firmware/STM32F10x_StdPeriph_Lib_V3.3.0/Libraries/STM32F10x_StdPeriph_Driver/src/stm32f10x_usart.c ****   */
  93:firmware/STM32F10x_StdPeriph_Lib_V3.3.0/Libraries/STM32F10x_StdPeriph_Driver/src/stm32f10x_usart.c **** 
  94:firmware/STM32F10x_StdPeriph_Lib_V3.3.0/Libraries/STM32F10x_StdPeriph_Driver/src/stm32f10x_usart.c **** /** @defgroup USART_Private_Macros
  95:firmware/STM32F10x_StdPeriph_Lib_V3.3.0/Libraries/STM32F10x_StdPeriph_Driver/src/stm32f10x_usart.c ****   * @{
  96:firmware/STM32F10x_StdPeriph_Lib_V3.3.0/Libraries/STM32F10x_StdPeriph_Driver/src/stm32f10x_usart.c ****   */
  97:firmware/STM32F10x_StdPeriph_Lib_V3.3.0/Libraries/STM32F10x_StdPeriph_Driver/src/stm32f10x_usart.c **** 
  98:firmware/STM32F10x_StdPeriph_Lib_V3.3.0/Libraries/STM32F10x_StdPeriph_Driver/src/stm32f10x_usart.c **** /**
  99:firmware/STM32F10x_StdPeriph_Lib_V3.3.0/Libraries/STM32F10x_StdPeriph_Driver/src/stm32f10x_usart.c ****   * @}
 100:firmware/STM32F10x_StdPeriph_Lib_V3.3.0/Libraries/STM32F10x_StdPeriph_Driver/src/stm32f10x_usart.c ****   */
 101:firmware/STM32F10x_StdPeriph_Lib_V3.3.0/Libraries/STM32F10x_StdPeriph_Driver/src/stm32f10x_usart.c **** 
 102:firmware/STM32F10x_StdPeriph_Lib_V3.3.0/Libraries/STM32F10x_StdPeriph_Driver/src/stm32f10x_usart.c **** /** @defgroup USART_Private_Variables
 103:firmware/STM32F10x_StdPeriph_Lib_V3.3.0/Libraries/STM32F10x_StdPeriph_Driver/src/stm32f10x_usart.c ****   * @{
 104:firmware/STM32F10x_StdPeriph_Lib_V3.3.0/Libraries/STM32F10x_StdPeriph_Driver/src/stm32f10x_usart.c ****   */
 105:firmware/STM32F10x_StdPeriph_Lib_V3.3.0/Libraries/STM32F10x_StdPeriph_Driver/src/stm32f10x_usart.c **** 
 106:firmware/STM32F10x_StdPeriph_Lib_V3.3.0/Libraries/STM32F10x_StdPeriph_Driver/src/stm32f10x_usart.c **** /**
 107:firmware/STM32F10x_StdPeriph_Lib_V3.3.0/Libraries/STM32F10x_StdPeriph_Driver/src/stm32f10x_usart.c ****   * @}
 108:firmware/STM32F10x_StdPeriph_Lib_V3.3.0/Libraries/STM32F10x_StdPeriph_Driver/src/stm32f10x_usart.c ****   */
 109:firmware/STM32F10x_StdPeriph_Lib_V3.3.0/Libraries/STM32F10x_StdPeriph_Driver/src/stm32f10x_usart.c **** 
 110:firmware/STM32F10x_StdPeriph_Lib_V3.3.0/Libraries/STM32F10x_StdPeriph_Driver/src/stm32f10x_usart.c **** /** @defgroup USART_Private_FunctionPrototypes
 111:firmware/STM32F10x_StdPeriph_Lib_V3.3.0/Libraries/STM32F10x_StdPeriph_Driver/src/stm32f10x_usart.c ****   * @{
 112:firmware/STM32F10x_StdPeriph_Lib_V3.3.0/Libraries/STM32F10x_StdPeriph_Driver/src/stm32f10x_usart.c ****   */
 113:firmware/STM32F10x_StdPeriph_Lib_V3.3.0/Libraries/STM32F10x_StdPeriph_Driver/src/stm32f10x_usart.c **** 
 114:firmware/STM32F10x_StdPeriph_Lib_V3.3.0/Libraries/STM32F10x_StdPeriph_Driver/src/stm32f10x_usart.c **** /**
 115:firmware/STM32F10x_StdPeriph_Lib_V3.3.0/Libraries/STM32F10x_StdPeriph_Driver/src/stm32f10x_usart.c ****   * @}
 116:firmware/STM32F10x_StdPeriph_Lib_V3.3.0/Libraries/STM32F10x_StdPeriph_Driver/src/stm32f10x_usart.c ****   */
 117:firmware/STM32F10x_StdPeriph_Lib_V3.3.0/Libraries/STM32F10x_StdPeriph_Driver/src/stm32f10x_usart.c **** 
 118:firmware/STM32F10x_StdPeriph_Lib_V3.3.0/Libraries/STM32F10x_StdPeriph_Driver/src/stm32f10x_usart.c **** /** @defgroup USART_Private_Functions
 119:firmware/STM32F10x_StdPeriph_Lib_V3.3.0/Libraries/STM32F10x_StdPeriph_Driver/src/stm32f10x_usart.c ****   * @{
 120:firmware/STM32F10x_StdPeriph_Lib_V3.3.0/Libraries/STM32F10x_StdPeriph_Driver/src/stm32f10x_usart.c ****   */
 121:firmware/STM32F10x_StdPeriph_Lib_V3.3.0/Libraries/STM32F10x_StdPeriph_Driver/src/stm32f10x_usart.c **** 
 122:firmware/STM32F10x_StdPeriph_Lib_V3.3.0/Libraries/STM32F10x_StdPeriph_Driver/src/stm32f10x_usart.c **** /**
 123:firmware/STM32F10x_StdPeriph_Lib_V3.3.0/Libraries/STM32F10x_StdPeriph_Driver/src/stm32f10x_usart.c ****   * @brief  Deinitializes the USARTx peripheral registers to their default reset values.
 124:firmware/STM32F10x_StdPeriph_Lib_V3.3.0/Libraries/STM32F10x_StdPeriph_Driver/src/stm32f10x_usart.c ****   * @param  USARTx: Select the USART or the UART peripheral. 
 125:firmware/STM32F10x_StdPeriph_Lib_V3.3.0/Libraries/STM32F10x_StdPeriph_Driver/src/stm32f10x_usart.c ****   *   This parameter can be one of the following values: USART1, USART2, USART3, UART4 or UART5.
 126:firmware/STM32F10x_StdPeriph_Lib_V3.3.0/Libraries/STM32F10x_StdPeriph_Driver/src/stm32f10x_usart.c ****   * @retval None
 127:firmware/STM32F10x_StdPeriph_Lib_V3.3.0/Libraries/STM32F10x_StdPeriph_Driver/src/stm32f10x_usart.c ****   */
 128:firmware/STM32F10x_StdPeriph_Lib_V3.3.0/Libraries/STM32F10x_StdPeriph_Driver/src/stm32f10x_usart.c **** void USART_DeInit(USART_TypeDef* USARTx)
 129:firmware/STM32F10x_StdPeriph_Lib_V3.3.0/Libraries/STM32F10x_StdPeriph_Driver/src/stm32f10x_usart.c **** {
  32              		.loc 1 129 0
  33              		.cfi_startproc
  34              		@ args = 0, pretend = 0, frame = 0
  35              		@ frame_needed = 0, uses_anonymous_args = 0
  36              	.LVL0:
 130:firmware/STM32F10x_StdPeriph_Lib_V3.3.0/Libraries/STM32F10x_StdPeriph_Driver/src/stm32f10x_usart.c ****   /* Check the parameters */
 131:firmware/STM32F10x_StdPeriph_Lib_V3.3.0/Libraries/STM32F10x_StdPeriph_Driver/src/stm32f10x_usart.c ****   assert_param(IS_USART_ALL_PERIPH(USARTx));
 132:firmware/STM32F10x_StdPeriph_Lib_V3.3.0/Libraries/STM32F10x_StdPeriph_Driver/src/stm32f10x_usart.c **** 
 133:firmware/STM32F10x_StdPeriph_Lib_V3.3.0/Libraries/STM32F10x_StdPeriph_Driver/src/stm32f10x_usart.c ****   if (USARTx == USART1)
  37              		.loc 1 133 0
  38 0000 204B     		ldr	r3, .L8
 129:firmware/STM32F10x_StdPeriph_Lib_V3.3.0/Libraries/STM32F10x_StdPeriph_Driver/src/stm32f10x_usart.c **** {
  39              		.loc 1 129 0
  40 0002 10B5     		push	{r4, lr}
  41              	.LCFI0:
  42              		.cfi_def_cfa_offset 8
  43              		.loc 1 133 0
  44 0004 9842     		cmp	r0, r3
  45 0006 0BD1     		bne	.L2
  46              		.cfi_offset 14, -4
  47              		.cfi_offset 4, -8
 134:firmware/STM32F10x_StdPeriph_Lib_V3.3.0/Libraries/STM32F10x_StdPeriph_Driver/src/stm32f10x_usart.c ****   {
 135:firmware/STM32F10x_StdPeriph_Lib_V3.3.0/Libraries/STM32F10x_StdPeriph_Driver/src/stm32f10x_usart.c ****     RCC_APB2PeriphResetCmd(RCC_APB2Periph_USART1, ENABLE);
  48              		.loc 1 135 0
  49 0008 0121     		movs	r1, #1
  50 000a 4FF48040 		mov	r0, #16384
  51              	.LVL1:
  52 000e FFF7FEFF 		bl	RCC_APB2PeriphResetCmd
 136:firmware/STM32F10x_StdPeriph_Lib_V3.3.0/Libraries/STM32F10x_StdPeriph_Driver/src/stm32f10x_usart.c ****     RCC_APB2PeriphResetCmd(RCC_APB2Periph_USART1, DISABLE);
  53              		.loc 1 136 0
  54 0012 4FF48040 		mov	r0, #16384
  55 0016 0021     		movs	r1, #0
 137:firmware/STM32F10x_StdPeriph_Lib_V3.3.0/Libraries/STM32F10x_StdPeriph_Driver/src/stm32f10x_usart.c ****   }
 138:firmware/STM32F10x_StdPeriph_Lib_V3.3.0/Libraries/STM32F10x_StdPeriph_Driver/src/stm32f10x_usart.c ****   else if (USARTx == USART2)
 139:firmware/STM32F10x_StdPeriph_Lib_V3.3.0/Libraries/STM32F10x_StdPeriph_Driver/src/stm32f10x_usart.c ****   {
 140:firmware/STM32F10x_StdPeriph_Lib_V3.3.0/Libraries/STM32F10x_StdPeriph_Driver/src/stm32f10x_usart.c ****     RCC_APB1PeriphResetCmd(RCC_APB1Periph_USART2, ENABLE);
 141:firmware/STM32F10x_StdPeriph_Lib_V3.3.0/Libraries/STM32F10x_StdPeriph_Driver/src/stm32f10x_usart.c ****     RCC_APB1PeriphResetCmd(RCC_APB1Periph_USART2, DISABLE);
 142:firmware/STM32F10x_StdPeriph_Lib_V3.3.0/Libraries/STM32F10x_StdPeriph_Driver/src/stm32f10x_usart.c ****   }
 143:firmware/STM32F10x_StdPeriph_Lib_V3.3.0/Libraries/STM32F10x_StdPeriph_Driver/src/stm32f10x_usart.c ****   else if (USARTx == USART3)
 144:firmware/STM32F10x_StdPeriph_Lib_V3.3.0/Libraries/STM32F10x_StdPeriph_Driver/src/stm32f10x_usart.c ****   {
 145:firmware/STM32F10x_StdPeriph_Lib_V3.3.0/Libraries/STM32F10x_StdPeriph_Driver/src/stm32f10x_usart.c ****     RCC_APB1PeriphResetCmd(RCC_APB1Periph_USART3, ENABLE);
 146:firmware/STM32F10x_StdPeriph_Lib_V3.3.0/Libraries/STM32F10x_StdPeriph_Driver/src/stm32f10x_usart.c ****     RCC_APB1PeriphResetCmd(RCC_APB1Periph_USART3, DISABLE);
 147:firmware/STM32F10x_StdPeriph_Lib_V3.3.0/Libraries/STM32F10x_StdPeriph_Driver/src/stm32f10x_usart.c ****   }    
 148:firmware/STM32F10x_StdPeriph_Lib_V3.3.0/Libraries/STM32F10x_StdPeriph_Driver/src/stm32f10x_usart.c ****   else if (USARTx == UART4)
 149:firmware/STM32F10x_StdPeriph_Lib_V3.3.0/Libraries/STM32F10x_StdPeriph_Driver/src/stm32f10x_usart.c ****   {
 150:firmware/STM32F10x_StdPeriph_Lib_V3.3.0/Libraries/STM32F10x_StdPeriph_Driver/src/stm32f10x_usart.c ****     RCC_APB1PeriphResetCmd(RCC_APB1Periph_UART4, ENABLE);
 151:firmware/STM32F10x_StdPeriph_Lib_V3.3.0/Libraries/STM32F10x_StdPeriph_Driver/src/stm32f10x_usart.c ****     RCC_APB1PeriphResetCmd(RCC_APB1Periph_UART4, DISABLE);
 152:firmware/STM32F10x_StdPeriph_Lib_V3.3.0/Libraries/STM32F10x_StdPeriph_Driver/src/stm32f10x_usart.c ****   }    
 153:firmware/STM32F10x_StdPeriph_Lib_V3.3.0/Libraries/STM32F10x_StdPeriph_Driver/src/stm32f10x_usart.c ****   else
 154:firmware/STM32F10x_StdPeriph_Lib_V3.3.0/Libraries/STM32F10x_StdPeriph_Driver/src/stm32f10x_usart.c ****   {
 155:firmware/STM32F10x_StdPeriph_Lib_V3.3.0/Libraries/STM32F10x_StdPeriph_Driver/src/stm32f10x_usart.c ****     if (USARTx == UART5)
 156:firmware/STM32F10x_StdPeriph_Lib_V3.3.0/Libraries/STM32F10x_StdPeriph_Driver/src/stm32f10x_usart.c ****     { 
 157:firmware/STM32F10x_StdPeriph_Lib_V3.3.0/Libraries/STM32F10x_StdPeriph_Driver/src/stm32f10x_usart.c ****       RCC_APB1PeriphResetCmd(RCC_APB1Periph_UART5, ENABLE);
 158:firmware/STM32F10x_StdPeriph_Lib_V3.3.0/Libraries/STM32F10x_StdPeriph_Driver/src/stm32f10x_usart.c ****       RCC_APB1PeriphResetCmd(RCC_APB1Periph_UART5, DISABLE);
 159:firmware/STM32F10x_StdPeriph_Lib_V3.3.0/Libraries/STM32F10x_StdPeriph_Driver/src/stm32f10x_usart.c ****     }
 160:firmware/STM32F10x_StdPeriph_Lib_V3.3.0/Libraries/STM32F10x_StdPeriph_Driver/src/stm32f10x_usart.c ****   }
 161:firmware/STM32F10x_StdPeriph_Lib_V3.3.0/Libraries/STM32F10x_StdPeriph_Driver/src/stm32f10x_usart.c **** }
  56              		.loc 1 161 0
  57 0018 BDE81040 		pop	{r4, lr}
 136:firmware/STM32F10x_StdPeriph_Lib_V3.3.0/Libraries/STM32F10x_StdPeriph_Driver/src/stm32f10x_usart.c ****     RCC_APB2PeriphResetCmd(RCC_APB2Periph_USART1, DISABLE);
  58              		.loc 1 136 0
  59 001c FFF7FEBF 		b	RCC_APB2PeriphResetCmd
  60              	.LVL2:
  61              	.L2:
 138:firmware/STM32F10x_StdPeriph_Lib_V3.3.0/Libraries/STM32F10x_StdPeriph_Driver/src/stm32f10x_usart.c ****   else if (USARTx == USART2)
  62              		.loc 1 138 0
  63 0020 194B     		ldr	r3, .L8+4
  64 0022 9842     		cmp	r0, r3
  65 0024 07D1     		bne	.L3
 140:firmware/STM32F10x_StdPeriph_Lib_V3.3.0/Libraries/STM32F10x_StdPeriph_Driver/src/stm32f10x_usart.c ****     RCC_APB1PeriphResetCmd(RCC_APB1Periph_USART2, ENABLE);
  66              		.loc 1 140 0
  67 0026 4FF40030 		mov	r0, #131072
  68              	.LVL3:
  69 002a 0121     		movs	r1, #1
  70 002c FFF7FEFF 		bl	RCC_APB1PeriphResetCmd
 141:firmware/STM32F10x_StdPeriph_Lib_V3.3.0/Libraries/STM32F10x_StdPeriph_Driver/src/stm32f10x_usart.c ****     RCC_APB1PeriphResetCmd(RCC_APB1Periph_USART2, DISABLE);
  71              		.loc 1 141 0
  72 0030 4FF40030 		mov	r0, #131072
  73 0034 1FE0     		b	.L7
  74              	.LVL4:
  75              	.L3:
 143:firmware/STM32F10x_StdPeriph_Lib_V3.3.0/Libraries/STM32F10x_StdPeriph_Driver/src/stm32f10x_usart.c ****   else if (USARTx == USART3)
  76              		.loc 1 143 0
  77 0036 154B     		ldr	r3, .L8+8
  78 0038 9842     		cmp	r0, r3
  79 003a 07D1     		bne	.L4
 145:firmware/STM32F10x_StdPeriph_Lib_V3.3.0/Libraries/STM32F10x_StdPeriph_Driver/src/stm32f10x_usart.c ****     RCC_APB1PeriphResetCmd(RCC_APB1Periph_USART3, ENABLE);
  80              		.loc 1 145 0
  81 003c 4FF48020 		mov	r0, #262144
  82              	.LVL5:
  83 0040 0121     		movs	r1, #1
  84 0042 FFF7FEFF 		bl	RCC_APB1PeriphResetCmd
 146:firmware/STM32F10x_StdPeriph_Lib_V3.3.0/Libraries/STM32F10x_StdPeriph_Driver/src/stm32f10x_usart.c ****     RCC_APB1PeriphResetCmd(RCC_APB1Periph_USART3, DISABLE);
  85              		.loc 1 146 0
  86 0046 4FF48020 		mov	r0, #262144
  87 004a 14E0     		b	.L7
  88              	.LVL6:
  89              	.L4:
 148:firmware/STM32F10x_StdPeriph_Lib_V3.3.0/Libraries/STM32F10x_StdPeriph_Driver/src/stm32f10x_usart.c ****   else if (USARTx == UART4)
  90              		.loc 1 148 0
  91 004c 104B     		ldr	r3, .L8+12
  92 004e 9842     		cmp	r0, r3
  93 0050 07D1     		bne	.L5
 150:firmware/STM32F10x_StdPeriph_Lib_V3.3.0/Libraries/STM32F10x_StdPeriph_Driver/src/stm32f10x_usart.c ****     RCC_APB1PeriphResetCmd(RCC_APB1Periph_UART4, ENABLE);
  94              		.loc 1 150 0
  95 0052 4FF40020 		mov	r0, #524288
  96              	.LVL7:
  97 0056 0121     		movs	r1, #1
  98 0058 FFF7FEFF 		bl	RCC_APB1PeriphResetCmd
 151:firmware/STM32F10x_StdPeriph_Lib_V3.3.0/Libraries/STM32F10x_StdPeriph_Driver/src/stm32f10x_usart.c ****     RCC_APB1PeriphResetCmd(RCC_APB1Periph_UART4, DISABLE);
  99              		.loc 1 151 0
 100 005c 4FF40020 		mov	r0, #524288
 101 0060 09E0     		b	.L7
 102              	.LVL8:
 103              	.L5:
 155:firmware/STM32F10x_StdPeriph_Lib_V3.3.0/Libraries/STM32F10x_StdPeriph_Driver/src/stm32f10x_usart.c ****     if (USARTx == UART5)
 104              		.loc 1 155 0
 105 0062 0C4B     		ldr	r3, .L8+16
 106 0064 9842     		cmp	r0, r3
 107 0066 0BD1     		bne	.L1
 157:firmware/STM32F10x_StdPeriph_Lib_V3.3.0/Libraries/STM32F10x_StdPeriph_Driver/src/stm32f10x_usart.c ****       RCC_APB1PeriphResetCmd(RCC_APB1Periph_UART5, ENABLE);
 108              		.loc 1 157 0
 109 0068 4FF48010 		mov	r0, #1048576
 110              	.LVL9:
 111 006c 0121     		movs	r1, #1
 112 006e FFF7FEFF 		bl	RCC_APB1PeriphResetCmd
 158:firmware/STM32F10x_StdPeriph_Lib_V3.3.0/Libraries/STM32F10x_StdPeriph_Driver/src/stm32f10x_usart.c ****       RCC_APB1PeriphResetCmd(RCC_APB1Periph_UART5, DISABLE);
 113              		.loc 1 158 0
 114 0072 4FF48010 		mov	r0, #1048576
 115              	.L7:
 116 0076 0021     		movs	r1, #0
 117              		.loc 1 161 0
 118 0078 BDE81040 		pop	{r4, lr}
 158:firmware/STM32F10x_StdPeriph_Lib_V3.3.0/Libraries/STM32F10x_StdPeriph_Driver/src/stm32f10x_usart.c ****       RCC_APB1PeriphResetCmd(RCC_APB1Periph_UART5, DISABLE);
 119              		.loc 1 158 0
 120 007c FFF7FEBF 		b	RCC_APB1PeriphResetCmd
 121              	.LVL10:
 122              	.L1:
 123 0080 10BD     		pop	{r4, pc}
 124              	.L9:
 125 0082 00BF     		.align	2
 126              	.L8:
 127 0084 00380140 		.word	1073821696
 128 0088 00440040 		.word	1073759232
 129 008c 00480040 		.word	1073760256
 130 0090 004C0040 		.word	1073761280
 131 0094 00500040 		.word	1073762304
 132              		.cfi_endproc
 133              	.LFE29:
 135              		.section	.text.USART_Init,"ax",%progbits
 136              		.align	1
 137              		.global	USART_Init
 138              		.thumb
 139              		.thumb_func
 141              	USART_Init:
 142              	.LFB30:
 162:firmware/STM32F10x_StdPeriph_Lib_V3.3.0/Libraries/STM32F10x_StdPeriph_Driver/src/stm32f10x_usart.c **** 
 163:firmware/STM32F10x_StdPeriph_Lib_V3.3.0/Libraries/STM32F10x_StdPeriph_Driver/src/stm32f10x_usart.c **** /**
 164:firmware/STM32F10x_StdPeriph_Lib_V3.3.0/Libraries/STM32F10x_StdPeriph_Driver/src/stm32f10x_usart.c ****   * @brief  Initializes the USARTx peripheral according to the specified
 165:firmware/STM32F10x_StdPeriph_Lib_V3.3.0/Libraries/STM32F10x_StdPeriph_Driver/src/stm32f10x_usart.c ****   *   parameters in the USART_InitStruct .
 166:firmware/STM32F10x_StdPeriph_Lib_V3.3.0/Libraries/STM32F10x_StdPeriph_Driver/src/stm32f10x_usart.c ****   * @param  USARTx: Select the USART or the UART peripheral. 
 167:firmware/STM32F10x_StdPeriph_Lib_V3.3.0/Libraries/STM32F10x_StdPeriph_Driver/src/stm32f10x_usart.c ****   *   This parameter can be one of the following values:
 168:firmware/STM32F10x_StdPeriph_Lib_V3.3.0/Libraries/STM32F10x_StdPeriph_Driver/src/stm32f10x_usart.c ****   *   USART1, USART2, USART3, UART4 or UART5.
 169:firmware/STM32F10x_StdPeriph_Lib_V3.3.0/Libraries/STM32F10x_StdPeriph_Driver/src/stm32f10x_usart.c ****   * @param  USART_InitStruct: pointer to a USART_InitTypeDef structure
 170:firmware/STM32F10x_StdPeriph_Lib_V3.3.0/Libraries/STM32F10x_StdPeriph_Driver/src/stm32f10x_usart.c ****   *   that contains the configuration information for the specified USART peripheral.
 171:firmware/STM32F10x_StdPeriph_Lib_V3.3.0/Libraries/STM32F10x_StdPeriph_Driver/src/stm32f10x_usart.c ****   * @retval None
 172:firmware/STM32F10x_StdPeriph_Lib_V3.3.0/Libraries/STM32F10x_StdPeriph_Driver/src/stm32f10x_usart.c ****   */
 173:firmware/STM32F10x_StdPeriph_Lib_V3.3.0/Libraries/STM32F10x_StdPeriph_Driver/src/stm32f10x_usart.c **** void USART_Init(USART_TypeDef* USARTx, USART_InitTypeDef* USART_InitStruct)
 174:firmware/STM32F10x_StdPeriph_Lib_V3.3.0/Libraries/STM32F10x_StdPeriph_Driver/src/stm32f10x_usart.c **** {
 143              		.loc 1 174 0
 144              		.cfi_startproc
 145              		@ args = 0, pretend = 0, frame = 24
 146              		@ frame_needed = 0, uses_anonymous_args = 0
 147              	.LVL11:
 148 0000 30B5     		push	{r4, r5, lr}
 149              	.LCFI1:
 150              		.cfi_def_cfa_offset 12
 175:firmware/STM32F10x_StdPeriph_Lib_V3.3.0/Libraries/STM32F10x_StdPeriph_Driver/src/stm32f10x_usart.c ****   uint32_t tmpreg = 0x00, apbclock = 0x00;
 176:firmware/STM32F10x_StdPeriph_Lib_V3.3.0/Libraries/STM32F10x_StdPeriph_Driver/src/stm32f10x_usart.c ****   uint32_t integerdivider = 0x00;
 177:firmware/STM32F10x_StdPeriph_Lib_V3.3.0/Libraries/STM32F10x_StdPeriph_Driver/src/stm32f10x_usart.c ****   uint32_t fractionaldivider = 0x00;
 178:firmware/STM32F10x_StdPeriph_Lib_V3.3.0/Libraries/STM32F10x_StdPeriph_Driver/src/stm32f10x_usart.c ****   uint32_t usartxbase = 0;
 179:firmware/STM32F10x_StdPeriph_Lib_V3.3.0/Libraries/STM32F10x_StdPeriph_Driver/src/stm32f10x_usart.c ****   RCC_ClocksTypeDef RCC_ClocksStatus;
 180:firmware/STM32F10x_StdPeriph_Lib_V3.3.0/Libraries/STM32F10x_StdPeriph_Driver/src/stm32f10x_usart.c ****   /* Check the parameters */
 181:firmware/STM32F10x_StdPeriph_Lib_V3.3.0/Libraries/STM32F10x_StdPeriph_Driver/src/stm32f10x_usart.c ****   assert_param(IS_USART_ALL_PERIPH(USARTx));
 182:firmware/STM32F10x_StdPeriph_Lib_V3.3.0/Libraries/STM32F10x_StdPeriph_Driver/src/stm32f10x_usart.c ****   assert_param(IS_USART_BAUDRATE(USART_InitStruct->USART_BaudRate));  
 183:firmware/STM32F10x_StdPeriph_Lib_V3.3.0/Libraries/STM32F10x_StdPeriph_Driver/src/stm32f10x_usart.c ****   assert_param(IS_USART_WORD_LENGTH(USART_InitStruct->USART_WordLength));
 184:firmware/STM32F10x_StdPeriph_Lib_V3.3.0/Libraries/STM32F10x_StdPeriph_Driver/src/stm32f10x_usart.c ****   assert_param(IS_USART_STOPBITS(USART_InitStruct->USART_StopBits));
 185:firmware/STM32F10x_StdPeriph_Lib_V3.3.0/Libraries/STM32F10x_StdPeriph_Driver/src/stm32f10x_usart.c ****   assert_param(IS_USART_PARITY(USART_InitStruct->USART_Parity));
 186:firmware/STM32F10x_StdPeriph_Lib_V3.3.0/Libraries/STM32F10x_StdPeriph_Driver/src/stm32f10x_usart.c ****   assert_param(IS_USART_MODE(USART_InitStruct->USART_Mode));
 187:firmware/STM32F10x_StdPeriph_Lib_V3.3.0/Libraries/STM32F10x_StdPeriph_Driver/src/stm32f10x_usart.c ****   assert_param(IS_USART_HARDWARE_FLOW_CONTROL(USART_InitStruct->USART_HardwareFlowControl));
 188:firmware/STM32F10x_StdPeriph_Lib_V3.3.0/Libraries/STM32F10x_StdPeriph_Driver/src/stm32f10x_usart.c ****   /* The hardware flow control is available only for USART1, USART2 and USART3 */
 189:firmware/STM32F10x_StdPeriph_Lib_V3.3.0/Libraries/STM32F10x_StdPeriph_Driver/src/stm32f10x_usart.c ****   if (USART_InitStruct->USART_HardwareFlowControl != USART_HardwareFlowControl_None)
 190:firmware/STM32F10x_StdPeriph_Lib_V3.3.0/Libraries/STM32F10x_StdPeriph_Driver/src/stm32f10x_usart.c ****   {
 191:firmware/STM32F10x_StdPeriph_Lib_V3.3.0/Libraries/STM32F10x_StdPeriph_Driver/src/stm32f10x_usart.c ****     assert_param(IS_USART_123_PERIPH(USARTx));
 192:firmware/STM32F10x_StdPeriph_Lib_V3.3.0/Libraries/STM32F10x_StdPeriph_Driver/src/stm32f10x_usart.c ****   }
 193:firmware/STM32F10x_StdPeriph_Lib_V3.3.0/Libraries/STM32F10x_StdPeriph_Driver/src/stm32f10x_usart.c **** 
 194:firmware/STM32F10x_StdPeriph_Lib_V3.3.0/Libraries/STM32F10x_StdPeriph_Driver/src/stm32f10x_usart.c ****   usartxbase = (uint32_t)USARTx;
 195:firmware/STM32F10x_StdPeriph_Lib_V3.3.0/Libraries/STM32F10x_StdPeriph_Driver/src/stm32f10x_usart.c **** 
 196:firmware/STM32F10x_StdPeriph_Lib_V3.3.0/Libraries/STM32F10x_StdPeriph_Driver/src/stm32f10x_usart.c **** /*---------------------------- USART CR2 Configuration -----------------------*/
 197:firmware/STM32F10x_StdPeriph_Lib_V3.3.0/Libraries/STM32F10x_StdPeriph_Driver/src/stm32f10x_usart.c ****   tmpreg = USARTx->CR2;
 151              		.loc 1 197 0
 152 0002 038A     		ldrh	r3, [r0, #16]
 198:firmware/STM32F10x_StdPeriph_Lib_V3.3.0/Libraries/STM32F10x_StdPeriph_Driver/src/stm32f10x_usart.c ****   /* Clear STOP[13:12] bits */
 199:firmware/STM32F10x_StdPeriph_Lib_V3.3.0/Libraries/STM32F10x_StdPeriph_Driver/src/stm32f10x_usart.c ****   tmpreg &= CR2_STOP_CLEAR_Mask;
 200:firmware/STM32F10x_StdPeriph_Lib_V3.3.0/Libraries/STM32F10x_StdPeriph_Driver/src/stm32f10x_usart.c ****   /* Configure the USART Stop Bits, Clock, CPOL, CPHA and LastBit ------------*/
 201:firmware/STM32F10x_StdPeriph_Lib_V3.3.0/Libraries/STM32F10x_StdPeriph_Driver/src/stm32f10x_usart.c ****   /* Set STOP[13:12] bits according to USART_StopBits value */
 202:firmware/STM32F10x_StdPeriph_Lib_V3.3.0/Libraries/STM32F10x_StdPeriph_Driver/src/stm32f10x_usart.c ****   tmpreg |= (uint32_t)USART_InitStruct->USART_StopBits;
 153              		.loc 1 202 0
 154 0004 CA88     		ldrh	r2, [r1, #6]
 199:firmware/STM32F10x_StdPeriph_Lib_V3.3.0/Libraries/STM32F10x_StdPeriph_Driver/src/stm32f10x_usart.c ****   tmpreg &= CR2_STOP_CLEAR_Mask;
 155              		.loc 1 199 0
 156 0006 23F44053 		bic	r3, r3, #12288
 157 000a 1B04     		lsls	r3, r3, #16
 158 000c 1B0C     		lsrs	r3, r3, #16
 203:firmware/STM32F10x_StdPeriph_Lib_V3.3.0/Libraries/STM32F10x_StdPeriph_Driver/src/stm32f10x_usart.c ****   
 204:firmware/STM32F10x_StdPeriph_Lib_V3.3.0/Libraries/STM32F10x_StdPeriph_Driver/src/stm32f10x_usart.c ****   /* Write to USART CR2 */
 205:firmware/STM32F10x_StdPeriph_Lib_V3.3.0/Libraries/STM32F10x_StdPeriph_Driver/src/stm32f10x_usart.c ****   USARTx->CR2 = (uint16_t)tmpreg;
 159              		.loc 1 205 0
 160 000e 1343     		orrs	r3, r3, r2
 161 0010 0382     		strh	r3, [r0, #16]	@ movhi
 174:firmware/STM32F10x_StdPeriph_Lib_V3.3.0/Libraries/STM32F10x_StdPeriph_Driver/src/stm32f10x_usart.c **** {
 162              		.loc 1 174 0
 163 0012 0D46     		mov	r5, r1
 164              		.cfi_offset 14, -4
 165              		.cfi_offset 5, -8
 166              		.cfi_offset 4, -12
 206:firmware/STM32F10x_StdPeriph_Lib_V3.3.0/Libraries/STM32F10x_StdPeriph_Driver/src/stm32f10x_usart.c **** 
 207:firmware/STM32F10x_StdPeriph_Lib_V3.3.0/Libraries/STM32F10x_StdPeriph_Driver/src/stm32f10x_usart.c **** /*---------------------------- USART CR1 Configuration -----------------------*/
 208:firmware/STM32F10x_StdPeriph_Lib_V3.3.0/Libraries/STM32F10x_StdPeriph_Driver/src/stm32f10x_usart.c ****   tmpreg = USARTx->CR1;
 167              		.loc 1 208 0
 168 0014 8389     		ldrh	r3, [r0, #12]
 209:firmware/STM32F10x_StdPeriph_Lib_V3.3.0/Libraries/STM32F10x_StdPeriph_Driver/src/stm32f10x_usart.c ****   /* Clear M, PCE, PS, TE and RE bits */
 210:firmware/STM32F10x_StdPeriph_Lib_V3.3.0/Libraries/STM32F10x_StdPeriph_Driver/src/stm32f10x_usart.c ****   tmpreg &= CR1_CLEAR_Mask;
 211:firmware/STM32F10x_StdPeriph_Lib_V3.3.0/Libraries/STM32F10x_StdPeriph_Driver/src/stm32f10x_usart.c ****   /* Configure the USART Word Length, Parity and mode ----------------------- */
 212:firmware/STM32F10x_StdPeriph_Lib_V3.3.0/Libraries/STM32F10x_StdPeriph_Driver/src/stm32f10x_usart.c ****   /* Set the M bits according to USART_WordLength value */
 213:firmware/STM32F10x_StdPeriph_Lib_V3.3.0/Libraries/STM32F10x_StdPeriph_Driver/src/stm32f10x_usart.c ****   /* Set PCE and PS bits according to USART_Parity value */
 214:firmware/STM32F10x_StdPeriph_Lib_V3.3.0/Libraries/STM32F10x_StdPeriph_Driver/src/stm32f10x_usart.c ****   /* Set TE and RE bits according to USART_Mode value */
 215:firmware/STM32F10x_StdPeriph_Lib_V3.3.0/Libraries/STM32F10x_StdPeriph_Driver/src/stm32f10x_usart.c ****   tmpreg |= (uint32_t)USART_InitStruct->USART_WordLength | USART_InitStruct->USART_Parity |
 169              		.loc 1 215 0
 170 0016 0989     		ldrh	r1, [r1, #8]
 171              	.LVL12:
 172 0018 AA88     		ldrh	r2, [r5, #4]
 210:firmware/STM32F10x_StdPeriph_Lib_V3.3.0/Libraries/STM32F10x_StdPeriph_Driver/src/stm32f10x_usart.c ****   tmpreg &= CR1_CLEAR_Mask;
 173              		.loc 1 210 0
 174 001a 23F4B053 		bic	r3, r3, #5632
 175              		.loc 1 215 0
 176 001e 41EA0202 		orr	r2, r1, r2
 177 0022 6989     		ldrh	r1, [r5, #10]
 210:firmware/STM32F10x_StdPeriph_Lib_V3.3.0/Libraries/STM32F10x_StdPeriph_Driver/src/stm32f10x_usart.c ****   tmpreg &= CR1_CLEAR_Mask;
 178              		.loc 1 210 0
 179 0024 23F00C03 		bic	r3, r3, #12
 180              		.loc 1 215 0
 181 0028 0A43     		orrs	r2, r2, r1
 210:firmware/STM32F10x_StdPeriph_Lib_V3.3.0/Libraries/STM32F10x_StdPeriph_Driver/src/stm32f10x_usart.c ****   tmpreg &= CR1_CLEAR_Mask;
 182              		.loc 1 210 0
 183 002a 1B04     		lsls	r3, r3, #16
 184 002c 1B0C     		lsrs	r3, r3, #16
 185              		.loc 1 215 0
 186 002e 92B2     		uxth	r2, r2
 216:firmware/STM32F10x_StdPeriph_Lib_V3.3.0/Libraries/STM32F10x_StdPeriph_Driver/src/stm32f10x_usart.c ****             USART_InitStruct->USART_Mode;
 217:firmware/STM32F10x_StdPeriph_Lib_V3.3.0/Libraries/STM32F10x_StdPeriph_Driver/src/stm32f10x_usart.c ****   /* Write to USART CR1 */
 218:firmware/STM32F10x_StdPeriph_Lib_V3.3.0/Libraries/STM32F10x_StdPeriph_Driver/src/stm32f10x_usart.c ****   USARTx->CR1 = (uint16_t)tmpreg;
 187              		.loc 1 218 0
 188 0030 42EA0303 		orr	r3, r2, r3
 189 0034 8381     		strh	r3, [r0, #12]	@ movhi
 219:firmware/STM32F10x_StdPeriph_Lib_V3.3.0/Libraries/STM32F10x_StdPeriph_Driver/src/stm32f10x_usart.c **** 
 220:firmware/STM32F10x_StdPeriph_Lib_V3.3.0/Libraries/STM32F10x_StdPeriph_Driver/src/stm32f10x_usart.c **** /*---------------------------- USART CR3 Configuration -----------------------*/  
 221:firmware/STM32F10x_StdPeriph_Lib_V3.3.0/Libraries/STM32F10x_StdPeriph_Driver/src/stm32f10x_usart.c ****   tmpreg = USARTx->CR3;
 190              		.loc 1 221 0
 191 0036 838A     		ldrh	r3, [r0, #20]
 222:firmware/STM32F10x_StdPeriph_Lib_V3.3.0/Libraries/STM32F10x_StdPeriph_Driver/src/stm32f10x_usart.c ****   /* Clear CTSE and RTSE bits */
 223:firmware/STM32F10x_StdPeriph_Lib_V3.3.0/Libraries/STM32F10x_StdPeriph_Driver/src/stm32f10x_usart.c ****   tmpreg &= CR3_CLEAR_Mask;
 224:firmware/STM32F10x_StdPeriph_Lib_V3.3.0/Libraries/STM32F10x_StdPeriph_Driver/src/stm32f10x_usart.c ****   /* Configure the USART HFC -------------------------------------------------*/
 225:firmware/STM32F10x_StdPeriph_Lib_V3.3.0/Libraries/STM32F10x_StdPeriph_Driver/src/stm32f10x_usart.c ****   /* Set CTSE and RTSE bits according to USART_HardwareFlowControl value */
 226:firmware/STM32F10x_StdPeriph_Lib_V3.3.0/Libraries/STM32F10x_StdPeriph_Driver/src/stm32f10x_usart.c ****   tmpreg |= USART_InitStruct->USART_HardwareFlowControl;
 192              		.loc 1 226 0
 193 0038 AA89     		ldrh	r2, [r5, #12]
 223:firmware/STM32F10x_StdPeriph_Lib_V3.3.0/Libraries/STM32F10x_StdPeriph_Driver/src/stm32f10x_usart.c ****   tmpreg &= CR3_CLEAR_Mask;
 194              		.loc 1 223 0
 195 003a 23F44073 		bic	r3, r3, #768
 196 003e 1B04     		lsls	r3, r3, #16
 197 0040 1B0C     		lsrs	r3, r3, #16
 174:firmware/STM32F10x_StdPeriph_Lib_V3.3.0/Libraries/STM32F10x_StdPeriph_Driver/src/stm32f10x_usart.c **** {
 198              		.loc 1 174 0
 199 0042 87B0     		sub	sp, sp, #28
 200              	.LCFI2:
 201              		.cfi_def_cfa_offset 40
 227:firmware/STM32F10x_StdPeriph_Lib_V3.3.0/Libraries/STM32F10x_StdPeriph_Driver/src/stm32f10x_usart.c ****   /* Write to USART CR3 */
 228:firmware/STM32F10x_StdPeriph_Lib_V3.3.0/Libraries/STM32F10x_StdPeriph_Driver/src/stm32f10x_usart.c ****   USARTx->CR3 = (uint16_t)tmpreg;
 202              		.loc 1 228 0
 203 0044 1343     		orrs	r3, r3, r2
 174:firmware/STM32F10x_StdPeriph_Lib_V3.3.0/Libraries/STM32F10x_StdPeriph_Driver/src/stm32f10x_usart.c **** {
 204              		.loc 1 174 0
 205 0046 0446     		mov	r4, r0
 206              	.LVL13:
 207              		.loc 1 228 0
 208 0048 8382     		strh	r3, [r0, #20]	@ movhi
 229:firmware/STM32F10x_StdPeriph_Lib_V3.3.0/Libraries/STM32F10x_StdPeriph_Driver/src/stm32f10x_usart.c **** 
 230:firmware/STM32F10x_StdPeriph_Lib_V3.3.0/Libraries/STM32F10x_StdPeriph_Driver/src/stm32f10x_usart.c **** /*---------------------------- USART BRR Configuration -----------------------*/
 231:firmware/STM32F10x_StdPeriph_Lib_V3.3.0/Libraries/STM32F10x_StdPeriph_Driver/src/stm32f10x_usart.c ****   /* Configure the USART Baud Rate -------------------------------------------*/
 232:firmware/STM32F10x_StdPeriph_Lib_V3.3.0/Libraries/STM32F10x_StdPeriph_Driver/src/stm32f10x_usart.c ****   RCC_GetClocksFreq(&RCC_ClocksStatus);
 209              		.loc 1 232 0
 210 004a 01A8     		add	r0, sp, #4
 211              	.LVL14:
 212 004c FFF7FEFF 		bl	RCC_GetClocksFreq
 233:firmware/STM32F10x_StdPeriph_Lib_V3.3.0/Libraries/STM32F10x_StdPeriph_Driver/src/stm32f10x_usart.c ****   if (usartxbase == USART1_BASE)
 213              		.loc 1 233 0
 214 0050 184B     		ldr	r3, .L19
 234:firmware/STM32F10x_StdPeriph_Lib_V3.3.0/Libraries/STM32F10x_StdPeriph_Driver/src/stm32f10x_usart.c ****   {
 235:firmware/STM32F10x_StdPeriph_Lib_V3.3.0/Libraries/STM32F10x_StdPeriph_Driver/src/stm32f10x_usart.c ****     apbclock = RCC_ClocksStatus.PCLK2_Frequency;
 236:firmware/STM32F10x_StdPeriph_Lib_V3.3.0/Libraries/STM32F10x_StdPeriph_Driver/src/stm32f10x_usart.c ****   }
 237:firmware/STM32F10x_StdPeriph_Lib_V3.3.0/Libraries/STM32F10x_StdPeriph_Driver/src/stm32f10x_usart.c ****   else
 238:firmware/STM32F10x_StdPeriph_Lib_V3.3.0/Libraries/STM32F10x_StdPeriph_Driver/src/stm32f10x_usart.c ****   {
 239:firmware/STM32F10x_StdPeriph_Lib_V3.3.0/Libraries/STM32F10x_StdPeriph_Driver/src/stm32f10x_usart.c ****     apbclock = RCC_ClocksStatus.PCLK1_Frequency;
 240:firmware/STM32F10x_StdPeriph_Lib_V3.3.0/Libraries/STM32F10x_StdPeriph_Driver/src/stm32f10x_usart.c ****   }
 241:firmware/STM32F10x_StdPeriph_Lib_V3.3.0/Libraries/STM32F10x_StdPeriph_Driver/src/stm32f10x_usart.c ****   
 242:firmware/STM32F10x_StdPeriph_Lib_V3.3.0/Libraries/STM32F10x_StdPeriph_Driver/src/stm32f10x_usart.c ****   /* Determine the integer part */
 243:firmware/STM32F10x_StdPeriph_Lib_V3.3.0/Libraries/STM32F10x_StdPeriph_Driver/src/stm32f10x_usart.c ****   if ((USARTx->CR1 & CR1_OVER8_Set) != 0)
 215              		.loc 1 243 0
 216 0052 A289     		ldrh	r2, [r4, #12]
 233:firmware/STM32F10x_StdPeriph_Lib_V3.3.0/Libraries/STM32F10x_StdPeriph_Driver/src/stm32f10x_usart.c ****   if (usartxbase == USART1_BASE)
 217              		.loc 1 233 0
 218 0054 9C42     		cmp	r4, r3
 219              		.loc 1 243 0
 220 0056 12B2     		sxth	r2, r2
 235:firmware/STM32F10x_StdPeriph_Lib_V3.3.0/Libraries/STM32F10x_StdPeriph_Driver/src/stm32f10x_usart.c ****     apbclock = RCC_ClocksStatus.PCLK2_Frequency;
 221              		.loc 1 235 0
 222 0058 0CBF     		ite	eq
 223 005a 049B     		ldreq	r3, [sp, #16]
 224              	.LVL15:
 239:firmware/STM32F10x_StdPeriph_Lib_V3.3.0/Libraries/STM32F10x_StdPeriph_Driver/src/stm32f10x_usart.c ****     apbclock = RCC_ClocksStatus.PCLK1_Frequency;
 225              		.loc 1 239 0
 226 005c 039B     		ldrne	r3, [sp, #12]
 227              	.LVL16:
 228              		.loc 1 243 0
 229 005e 002A     		cmp	r2, #0
 230 0060 4FF01901 		mov	r1, #25
 231 0064 2A68     		ldr	r2, [r5, #0]
 232 0066 02DA     		bge	.L13
 244:firmware/STM32F10x_StdPeriph_Lib_V3.3.0/Libraries/STM32F10x_StdPeriph_Driver/src/stm32f10x_usart.c ****   {
 245:firmware/STM32F10x_StdPeriph_Lib_V3.3.0/Libraries/STM32F10x_StdPeriph_Driver/src/stm32f10x_usart.c ****     /* Integer part computing in case Oversampling mode is 8 Samples */
 246:firmware/STM32F10x_StdPeriph_Lib_V3.3.0/Libraries/STM32F10x_StdPeriph_Driver/src/stm32f10x_usart.c ****     integerdivider = ((25 * apbclock) / (2 * (USART_InitStruct->USART_BaudRate)));    
 233              		.loc 1 246 0
 234 0068 5943     		muls	r1, r3, r1
 235 006a 5200     		lsls	r2, r2, #1
 236 006c 01E0     		b	.L17
 237              	.L13:
 247:firmware/STM32F10x_StdPeriph_Lib_V3.3.0/Libraries/STM32F10x_StdPeriph_Driver/src/stm32f10x_usart.c ****   }
 248:firmware/STM32F10x_StdPeriph_Lib_V3.3.0/Libraries/STM32F10x_StdPeriph_Driver/src/stm32f10x_usart.c ****   else /* if ((USARTx->CR1 & CR1_OVER8_Set) == 0) */
 249:firmware/STM32F10x_StdPeriph_Lib_V3.3.0/Libraries/STM32F10x_StdPeriph_Driver/src/stm32f10x_usart.c ****   {
 250:firmware/STM32F10x_StdPeriph_Lib_V3.3.0/Libraries/STM32F10x_StdPeriph_Driver/src/stm32f10x_usart.c ****     /* Integer part computing in case Oversampling mode is 16 Samples */
 251:firmware/STM32F10x_StdPeriph_Lib_V3.3.0/Libraries/STM32F10x_StdPeriph_Driver/src/stm32f10x_usart.c ****     integerdivider = ((25 * apbclock) / (4 * (USART_InitStruct->USART_BaudRate)));    
 238              		.loc 1 251 0
 239 006e 5943     		muls	r1, r3, r1
 240 0070 9200     		lsls	r2, r2, #2
 241              	.LVL17:
 242              	.L17:
 252:firmware/STM32F10x_StdPeriph_Lib_V3.3.0/Libraries/STM32F10x_StdPeriph_Driver/src/stm32f10x_usart.c ****   }
 253:firmware/STM32F10x_StdPeriph_Lib_V3.3.0/Libraries/STM32F10x_StdPeriph_Driver/src/stm32f10x_usart.c ****   tmpreg = (integerdivider / 100) << 4;
 243              		.loc 1 253 0
 244 0072 6423     		movs	r3, #100
 245              	.LVL18:
 251:firmware/STM32F10x_StdPeriph_Lib_V3.3.0/Libraries/STM32F10x_StdPeriph_Driver/src/stm32f10x_usart.c ****     integerdivider = ((25 * apbclock) / (4 * (USART_InitStruct->USART_BaudRate)));    
 246              		.loc 1 251 0
 247 0074 B1FBF2F1 		udiv	r1, r1, r2
 248              	.LVL19:
 249              		.loc 1 253 0
 250 0078 B1FBF3F2 		udiv	r2, r1, r3
 251 007c 1201     		lsls	r2, r2, #4
 252              	.LVL20:
 254:firmware/STM32F10x_StdPeriph_Lib_V3.3.0/Libraries/STM32F10x_StdPeriph_Driver/src/stm32f10x_usart.c **** 
 255:firmware/STM32F10x_StdPeriph_Lib_V3.3.0/Libraries/STM32F10x_StdPeriph_Driver/src/stm32f10x_usart.c ****   /* Determine the fractional part */
 256:firmware/STM32F10x_StdPeriph_Lib_V3.3.0/Libraries/STM32F10x_StdPeriph_Driver/src/stm32f10x_usart.c ****   fractionaldivider = integerdivider - (100 * (tmpreg >> 4));
 253              		.loc 1 256 0
 254 007e 1009     		lsrs	r0, r2, #4
 255 0080 03FB1011 		mls	r1, r3, r0, r1
 256              	.LVL21:
 257:firmware/STM32F10x_StdPeriph_Lib_V3.3.0/Libraries/STM32F10x_StdPeriph_Driver/src/stm32f10x_usart.c **** 
 258:firmware/STM32F10x_StdPeriph_Lib_V3.3.0/Libraries/STM32F10x_StdPeriph_Driver/src/stm32f10x_usart.c ****   /* Implement the fractional part in the register */
 259:firmware/STM32F10x_StdPeriph_Lib_V3.3.0/Libraries/STM32F10x_StdPeriph_Driver/src/stm32f10x_usart.c ****   if ((USARTx->CR1 & CR1_OVER8_Set) != 0)
 257              		.loc 1 259 0
 258 0084 A089     		ldrh	r0, [r4, #12]
 259 0086 00B2     		sxth	r0, r0
 260 0088 0028     		cmp	r0, #0
 261 008a 06DA     		bge	.L15
 260:firmware/STM32F10x_StdPeriph_Lib_V3.3.0/Libraries/STM32F10x_StdPeriph_Driver/src/stm32f10x_usart.c ****   {
 261:firmware/STM32F10x_StdPeriph_Lib_V3.3.0/Libraries/STM32F10x_StdPeriph_Driver/src/stm32f10x_usart.c ****     tmpreg |= ((((fractionaldivider * 8) + 50) / 100)) & ((uint8_t)0x07);
 262              		.loc 1 261 0
 263 008c C900     		lsls	r1, r1, #3
 264              	.LVL22:
 265 008e 3231     		adds	r1, r1, #50
 266 0090 B1FBF3F3 		udiv	r3, r1, r3
 267 0094 03F00703 		and	r3, r3, #7
 268 0098 05E0     		b	.L18
 269              	.LVL23:
 270              	.L15:
 262:firmware/STM32F10x_StdPeriph_Lib_V3.3.0/Libraries/STM32F10x_StdPeriph_Driver/src/stm32f10x_usart.c ****   }
 263:firmware/STM32F10x_StdPeriph_Lib_V3.3.0/Libraries/STM32F10x_StdPeriph_Driver/src/stm32f10x_usart.c ****   else /* if ((USARTx->CR1 & CR1_OVER8_Set) == 0) */
 264:firmware/STM32F10x_StdPeriph_Lib_V3.3.0/Libraries/STM32F10x_StdPeriph_Driver/src/stm32f10x_usart.c ****   {
 265:firmware/STM32F10x_StdPeriph_Lib_V3.3.0/Libraries/STM32F10x_StdPeriph_Driver/src/stm32f10x_usart.c ****     tmpreg |= ((((fractionaldivider * 16) + 50) / 100)) & ((uint8_t)0x0F);
 271              		.loc 1 265 0
 272 009a 0901     		lsls	r1, r1, #4
 273              	.LVL24:
 274 009c 3231     		adds	r1, r1, #50
 275 009e B1FBF3F3 		udiv	r3, r1, r3
 276 00a2 03F00F03 		and	r3, r3, #15
 277              	.L18:
 278 00a6 43EA0202 		orr	r2, r3, r2
 279              	.LVL25:
 266:firmware/STM32F10x_StdPeriph_Lib_V3.3.0/Libraries/STM32F10x_StdPeriph_Driver/src/stm32f10x_usart.c ****   }
 267:firmware/STM32F10x_StdPeriph_Lib_V3.3.0/Libraries/STM32F10x_StdPeriph_Driver/src/stm32f10x_usart.c ****   
 268:firmware/STM32F10x_StdPeriph_Lib_V3.3.0/Libraries/STM32F10x_StdPeriph_Driver/src/stm32f10x_usart.c ****   /* Write to USART BRR */
 269:firmware/STM32F10x_StdPeriph_Lib_V3.3.0/Libraries/STM32F10x_StdPeriph_Driver/src/stm32f10x_usart.c ****   USARTx->BRR = (uint16_t)tmpreg;
 280              		.loc 1 269 0
 281 00aa 92B2     		uxth	r2, r2
 282              	.LVL26:
 283 00ac 2281     		strh	r2, [r4, #8]	@ movhi
 270:firmware/STM32F10x_StdPeriph_Lib_V3.3.0/Libraries/STM32F10x_StdPeriph_Driver/src/stm32f10x_usart.c **** }
 284              		.loc 1 270 0
 285 00ae 07B0     		add	sp, sp, #28
 286 00b0 30BD     		pop	{r4, r5, pc}
 287              	.L20:
 288 00b2 00BF     		.align	2
 289              	.L19:
 290 00b4 00380140 		.word	1073821696
 291              		.cfi_endproc
 292              	.LFE30:
 294              		.section	.text.USART_StructInit,"ax",%progbits
 295              		.align	1
 296              		.global	USART_StructInit
 297              		.thumb
 298              		.thumb_func
 300              	USART_StructInit:
 301              	.LFB31:
 271:firmware/STM32F10x_StdPeriph_Lib_V3.3.0/Libraries/STM32F10x_StdPeriph_Driver/src/stm32f10x_usart.c **** 
 272:firmware/STM32F10x_StdPeriph_Lib_V3.3.0/Libraries/STM32F10x_StdPeriph_Driver/src/stm32f10x_usart.c **** /**
 273:firmware/STM32F10x_StdPeriph_Lib_V3.3.0/Libraries/STM32F10x_StdPeriph_Driver/src/stm32f10x_usart.c ****   * @brief  Fills each USART_InitStruct member with its default value.
 274:firmware/STM32F10x_StdPeriph_Lib_V3.3.0/Libraries/STM32F10x_StdPeriph_Driver/src/stm32f10x_usart.c ****   * @param  USART_InitStruct: pointer to a USART_InitTypeDef structure
 275:firmware/STM32F10x_StdPeriph_Lib_V3.3.0/Libraries/STM32F10x_StdPeriph_Driver/src/stm32f10x_usart.c ****   *   which will be initialized.
 276:firmware/STM32F10x_StdPeriph_Lib_V3.3.0/Libraries/STM32F10x_StdPeriph_Driver/src/stm32f10x_usart.c ****   * @retval None
 277:firmware/STM32F10x_StdPeriph_Lib_V3.3.0/Libraries/STM32F10x_StdPeriph_Driver/src/stm32f10x_usart.c ****   */
 278:firmware/STM32F10x_StdPeriph_Lib_V3.3.0/Libraries/STM32F10x_StdPeriph_Driver/src/stm32f10x_usart.c **** void USART_StructInit(USART_InitTypeDef* USART_InitStruct)
 279:firmware/STM32F10x_StdPeriph_Lib_V3.3.0/Libraries/STM32F10x_StdPeriph_Driver/src/stm32f10x_usart.c **** {
 302              		.loc 1 279 0
 303              		.cfi_startproc
 304              		@ args = 0, pretend = 0, frame = 0
 305              		@ frame_needed = 0, uses_anonymous_args = 0
 306              		@ link register save eliminated.
 307              	.LVL27:
 280:firmware/STM32F10x_StdPeriph_Lib_V3.3.0/Libraries/STM32F10x_StdPeriph_Driver/src/stm32f10x_usart.c ****   /* USART_InitStruct members default value */
 281:firmware/STM32F10x_StdPeriph_Lib_V3.3.0/Libraries/STM32F10x_StdPeriph_Driver/src/stm32f10x_usart.c ****   USART_InitStruct->USART_BaudRate = 9600;
 308              		.loc 1 281 0
 309 0000 4FF41653 		mov	r3, #9600
 310 0004 0360     		str	r3, [r0, #0]
 282:firmware/STM32F10x_StdPeriph_Lib_V3.3.0/Libraries/STM32F10x_StdPeriph_Driver/src/stm32f10x_usart.c ****   USART_InitStruct->USART_WordLength = USART_WordLength_8b;
 283:firmware/STM32F10x_StdPeriph_Lib_V3.3.0/Libraries/STM32F10x_StdPeriph_Driver/src/stm32f10x_usart.c ****   USART_InitStruct->USART_StopBits = USART_StopBits_1;
 284:firmware/STM32F10x_StdPeriph_Lib_V3.3.0/Libraries/STM32F10x_StdPeriph_Driver/src/stm32f10x_usart.c ****   USART_InitStruct->USART_Parity = USART_Parity_No ;
 285:firmware/STM32F10x_StdPeriph_Lib_V3.3.0/Libraries/STM32F10x_StdPeriph_Driver/src/stm32f10x_usart.c ****   USART_InitStruct->USART_Mode = USART_Mode_Rx | USART_Mode_Tx;
 311              		.loc 1 285 0
 312 0006 0C22     		movs	r2, #12
 282:firmware/STM32F10x_StdPeriph_Lib_V3.3.0/Libraries/STM32F10x_StdPeriph_Driver/src/stm32f10x_usart.c ****   USART_InitStruct->USART_WordLength = USART_WordLength_8b;
 313              		.loc 1 282 0
 314 0008 0023     		movs	r3, #0
 315 000a 8380     		strh	r3, [r0, #4]	@ movhi
 283:firmware/STM32F10x_StdPeriph_Lib_V3.3.0/Libraries/STM32F10x_StdPeriph_Driver/src/stm32f10x_usart.c ****   USART_InitStruct->USART_StopBits = USART_StopBits_1;
 316              		.loc 1 283 0
 317 000c C380     		strh	r3, [r0, #6]	@ movhi
 284:firmware/STM32F10x_StdPeriph_Lib_V3.3.0/Libraries/STM32F10x_StdPeriph_Driver/src/stm32f10x_usart.c ****   USART_InitStruct->USART_Parity = USART_Parity_No ;
 318              		.loc 1 284 0
 319 000e 0381     		strh	r3, [r0, #8]	@ movhi
 320              		.loc 1 285 0
 321 0010 4281     		strh	r2, [r0, #10]	@ movhi
 286:firmware/STM32F10x_StdPeriph_Lib_V3.3.0/Libraries/STM32F10x_StdPeriph_Driver/src/stm32f10x_usart.c ****   USART_InitStruct->USART_HardwareFlowControl = USART_HardwareFlowControl_None;  
 322              		.loc 1 286 0
 323 0012 8381     		strh	r3, [r0, #12]	@ movhi
 287:firmware/STM32F10x_StdPeriph_Lib_V3.3.0/Libraries/STM32F10x_StdPeriph_Driver/src/stm32f10x_usart.c **** }
 324              		.loc 1 287 0
 325 0014 7047     		bx	lr
 326              		.cfi_endproc
 327              	.LFE31:
 329              		.section	.text.USART_ClockInit,"ax",%progbits
 330              		.align	1
 331              		.global	USART_ClockInit
 332              		.thumb
 333              		.thumb_func
 335              	USART_ClockInit:
 336              	.LFB32:
 288:firmware/STM32F10x_StdPeriph_Lib_V3.3.0/Libraries/STM32F10x_StdPeriph_Driver/src/stm32f10x_usart.c **** 
 289:firmware/STM32F10x_StdPeriph_Lib_V3.3.0/Libraries/STM32F10x_StdPeriph_Driver/src/stm32f10x_usart.c **** /**
 290:firmware/STM32F10x_StdPeriph_Lib_V3.3.0/Libraries/STM32F10x_StdPeriph_Driver/src/stm32f10x_usart.c ****   * @brief  Initializes the USARTx peripheral Clock according to the 
 291:firmware/STM32F10x_StdPeriph_Lib_V3.3.0/Libraries/STM32F10x_StdPeriph_Driver/src/stm32f10x_usart.c ****   *   specified parameters in the USART_ClockInitStruct .
 292:firmware/STM32F10x_StdPeriph_Lib_V3.3.0/Libraries/STM32F10x_StdPeriph_Driver/src/stm32f10x_usart.c ****   * @param  USARTx: where x can be 1, 2, 3 to select the USART peripheral.
 293:firmware/STM32F10x_StdPeriph_Lib_V3.3.0/Libraries/STM32F10x_StdPeriph_Driver/src/stm32f10x_usart.c ****   * @param  USART_ClockInitStruct: pointer to a USART_ClockInitTypeDef
 294:firmware/STM32F10x_StdPeriph_Lib_V3.3.0/Libraries/STM32F10x_StdPeriph_Driver/src/stm32f10x_usart.c ****   *   structure that contains the configuration information for the specified 
 295:firmware/STM32F10x_StdPeriph_Lib_V3.3.0/Libraries/STM32F10x_StdPeriph_Driver/src/stm32f10x_usart.c ****   *   USART peripheral.  
 296:firmware/STM32F10x_StdPeriph_Lib_V3.3.0/Libraries/STM32F10x_StdPeriph_Driver/src/stm32f10x_usart.c ****   * @note The Smart Card mode is not available for UART4 and UART5.
 297:firmware/STM32F10x_StdPeriph_Lib_V3.3.0/Libraries/STM32F10x_StdPeriph_Driver/src/stm32f10x_usart.c ****   * @retval None
 298:firmware/STM32F10x_StdPeriph_Lib_V3.3.0/Libraries/STM32F10x_StdPeriph_Driver/src/stm32f10x_usart.c ****   */
 299:firmware/STM32F10x_StdPeriph_Lib_V3.3.0/Libraries/STM32F10x_StdPeriph_Driver/src/stm32f10x_usart.c **** void USART_ClockInit(USART_TypeDef* USARTx, USART_ClockInitTypeDef* USART_ClockInitStruct)
 300:firmware/STM32F10x_StdPeriph_Lib_V3.3.0/Libraries/STM32F10x_StdPeriph_Driver/src/stm32f10x_usart.c **** {
 337              		.loc 1 300 0
 338              		.cfi_startproc
 339              		@ args = 0, pretend = 0, frame = 0
 340              		@ frame_needed = 0, uses_anonymous_args = 0
 341              	.LVL28:
 301:firmware/STM32F10x_StdPeriph_Lib_V3.3.0/Libraries/STM32F10x_StdPeriph_Driver/src/stm32f10x_usart.c ****   uint32_t tmpreg = 0x00;
 302:firmware/STM32F10x_StdPeriph_Lib_V3.3.0/Libraries/STM32F10x_StdPeriph_Driver/src/stm32f10x_usart.c ****   /* Check the parameters */
 303:firmware/STM32F10x_StdPeriph_Lib_V3.3.0/Libraries/STM32F10x_StdPeriph_Driver/src/stm32f10x_usart.c ****   assert_param(IS_USART_123_PERIPH(USARTx));
 304:firmware/STM32F10x_StdPeriph_Lib_V3.3.0/Libraries/STM32F10x_StdPeriph_Driver/src/stm32f10x_usart.c ****   assert_param(IS_USART_CLOCK(USART_ClockInitStruct->USART_Clock));
 305:firmware/STM32F10x_StdPeriph_Lib_V3.3.0/Libraries/STM32F10x_StdPeriph_Driver/src/stm32f10x_usart.c ****   assert_param(IS_USART_CPOL(USART_ClockInitStruct->USART_CPOL));
 306:firmware/STM32F10x_StdPeriph_Lib_V3.3.0/Libraries/STM32F10x_StdPeriph_Driver/src/stm32f10x_usart.c ****   assert_param(IS_USART_CPHA(USART_ClockInitStruct->USART_CPHA));
 307:firmware/STM32F10x_StdPeriph_Lib_V3.3.0/Libraries/STM32F10x_StdPeriph_Driver/src/stm32f10x_usart.c ****   assert_param(IS_USART_LASTBIT(USART_ClockInitStruct->USART_LastBit));
 308:firmware/STM32F10x_StdPeriph_Lib_V3.3.0/Libraries/STM32F10x_StdPeriph_Driver/src/stm32f10x_usart.c ****   
 309:firmware/STM32F10x_StdPeriph_Lib_V3.3.0/Libraries/STM32F10x_StdPeriph_Driver/src/stm32f10x_usart.c **** /*---------------------------- USART CR2 Configuration -----------------------*/
 310:firmware/STM32F10x_StdPeriph_Lib_V3.3.0/Libraries/STM32F10x_StdPeriph_Driver/src/stm32f10x_usart.c ****   tmpreg = USARTx->CR2;
 311:firmware/STM32F10x_StdPeriph_Lib_V3.3.0/Libraries/STM32F10x_StdPeriph_Driver/src/stm32f10x_usart.c ****   /* Clear CLKEN, CPOL, CPHA and LBCL bits */
 312:firmware/STM32F10x_StdPeriph_Lib_V3.3.0/Libraries/STM32F10x_StdPeriph_Driver/src/stm32f10x_usart.c ****   tmpreg &= CR2_CLOCK_CLEAR_Mask;
 313:firmware/STM32F10x_StdPeriph_Lib_V3.3.0/Libraries/STM32F10x_StdPeriph_Driver/src/stm32f10x_usart.c ****   /* Configure the USART Clock, CPOL, CPHA and LastBit ------------*/
 314:firmware/STM32F10x_StdPeriph_Lib_V3.3.0/Libraries/STM32F10x_StdPeriph_Driver/src/stm32f10x_usart.c ****   /* Set CLKEN bit according to USART_Clock value */
 315:firmware/STM32F10x_StdPeriph_Lib_V3.3.0/Libraries/STM32F10x_StdPeriph_Driver/src/stm32f10x_usart.c ****   /* Set CPOL bit according to USART_CPOL value */
 316:firmware/STM32F10x_StdPeriph_Lib_V3.3.0/Libraries/STM32F10x_StdPeriph_Driver/src/stm32f10x_usart.c ****   /* Set CPHA bit according to USART_CPHA value */
 317:firmware/STM32F10x_StdPeriph_Lib_V3.3.0/Libraries/STM32F10x_StdPeriph_Driver/src/stm32f10x_usart.c ****   /* Set LBCL bit according to USART_LastBit value */
 318:firmware/STM32F10x_StdPeriph_Lib_V3.3.0/Libraries/STM32F10x_StdPeriph_Driver/src/stm32f10x_usart.c ****   tmpreg |= (uint32_t)USART_ClockInitStruct->USART_Clock | USART_ClockInitStruct->USART_CPOL | 
 319:firmware/STM32F10x_StdPeriph_Lib_V3.3.0/Libraries/STM32F10x_StdPeriph_Driver/src/stm32f10x_usart.c ****                  USART_ClockInitStruct->USART_CPHA | USART_ClockInitStruct->USART_LastBit;
 342              		.loc 1 319 0
 343 0000 0A88     		ldrh	r2, [r1, #0]
 300:firmware/STM32F10x_StdPeriph_Lib_V3.3.0/Libraries/STM32F10x_StdPeriph_Driver/src/stm32f10x_usart.c **** {
 344              		.loc 1 300 0
 345 0002 10B5     		push	{r4, lr}
 346              	.LCFI3:
 347              		.cfi_def_cfa_offset 8
 348              		.loc 1 319 0
 349 0004 4C88     		ldrh	r4, [r1, #2]
 350              		.cfi_offset 14, -4
 351              		.cfi_offset 4, -8
 310:firmware/STM32F10x_StdPeriph_Lib_V3.3.0/Libraries/STM32F10x_StdPeriph_Driver/src/stm32f10x_usart.c ****   tmpreg = USARTx->CR2;
 352              		.loc 1 310 0
 353 0006 038A     		ldrh	r3, [r0, #16]
 354              	.LVL29:
 355              		.loc 1 319 0
 356 0008 44EA0202 		orr	r2, r4, r2
 357 000c 8C88     		ldrh	r4, [r1, #4]
 358 000e C988     		ldrh	r1, [r1, #6]
 359              	.LVL30:
 312:firmware/STM32F10x_StdPeriph_Lib_V3.3.0/Libraries/STM32F10x_StdPeriph_Driver/src/stm32f10x_usart.c ****   tmpreg &= CR2_CLOCK_CLEAR_Mask;
 360              		.loc 1 312 0
 361 0010 23F47063 		bic	r3, r3, #3840
 362              	.LVL31:
 363              		.loc 1 319 0
 364 0014 2243     		orrs	r2, r2, r4
 312:firmware/STM32F10x_StdPeriph_Lib_V3.3.0/Libraries/STM32F10x_StdPeriph_Driver/src/stm32f10x_usart.c ****   tmpreg &= CR2_CLOCK_CLEAR_Mask;
 365              		.loc 1 312 0
 366 0016 1B04     		lsls	r3, r3, #16
 367              		.loc 1 319 0
 368 0018 0A43     		orrs	r2, r2, r1
 312:firmware/STM32F10x_StdPeriph_Lib_V3.3.0/Libraries/STM32F10x_StdPeriph_Driver/src/stm32f10x_usart.c ****   tmpreg &= CR2_CLOCK_CLEAR_Mask;
 369              		.loc 1 312 0
 370 001a 1B0C     		lsrs	r3, r3, #16
 371              		.loc 1 319 0
 372 001c 92B2     		uxth	r2, r2
 320:firmware/STM32F10x_StdPeriph_Lib_V3.3.0/Libraries/STM32F10x_StdPeriph_Driver/src/stm32f10x_usart.c ****   /* Write to USART CR2 */
 321:firmware/STM32F10x_StdPeriph_Lib_V3.3.0/Libraries/STM32F10x_StdPeriph_Driver/src/stm32f10x_usart.c ****   USARTx->CR2 = (uint16_t)tmpreg;
 373              		.loc 1 321 0
 374 001e 42EA0303 		orr	r3, r2, r3
 375 0022 0382     		strh	r3, [r0, #16]	@ movhi
 322:firmware/STM32F10x_StdPeriph_Lib_V3.3.0/Libraries/STM32F10x_StdPeriph_Driver/src/stm32f10x_usart.c **** }
 376              		.loc 1 322 0
 377 0024 10BD     		pop	{r4, pc}
 378              		.cfi_endproc
 379              	.LFE32:
 381              		.section	.text.USART_ClockStructInit,"ax",%progbits
 382              		.align	1
 383              		.global	USART_ClockStructInit
 384              		.thumb
 385              		.thumb_func
 387              	USART_ClockStructInit:
 388              	.LFB33:
 323:firmware/STM32F10x_StdPeriph_Lib_V3.3.0/Libraries/STM32F10x_StdPeriph_Driver/src/stm32f10x_usart.c **** 
 324:firmware/STM32F10x_StdPeriph_Lib_V3.3.0/Libraries/STM32F10x_StdPeriph_Driver/src/stm32f10x_usart.c **** /**
 325:firmware/STM32F10x_StdPeriph_Lib_V3.3.0/Libraries/STM32F10x_StdPeriph_Driver/src/stm32f10x_usart.c ****   * @brief  Fills each USART_ClockInitStruct member with its default value.
 326:firmware/STM32F10x_StdPeriph_Lib_V3.3.0/Libraries/STM32F10x_StdPeriph_Driver/src/stm32f10x_usart.c ****   * @param  USART_ClockInitStruct: pointer to a USART_ClockInitTypeDef
 327:firmware/STM32F10x_StdPeriph_Lib_V3.3.0/Libraries/STM32F10x_StdPeriph_Driver/src/stm32f10x_usart.c ****   *   structure which will be initialized.
 328:firmware/STM32F10x_StdPeriph_Lib_V3.3.0/Libraries/STM32F10x_StdPeriph_Driver/src/stm32f10x_usart.c ****   * @retval None
 329:firmware/STM32F10x_StdPeriph_Lib_V3.3.0/Libraries/STM32F10x_StdPeriph_Driver/src/stm32f10x_usart.c ****   */
 330:firmware/STM32F10x_StdPeriph_Lib_V3.3.0/Libraries/STM32F10x_StdPeriph_Driver/src/stm32f10x_usart.c **** void USART_ClockStructInit(USART_ClockInitTypeDef* USART_ClockInitStruct)
 331:firmware/STM32F10x_StdPeriph_Lib_V3.3.0/Libraries/STM32F10x_StdPeriph_Driver/src/stm32f10x_usart.c **** {
 389              		.loc 1 331 0
 390              		.cfi_startproc
 391              		@ args = 0, pretend = 0, frame = 0
 392              		@ frame_needed = 0, uses_anonymous_args = 0
 393              		@ link register save eliminated.
 394              	.LVL32:
 332:firmware/STM32F10x_StdPeriph_Lib_V3.3.0/Libraries/STM32F10x_StdPeriph_Driver/src/stm32f10x_usart.c ****   /* USART_ClockInitStruct members default value */
 333:firmware/STM32F10x_StdPeriph_Lib_V3.3.0/Libraries/STM32F10x_StdPeriph_Driver/src/stm32f10x_usart.c ****   USART_ClockInitStruct->USART_Clock = USART_Clock_Disable;
 395              		.loc 1 333 0
 396 0000 0023     		movs	r3, #0
 397 0002 0380     		strh	r3, [r0, #0]	@ movhi
 334:firmware/STM32F10x_StdPeriph_Lib_V3.3.0/Libraries/STM32F10x_StdPeriph_Driver/src/stm32f10x_usart.c ****   USART_ClockInitStruct->USART_CPOL = USART_CPOL_Low;
 398              		.loc 1 334 0
 399 0004 4380     		strh	r3, [r0, #2]	@ movhi
 335:firmware/STM32F10x_StdPeriph_Lib_V3.3.0/Libraries/STM32F10x_StdPeriph_Driver/src/stm32f10x_usart.c ****   USART_ClockInitStruct->USART_CPHA = USART_CPHA_1Edge;
 400              		.loc 1 335 0
 401 0006 8380     		strh	r3, [r0, #4]	@ movhi
 336:firmware/STM32F10x_StdPeriph_Lib_V3.3.0/Libraries/STM32F10x_StdPeriph_Driver/src/stm32f10x_usart.c ****   USART_ClockInitStruct->USART_LastBit = USART_LastBit_Disable;
 402              		.loc 1 336 0
 403 0008 C380     		strh	r3, [r0, #6]	@ movhi
 337:firmware/STM32F10x_StdPeriph_Lib_V3.3.0/Libraries/STM32F10x_StdPeriph_Driver/src/stm32f10x_usart.c **** }
 404              		.loc 1 337 0
 405 000a 7047     		bx	lr
 406              		.cfi_endproc
 407              	.LFE33:
 409              		.section	.text.USART_Cmd,"ax",%progbits
 410              		.align	1
 411              		.global	USART_Cmd
 412              		.thumb
 413              		.thumb_func
 415              	USART_Cmd:
 416              	.LFB34:
 338:firmware/STM32F10x_StdPeriph_Lib_V3.3.0/Libraries/STM32F10x_StdPeriph_Driver/src/stm32f10x_usart.c **** 
 339:firmware/STM32F10x_StdPeriph_Lib_V3.3.0/Libraries/STM32F10x_StdPeriph_Driver/src/stm32f10x_usart.c **** /**
 340:firmware/STM32F10x_StdPeriph_Lib_V3.3.0/Libraries/STM32F10x_StdPeriph_Driver/src/stm32f10x_usart.c ****   * @brief  Enables or disables the specified USART peripheral.
 341:firmware/STM32F10x_StdPeriph_Lib_V3.3.0/Libraries/STM32F10x_StdPeriph_Driver/src/stm32f10x_usart.c ****   * @param  USARTx: Select the USART or the UART peripheral. 
 342:firmware/STM32F10x_StdPeriph_Lib_V3.3.0/Libraries/STM32F10x_StdPeriph_Driver/src/stm32f10x_usart.c ****   *   This parameter can be one of the following values:
 343:firmware/STM32F10x_StdPeriph_Lib_V3.3.0/Libraries/STM32F10x_StdPeriph_Driver/src/stm32f10x_usart.c ****   *   USART1, USART2, USART3, UART4 or UART5.
 344:firmware/STM32F10x_StdPeriph_Lib_V3.3.0/Libraries/STM32F10x_StdPeriph_Driver/src/stm32f10x_usart.c ****   * @param  NewState: new state of the USARTx peripheral.
 345:firmware/STM32F10x_StdPeriph_Lib_V3.3.0/Libraries/STM32F10x_StdPeriph_Driver/src/stm32f10x_usart.c ****   *   This parameter can be: ENABLE or DISABLE.
 346:firmware/STM32F10x_StdPeriph_Lib_V3.3.0/Libraries/STM32F10x_StdPeriph_Driver/src/stm32f10x_usart.c ****   * @retval None
 347:firmware/STM32F10x_StdPeriph_Lib_V3.3.0/Libraries/STM32F10x_StdPeriph_Driver/src/stm32f10x_usart.c ****   */
 348:firmware/STM32F10x_StdPeriph_Lib_V3.3.0/Libraries/STM32F10x_StdPeriph_Driver/src/stm32f10x_usart.c **** void USART_Cmd(USART_TypeDef* USARTx, FunctionalState NewState)
 349:firmware/STM32F10x_StdPeriph_Lib_V3.3.0/Libraries/STM32F10x_StdPeriph_Driver/src/stm32f10x_usart.c **** {
 417              		.loc 1 349 0
 418              		.cfi_startproc
 419              		@ args = 0, pretend = 0, frame = 0
 420              		@ frame_needed = 0, uses_anonymous_args = 0
 421              		@ link register save eliminated.
 422              	.LVL33:
 350:firmware/STM32F10x_StdPeriph_Lib_V3.3.0/Libraries/STM32F10x_StdPeriph_Driver/src/stm32f10x_usart.c ****   /* Check the parameters */
 351:firmware/STM32F10x_StdPeriph_Lib_V3.3.0/Libraries/STM32F10x_StdPeriph_Driver/src/stm32f10x_usart.c ****   assert_param(IS_USART_ALL_PERIPH(USARTx));
 352:firmware/STM32F10x_StdPeriph_Lib_V3.3.0/Libraries/STM32F10x_StdPeriph_Driver/src/stm32f10x_usart.c ****   assert_param(IS_FUNCTIONAL_STATE(NewState));
 353:firmware/STM32F10x_StdPeriph_Lib_V3.3.0/Libraries/STM32F10x_StdPeriph_Driver/src/stm32f10x_usart.c ****   
 354:firmware/STM32F10x_StdPeriph_Lib_V3.3.0/Libraries/STM32F10x_StdPeriph_Driver/src/stm32f10x_usart.c ****   if (NewState != DISABLE)
 423              		.loc 1 354 0
 424 0000 21B1     		cbz	r1, .L25
 355:firmware/STM32F10x_StdPeriph_Lib_V3.3.0/Libraries/STM32F10x_StdPeriph_Driver/src/stm32f10x_usart.c ****   {
 356:firmware/STM32F10x_StdPeriph_Lib_V3.3.0/Libraries/STM32F10x_StdPeriph_Driver/src/stm32f10x_usart.c ****     /* Enable the selected USART by setting the UE bit in the CR1 register */
 357:firmware/STM32F10x_StdPeriph_Lib_V3.3.0/Libraries/STM32F10x_StdPeriph_Driver/src/stm32f10x_usart.c ****     USARTx->CR1 |= CR1_UE_Set;
 425              		.loc 1 357 0
 426 0002 8389     		ldrh	r3, [r0, #12]
 427 0004 9BB2     		uxth	r3, r3
 428 0006 43F40053 		orr	r3, r3, #8192
 429 000a 04E0     		b	.L27
 430              	.L25:
 358:firmware/STM32F10x_StdPeriph_Lib_V3.3.0/Libraries/STM32F10x_StdPeriph_Driver/src/stm32f10x_usart.c ****   }
 359:firmware/STM32F10x_StdPeriph_Lib_V3.3.0/Libraries/STM32F10x_StdPeriph_Driver/src/stm32f10x_usart.c ****   else
 360:firmware/STM32F10x_StdPeriph_Lib_V3.3.0/Libraries/STM32F10x_StdPeriph_Driver/src/stm32f10x_usart.c ****   {
 361:firmware/STM32F10x_StdPeriph_Lib_V3.3.0/Libraries/STM32F10x_StdPeriph_Driver/src/stm32f10x_usart.c ****     /* Disable the selected USART by clearing the UE bit in the CR1 register */
 362:firmware/STM32F10x_StdPeriph_Lib_V3.3.0/Libraries/STM32F10x_StdPeriph_Driver/src/stm32f10x_usart.c ****     USARTx->CR1 &= CR1_UE_Reset;
 431              		.loc 1 362 0
 432 000c 8389     		ldrh	r3, [r0, #12]
 433 000e 23F40053 		bic	r3, r3, #8192
 434 0012 1B04     		lsls	r3, r3, #16
 435 0014 1B0C     		lsrs	r3, r3, #16
 436              	.L27:
 437 0016 8381     		strh	r3, [r0, #12]	@ movhi
 438 0018 7047     		bx	lr
 439              		.cfi_endproc
 440              	.LFE34:
 442              		.section	.text.USART_ITConfig,"ax",%progbits
 443              		.align	1
 444              		.global	USART_ITConfig
 445              		.thumb
 446              		.thumb_func
 448              	USART_ITConfig:
 449              	.LFB35:
 363:firmware/STM32F10x_StdPeriph_Lib_V3.3.0/Libraries/STM32F10x_StdPeriph_Driver/src/stm32f10x_usart.c ****   }
 364:firmware/STM32F10x_StdPeriph_Lib_V3.3.0/Libraries/STM32F10x_StdPeriph_Driver/src/stm32f10x_usart.c **** }
 365:firmware/STM32F10x_StdPeriph_Lib_V3.3.0/Libraries/STM32F10x_StdPeriph_Driver/src/stm32f10x_usart.c **** 
 366:firmware/STM32F10x_StdPeriph_Lib_V3.3.0/Libraries/STM32F10x_StdPeriph_Driver/src/stm32f10x_usart.c **** /**
 367:firmware/STM32F10x_StdPeriph_Lib_V3.3.0/Libraries/STM32F10x_StdPeriph_Driver/src/stm32f10x_usart.c ****   * @brief  Enables or disables the specified USART interrupts.
 368:firmware/STM32F10x_StdPeriph_Lib_V3.3.0/Libraries/STM32F10x_StdPeriph_Driver/src/stm32f10x_usart.c ****   * @param  USARTx: Select the USART or the UART peripheral. 
 369:firmware/STM32F10x_StdPeriph_Lib_V3.3.0/Libraries/STM32F10x_StdPeriph_Driver/src/stm32f10x_usart.c ****   *   This parameter can be one of the following values:
 370:firmware/STM32F10x_StdPeriph_Lib_V3.3.0/Libraries/STM32F10x_StdPeriph_Driver/src/stm32f10x_usart.c ****   *   USART1, USART2, USART3, UART4 or UART5.
 371:firmware/STM32F10x_StdPeriph_Lib_V3.3.0/Libraries/STM32F10x_StdPeriph_Driver/src/stm32f10x_usart.c ****   * @param  USART_IT: specifies the USART interrupt sources to be enabled or disabled.
 372:firmware/STM32F10x_StdPeriph_Lib_V3.3.0/Libraries/STM32F10x_StdPeriph_Driver/src/stm32f10x_usart.c ****   *   This parameter can be one of the following values:
 373:firmware/STM32F10x_StdPeriph_Lib_V3.3.0/Libraries/STM32F10x_StdPeriph_Driver/src/stm32f10x_usart.c ****   *     @arg USART_IT_CTS:  CTS change interrupt (not available for UART4 and UART5)
 374:firmware/STM32F10x_StdPeriph_Lib_V3.3.0/Libraries/STM32F10x_StdPeriph_Driver/src/stm32f10x_usart.c ****   *     @arg USART_IT_LBD:  LIN Break detection interrupt
 375:firmware/STM32F10x_StdPeriph_Lib_V3.3.0/Libraries/STM32F10x_StdPeriph_Driver/src/stm32f10x_usart.c ****   *     @arg USART_IT_TXE:  Tansmit Data Register empty interrupt
 376:firmware/STM32F10x_StdPeriph_Lib_V3.3.0/Libraries/STM32F10x_StdPeriph_Driver/src/stm32f10x_usart.c ****   *     @arg USART_IT_TC:   Transmission complete interrupt
 377:firmware/STM32F10x_StdPeriph_Lib_V3.3.0/Libraries/STM32F10x_StdPeriph_Driver/src/stm32f10x_usart.c ****   *     @arg USART_IT_RXNE: Receive Data register not empty interrupt
 378:firmware/STM32F10x_StdPeriph_Lib_V3.3.0/Libraries/STM32F10x_StdPeriph_Driver/src/stm32f10x_usart.c ****   *     @arg USART_IT_IDLE: Idle line detection interrupt
 379:firmware/STM32F10x_StdPeriph_Lib_V3.3.0/Libraries/STM32F10x_StdPeriph_Driver/src/stm32f10x_usart.c ****   *     @arg USART_IT_PE:   Parity Error interrupt
 380:firmware/STM32F10x_StdPeriph_Lib_V3.3.0/Libraries/STM32F10x_StdPeriph_Driver/src/stm32f10x_usart.c ****   *     @arg USART_IT_ERR:  Error interrupt(Frame error, noise error, overrun error)
 381:firmware/STM32F10x_StdPeriph_Lib_V3.3.0/Libraries/STM32F10x_StdPeriph_Driver/src/stm32f10x_usart.c ****   * @param  NewState: new state of the specified USARTx interrupts.
 382:firmware/STM32F10x_StdPeriph_Lib_V3.3.0/Libraries/STM32F10x_StdPeriph_Driver/src/stm32f10x_usart.c ****   *   This parameter can be: ENABLE or DISABLE.
 383:firmware/STM32F10x_StdPeriph_Lib_V3.3.0/Libraries/STM32F10x_StdPeriph_Driver/src/stm32f10x_usart.c ****   * @retval None
 384:firmware/STM32F10x_StdPeriph_Lib_V3.3.0/Libraries/STM32F10x_StdPeriph_Driver/src/stm32f10x_usart.c ****   */
 385:firmware/STM32F10x_StdPeriph_Lib_V3.3.0/Libraries/STM32F10x_StdPeriph_Driver/src/stm32f10x_usart.c **** void USART_ITConfig(USART_TypeDef* USARTx, uint16_t USART_IT, FunctionalState NewState)
 386:firmware/STM32F10x_StdPeriph_Lib_V3.3.0/Libraries/STM32F10x_StdPeriph_Driver/src/stm32f10x_usart.c **** {
 450              		.loc 1 386 0
 451              		.cfi_startproc
 452              		@ args = 0, pretend = 0, frame = 0
 453              		@ frame_needed = 0, uses_anonymous_args = 0
 454              	.LVL34:
 387:firmware/STM32F10x_StdPeriph_Lib_V3.3.0/Libraries/STM32F10x_StdPeriph_Driver/src/stm32f10x_usart.c ****   uint32_t usartreg = 0x00, itpos = 0x00, itmask = 0x00;
 388:firmware/STM32F10x_StdPeriph_Lib_V3.3.0/Libraries/STM32F10x_StdPeriph_Driver/src/stm32f10x_usart.c ****   uint32_t usartxbase = 0x00;
 389:firmware/STM32F10x_StdPeriph_Lib_V3.3.0/Libraries/STM32F10x_StdPeriph_Driver/src/stm32f10x_usart.c ****   /* Check the parameters */
 390:firmware/STM32F10x_StdPeriph_Lib_V3.3.0/Libraries/STM32F10x_StdPeriph_Driver/src/stm32f10x_usart.c ****   assert_param(IS_USART_ALL_PERIPH(USARTx));
 391:firmware/STM32F10x_StdPeriph_Lib_V3.3.0/Libraries/STM32F10x_StdPeriph_Driver/src/stm32f10x_usart.c ****   assert_param(IS_USART_CONFIG_IT(USART_IT));
 392:firmware/STM32F10x_StdPeriph_Lib_V3.3.0/Libraries/STM32F10x_StdPeriph_Driver/src/stm32f10x_usart.c ****   assert_param(IS_FUNCTIONAL_STATE(NewState));
 393:firmware/STM32F10x_StdPeriph_Lib_V3.3.0/Libraries/STM32F10x_StdPeriph_Driver/src/stm32f10x_usart.c ****   /* The CTS interrupt is not available for UART4 and UART5 */
 394:firmware/STM32F10x_StdPeriph_Lib_V3.3.0/Libraries/STM32F10x_StdPeriph_Driver/src/stm32f10x_usart.c ****   if (USART_IT == USART_IT_CTS)
 395:firmware/STM32F10x_StdPeriph_Lib_V3.3.0/Libraries/STM32F10x_StdPeriph_Driver/src/stm32f10x_usart.c ****   {
 396:firmware/STM32F10x_StdPeriph_Lib_V3.3.0/Libraries/STM32F10x_StdPeriph_Driver/src/stm32f10x_usart.c ****     assert_param(IS_USART_123_PERIPH(USARTx));
 397:firmware/STM32F10x_StdPeriph_Lib_V3.3.0/Libraries/STM32F10x_StdPeriph_Driver/src/stm32f10x_usart.c ****   }   
 398:firmware/STM32F10x_StdPeriph_Lib_V3.3.0/Libraries/STM32F10x_StdPeriph_Driver/src/stm32f10x_usart.c ****   
 399:firmware/STM32F10x_StdPeriph_Lib_V3.3.0/Libraries/STM32F10x_StdPeriph_Driver/src/stm32f10x_usart.c ****   usartxbase = (uint32_t)USARTx;
 400:firmware/STM32F10x_StdPeriph_Lib_V3.3.0/Libraries/STM32F10x_StdPeriph_Driver/src/stm32f10x_usart.c **** 
 401:firmware/STM32F10x_StdPeriph_Lib_V3.3.0/Libraries/STM32F10x_StdPeriph_Driver/src/stm32f10x_usart.c ****   /* Get the USART register index */
 402:firmware/STM32F10x_StdPeriph_Lib_V3.3.0/Libraries/STM32F10x_StdPeriph_Driver/src/stm32f10x_usart.c ****   usartreg = (((uint8_t)USART_IT) >> 0x05);
 455              		.loc 1 402 0
 456 0000 CBB2     		uxtb	r3, r1
 386:firmware/STM32F10x_StdPeriph_Lib_V3.3.0/Libraries/STM32F10x_StdPeriph_Driver/src/stm32f10x_usart.c **** {
 457              		.loc 1 386 0
 458 0002 10B5     		push	{r4, lr}
 459              	.LCFI4:
 460              		.cfi_def_cfa_offset 8
 461              		.loc 1 402 0
 462 0004 5B09     		lsrs	r3, r3, #5
 463              	.LVL35:
 403:firmware/STM32F10x_StdPeriph_Lib_V3.3.0/Libraries/STM32F10x_StdPeriph_Driver/src/stm32f10x_usart.c **** 
 404:firmware/STM32F10x_StdPeriph_Lib_V3.3.0/Libraries/STM32F10x_StdPeriph_Driver/src/stm32f10x_usart.c ****   /* Get the interrupt position */
 405:firmware/STM32F10x_StdPeriph_Lib_V3.3.0/Libraries/STM32F10x_StdPeriph_Driver/src/stm32f10x_usart.c ****   itpos = USART_IT & IT_Mask;
 406:firmware/STM32F10x_StdPeriph_Lib_V3.3.0/Libraries/STM32F10x_StdPeriph_Driver/src/stm32f10x_usart.c ****   itmask = (((uint32_t)0x01) << itpos);
 464              		.loc 1 406 0
 465 0006 0124     		movs	r4, #1
 466              		.cfi_offset 14, -4
 467              		.cfi_offset 4, -8
 405:firmware/STM32F10x_StdPeriph_Lib_V3.3.0/Libraries/STM32F10x_StdPeriph_Driver/src/stm32f10x_usart.c ****   itpos = USART_IT & IT_Mask;
 468              		.loc 1 405 0
 469 0008 01F01F01 		and	r1, r1, #31
 470              	.LVL36:
 471              		.loc 1 406 0
 472 000c 14FA01F1 		lsls	r1, r4, r1
 473              	.LVL37:
 407:firmware/STM32F10x_StdPeriph_Lib_V3.3.0/Libraries/STM32F10x_StdPeriph_Driver/src/stm32f10x_usart.c ****     
 408:firmware/STM32F10x_StdPeriph_Lib_V3.3.0/Libraries/STM32F10x_StdPeriph_Driver/src/stm32f10x_usart.c ****   if (usartreg == 0x01) /* The IT is in CR1 register */
 474              		.loc 1 408 0
 475 0010 A342     		cmp	r3, r4
 476 0012 01D1     		bne	.L29
 409:firmware/STM32F10x_StdPeriph_Lib_V3.3.0/Libraries/STM32F10x_StdPeriph_Driver/src/stm32f10x_usart.c ****   {
 410:firmware/STM32F10x_StdPeriph_Lib_V3.3.0/Libraries/STM32F10x_StdPeriph_Driver/src/stm32f10x_usart.c ****     usartxbase += 0x0C;
 477              		.loc 1 410 0
 478 0014 0C30     		adds	r0, r0, #12
 479              	.LVL38:
 480 0016 04E0     		b	.L30
 481              	.LVL39:
 482              	.L29:
 411:firmware/STM32F10x_StdPeriph_Lib_V3.3.0/Libraries/STM32F10x_StdPeriph_Driver/src/stm32f10x_usart.c ****   }
 412:firmware/STM32F10x_StdPeriph_Lib_V3.3.0/Libraries/STM32F10x_StdPeriph_Driver/src/stm32f10x_usart.c ****   else if (usartreg == 0x02) /* The IT is in CR2 register */
 483              		.loc 1 412 0
 484 0018 022B     		cmp	r3, #2
 485 001a 01D1     		bne	.L31
 413:firmware/STM32F10x_StdPeriph_Lib_V3.3.0/Libraries/STM32F10x_StdPeriph_Driver/src/stm32f10x_usart.c ****   {
 414:firmware/STM32F10x_StdPeriph_Lib_V3.3.0/Libraries/STM32F10x_StdPeriph_Driver/src/stm32f10x_usart.c ****     usartxbase += 0x10;
 486              		.loc 1 414 0
 487 001c 1030     		adds	r0, r0, #16
 488              	.LVL40:
 489 001e 00E0     		b	.L30
 490              	.LVL41:
 491              	.L31:
 415:firmware/STM32F10x_StdPeriph_Lib_V3.3.0/Libraries/STM32F10x_StdPeriph_Driver/src/stm32f10x_usart.c ****   }
 416:firmware/STM32F10x_StdPeriph_Lib_V3.3.0/Libraries/STM32F10x_StdPeriph_Driver/src/stm32f10x_usart.c ****   else /* The IT is in CR3 register */
 417:firmware/STM32F10x_StdPeriph_Lib_V3.3.0/Libraries/STM32F10x_StdPeriph_Driver/src/stm32f10x_usart.c ****   {
 418:firmware/STM32F10x_StdPeriph_Lib_V3.3.0/Libraries/STM32F10x_StdPeriph_Driver/src/stm32f10x_usart.c ****     usartxbase += 0x14; 
 492              		.loc 1 418 0
 493 0020 1430     		adds	r0, r0, #20
 494              	.LVL42:
 495              	.L30:
 419:firmware/STM32F10x_StdPeriph_Lib_V3.3.0/Libraries/STM32F10x_StdPeriph_Driver/src/stm32f10x_usart.c ****   }
 420:firmware/STM32F10x_StdPeriph_Lib_V3.3.0/Libraries/STM32F10x_StdPeriph_Driver/src/stm32f10x_usart.c ****   if (NewState != DISABLE)
 496              		.loc 1 420 0
 497 0022 1AB1     		cbz	r2, .L32
 421:firmware/STM32F10x_StdPeriph_Lib_V3.3.0/Libraries/STM32F10x_StdPeriph_Driver/src/stm32f10x_usart.c ****   {
 422:firmware/STM32F10x_StdPeriph_Lib_V3.3.0/Libraries/STM32F10x_StdPeriph_Driver/src/stm32f10x_usart.c ****     *(__IO uint32_t*)usartxbase  |= itmask;
 498              		.loc 1 422 0
 499 0024 0368     		ldr	r3, [r0, #0]
 500              	.LVL43:
 501 0026 43EA0101 		orr	r1, r3, r1
 502              	.LVL44:
 503 002a 02E0     		b	.L34
 504              	.LVL45:
 505              	.L32:
 423:firmware/STM32F10x_StdPeriph_Lib_V3.3.0/Libraries/STM32F10x_StdPeriph_Driver/src/stm32f10x_usart.c ****   }
 424:firmware/STM32F10x_StdPeriph_Lib_V3.3.0/Libraries/STM32F10x_StdPeriph_Driver/src/stm32f10x_usart.c ****   else
 425:firmware/STM32F10x_StdPeriph_Lib_V3.3.0/Libraries/STM32F10x_StdPeriph_Driver/src/stm32f10x_usart.c ****   {
 426:firmware/STM32F10x_StdPeriph_Lib_V3.3.0/Libraries/STM32F10x_StdPeriph_Driver/src/stm32f10x_usart.c ****     *(__IO uint32_t*)usartxbase &= ~itmask;
 506              		.loc 1 426 0
 507 002c 0368     		ldr	r3, [r0, #0]
 508              	.LVL46:
 509 002e 23EA0101 		bic	r1, r3, r1
 510              	.LVL47:
 511              	.L34:
 512 0032 0160     		str	r1, [r0, #0]
 513 0034 10BD     		pop	{r4, pc}
 514              		.cfi_endproc
 515              	.LFE35:
 517              		.section	.text.USART_DMACmd,"ax",%progbits
 518              		.align	1
 519              		.global	USART_DMACmd
 520              		.thumb
 521              		.thumb_func
 523              	USART_DMACmd:
 524              	.LFB36:
 427:firmware/STM32F10x_StdPeriph_Lib_V3.3.0/Libraries/STM32F10x_StdPeriph_Driver/src/stm32f10x_usart.c ****   }
 428:firmware/STM32F10x_StdPeriph_Lib_V3.3.0/Libraries/STM32F10x_StdPeriph_Driver/src/stm32f10x_usart.c **** }
 429:firmware/STM32F10x_StdPeriph_Lib_V3.3.0/Libraries/STM32F10x_StdPeriph_Driver/src/stm32f10x_usart.c **** 
 430:firmware/STM32F10x_StdPeriph_Lib_V3.3.0/Libraries/STM32F10x_StdPeriph_Driver/src/stm32f10x_usart.c **** /**
 431:firmware/STM32F10x_StdPeriph_Lib_V3.3.0/Libraries/STM32F10x_StdPeriph_Driver/src/stm32f10x_usart.c ****   * @brief  Enables or disables the USARTs DMA interface.
 432:firmware/STM32F10x_StdPeriph_Lib_V3.3.0/Libraries/STM32F10x_StdPeriph_Driver/src/stm32f10x_usart.c ****   * @param  USARTx: Select the USART or the UART peripheral. 
 433:firmware/STM32F10x_StdPeriph_Lib_V3.3.0/Libraries/STM32F10x_StdPeriph_Driver/src/stm32f10x_usart.c ****   *   This parameter can be one of the following values:
 434:firmware/STM32F10x_StdPeriph_Lib_V3.3.0/Libraries/STM32F10x_StdPeriph_Driver/src/stm32f10x_usart.c ****   *   USART1, USART2, USART3 or UART4.  
 435:firmware/STM32F10x_StdPeriph_Lib_V3.3.0/Libraries/STM32F10x_StdPeriph_Driver/src/stm32f10x_usart.c ****   * @param  USART_DMAReq: specifies the DMA request.
 436:firmware/STM32F10x_StdPeriph_Lib_V3.3.0/Libraries/STM32F10x_StdPeriph_Driver/src/stm32f10x_usart.c ****   *   This parameter can be any combination of the following values:
 437:firmware/STM32F10x_StdPeriph_Lib_V3.3.0/Libraries/STM32F10x_StdPeriph_Driver/src/stm32f10x_usart.c ****   *     @arg USART_DMAReq_Tx: USART DMA transmit request
 438:firmware/STM32F10x_StdPeriph_Lib_V3.3.0/Libraries/STM32F10x_StdPeriph_Driver/src/stm32f10x_usart.c ****   *     @arg USART_DMAReq_Rx: USART DMA receive request
 439:firmware/STM32F10x_StdPeriph_Lib_V3.3.0/Libraries/STM32F10x_StdPeriph_Driver/src/stm32f10x_usart.c ****   * @param  NewState: new state of the DMA Request sources.
 440:firmware/STM32F10x_StdPeriph_Lib_V3.3.0/Libraries/STM32F10x_StdPeriph_Driver/src/stm32f10x_usart.c ****   *   This parameter can be: ENABLE or DISABLE.
 441:firmware/STM32F10x_StdPeriph_Lib_V3.3.0/Libraries/STM32F10x_StdPeriph_Driver/src/stm32f10x_usart.c ****   * @note The DMA mode is not available for UART5.  
 442:firmware/STM32F10x_StdPeriph_Lib_V3.3.0/Libraries/STM32F10x_StdPeriph_Driver/src/stm32f10x_usart.c ****   * @retval None
 443:firmware/STM32F10x_StdPeriph_Lib_V3.3.0/Libraries/STM32F10x_StdPeriph_Driver/src/stm32f10x_usart.c ****   */
 444:firmware/STM32F10x_StdPeriph_Lib_V3.3.0/Libraries/STM32F10x_StdPeriph_Driver/src/stm32f10x_usart.c **** void USART_DMACmd(USART_TypeDef* USARTx, uint16_t USART_DMAReq, FunctionalState NewState)
 445:firmware/STM32F10x_StdPeriph_Lib_V3.3.0/Libraries/STM32F10x_StdPeriph_Driver/src/stm32f10x_usart.c **** {
 525              		.loc 1 445 0
 526              		.cfi_startproc
 527              		@ args = 0, pretend = 0, frame = 0
 528              		@ frame_needed = 0, uses_anonymous_args = 0
 529              		@ link register save eliminated.
 530              	.LVL48:
 446:firmware/STM32F10x_StdPeriph_Lib_V3.3.0/Libraries/STM32F10x_StdPeriph_Driver/src/stm32f10x_usart.c ****   /* Check the parameters */
 447:firmware/STM32F10x_StdPeriph_Lib_V3.3.0/Libraries/STM32F10x_StdPeriph_Driver/src/stm32f10x_usart.c ****   assert_param(IS_USART_1234_PERIPH(USARTx));
 448:firmware/STM32F10x_StdPeriph_Lib_V3.3.0/Libraries/STM32F10x_StdPeriph_Driver/src/stm32f10x_usart.c ****   assert_param(IS_USART_DMAREQ(USART_DMAReq));  
 449:firmware/STM32F10x_StdPeriph_Lib_V3.3.0/Libraries/STM32F10x_StdPeriph_Driver/src/stm32f10x_usart.c ****   assert_param(IS_FUNCTIONAL_STATE(NewState)); 
 450:firmware/STM32F10x_StdPeriph_Lib_V3.3.0/Libraries/STM32F10x_StdPeriph_Driver/src/stm32f10x_usart.c ****   if (NewState != DISABLE)
 531              		.loc 1 450 0
 532 0000 1AB1     		cbz	r2, .L36
 451:firmware/STM32F10x_StdPeriph_Lib_V3.3.0/Libraries/STM32F10x_StdPeriph_Driver/src/stm32f10x_usart.c ****   {
 452:firmware/STM32F10x_StdPeriph_Lib_V3.3.0/Libraries/STM32F10x_StdPeriph_Driver/src/stm32f10x_usart.c ****     /* Enable the DMA transfer for selected requests by setting the DMAT and/or
 453:firmware/STM32F10x_StdPeriph_Lib_V3.3.0/Libraries/STM32F10x_StdPeriph_Driver/src/stm32f10x_usart.c ****        DMAR bits in the USART CR3 register */
 454:firmware/STM32F10x_StdPeriph_Lib_V3.3.0/Libraries/STM32F10x_StdPeriph_Driver/src/stm32f10x_usart.c ****     USARTx->CR3 |= USART_DMAReq;
 533              		.loc 1 454 0
 534 0002 838A     		ldrh	r3, [r0, #20]
 535 0004 9BB2     		uxth	r3, r3
 536 0006 1943     		orrs	r1, r1, r3
 537              	.LVL49:
 538 0008 03E0     		b	.L38
 539              	.LVL50:
 540              	.L36:
 455:firmware/STM32F10x_StdPeriph_Lib_V3.3.0/Libraries/STM32F10x_StdPeriph_Driver/src/stm32f10x_usart.c ****   }
 456:firmware/STM32F10x_StdPeriph_Lib_V3.3.0/Libraries/STM32F10x_StdPeriph_Driver/src/stm32f10x_usart.c ****   else
 457:firmware/STM32F10x_StdPeriph_Lib_V3.3.0/Libraries/STM32F10x_StdPeriph_Driver/src/stm32f10x_usart.c ****   {
 458:firmware/STM32F10x_StdPeriph_Lib_V3.3.0/Libraries/STM32F10x_StdPeriph_Driver/src/stm32f10x_usart.c ****     /* Disable the DMA transfer for selected requests by clearing the DMAT and/or
 459:firmware/STM32F10x_StdPeriph_Lib_V3.3.0/Libraries/STM32F10x_StdPeriph_Driver/src/stm32f10x_usart.c ****        DMAR bits in the USART CR3 register */
 460:firmware/STM32F10x_StdPeriph_Lib_V3.3.0/Libraries/STM32F10x_StdPeriph_Driver/src/stm32f10x_usart.c ****     USARTx->CR3 &= (uint16_t)~USART_DMAReq;
 541              		.loc 1 460 0
 542 000a 838A     		ldrh	r3, [r0, #20]
 543 000c 9BB2     		uxth	r3, r3
 544 000e 23EA0101 		bic	r1, r3, r1
 545              	.LVL51:
 546              	.L38:
 547 0012 8182     		strh	r1, [r0, #20]	@ movhi
 548 0014 7047     		bx	lr
 549              		.cfi_endproc
 550              	.LFE36:
 552              		.section	.text.USART_SetAddress,"ax",%progbits
 553              		.align	1
 554              		.global	USART_SetAddress
 555              		.thumb
 556              		.thumb_func
 558              	USART_SetAddress:
 559              	.LFB37:
 461:firmware/STM32F10x_StdPeriph_Lib_V3.3.0/Libraries/STM32F10x_StdPeriph_Driver/src/stm32f10x_usart.c ****   }
 462:firmware/STM32F10x_StdPeriph_Lib_V3.3.0/Libraries/STM32F10x_StdPeriph_Driver/src/stm32f10x_usart.c **** }
 463:firmware/STM32F10x_StdPeriph_Lib_V3.3.0/Libraries/STM32F10x_StdPeriph_Driver/src/stm32f10x_usart.c **** 
 464:firmware/STM32F10x_StdPeriph_Lib_V3.3.0/Libraries/STM32F10x_StdPeriph_Driver/src/stm32f10x_usart.c **** /**
 465:firmware/STM32F10x_StdPeriph_Lib_V3.3.0/Libraries/STM32F10x_StdPeriph_Driver/src/stm32f10x_usart.c ****   * @brief  Sets the address of the USART node.
 466:firmware/STM32F10x_StdPeriph_Lib_V3.3.0/Libraries/STM32F10x_StdPeriph_Driver/src/stm32f10x_usart.c ****   * @param  USARTx: Select the USART or the UART peripheral. 
 467:firmware/STM32F10x_StdPeriph_Lib_V3.3.0/Libraries/STM32F10x_StdPeriph_Driver/src/stm32f10x_usart.c ****   *   This parameter can be one of the following values:
 468:firmware/STM32F10x_StdPeriph_Lib_V3.3.0/Libraries/STM32F10x_StdPeriph_Driver/src/stm32f10x_usart.c ****   *   USART1, USART2, USART3, UART4 or UART5.
 469:firmware/STM32F10x_StdPeriph_Lib_V3.3.0/Libraries/STM32F10x_StdPeriph_Driver/src/stm32f10x_usart.c ****   * @param  USART_Address: Indicates the address of the USART node.
 470:firmware/STM32F10x_StdPeriph_Lib_V3.3.0/Libraries/STM32F10x_StdPeriph_Driver/src/stm32f10x_usart.c ****   * @retval None
 471:firmware/STM32F10x_StdPeriph_Lib_V3.3.0/Libraries/STM32F10x_StdPeriph_Driver/src/stm32f10x_usart.c ****   */
 472:firmware/STM32F10x_StdPeriph_Lib_V3.3.0/Libraries/STM32F10x_StdPeriph_Driver/src/stm32f10x_usart.c **** void USART_SetAddress(USART_TypeDef* USARTx, uint8_t USART_Address)
 473:firmware/STM32F10x_StdPeriph_Lib_V3.3.0/Libraries/STM32F10x_StdPeriph_Driver/src/stm32f10x_usart.c **** {
 560              		.loc 1 473 0
 561              		.cfi_startproc
 562              		@ args = 0, pretend = 0, frame = 0
 563              		@ frame_needed = 0, uses_anonymous_args = 0
 564              		@ link register save eliminated.
 565              	.LVL52:
 474:firmware/STM32F10x_StdPeriph_Lib_V3.3.0/Libraries/STM32F10x_StdPeriph_Driver/src/stm32f10x_usart.c ****   /* Check the parameters */
 475:firmware/STM32F10x_StdPeriph_Lib_V3.3.0/Libraries/STM32F10x_StdPeriph_Driver/src/stm32f10x_usart.c ****   assert_param(IS_USART_ALL_PERIPH(USARTx));
 476:firmware/STM32F10x_StdPeriph_Lib_V3.3.0/Libraries/STM32F10x_StdPeriph_Driver/src/stm32f10x_usart.c ****   assert_param(IS_USART_ADDRESS(USART_Address)); 
 477:firmware/STM32F10x_StdPeriph_Lib_V3.3.0/Libraries/STM32F10x_StdPeriph_Driver/src/stm32f10x_usart.c ****     
 478:firmware/STM32F10x_StdPeriph_Lib_V3.3.0/Libraries/STM32F10x_StdPeriph_Driver/src/stm32f10x_usart.c ****   /* Clear the USART address */
 479:firmware/STM32F10x_StdPeriph_Lib_V3.3.0/Libraries/STM32F10x_StdPeriph_Driver/src/stm32f10x_usart.c ****   USARTx->CR2 &= CR2_Address_Mask;
 566              		.loc 1 479 0
 567 0000 038A     		ldrh	r3, [r0, #16]
 568 0002 23F00F03 		bic	r3, r3, #15
 569 0006 1B04     		lsls	r3, r3, #16
 570 0008 1B0C     		lsrs	r3, r3, #16
 571 000a 0382     		strh	r3, [r0, #16]	@ movhi
 480:firmware/STM32F10x_StdPeriph_Lib_V3.3.0/Libraries/STM32F10x_StdPeriph_Driver/src/stm32f10x_usart.c ****   /* Set the USART address node */
 481:firmware/STM32F10x_StdPeriph_Lib_V3.3.0/Libraries/STM32F10x_StdPeriph_Driver/src/stm32f10x_usart.c ****   USARTx->CR2 |= USART_Address;
 572              		.loc 1 481 0
 573 000c 038A     		ldrh	r3, [r0, #16]
 574 000e 9BB2     		uxth	r3, r3
 575 0010 41EA0303 		orr	r3, r1, r3
 576 0014 0382     		strh	r3, [r0, #16]	@ movhi
 482:firmware/STM32F10x_StdPeriph_Lib_V3.3.0/Libraries/STM32F10x_StdPeriph_Driver/src/stm32f10x_usart.c **** }
 577              		.loc 1 482 0
 578 0016 7047     		bx	lr
 579              		.cfi_endproc
 580              	.LFE37:
 582              		.section	.text.USART_WakeUpConfig,"ax",%progbits
 583              		.align	1
 584              		.global	USART_WakeUpConfig
 585              		.thumb
 586              		.thumb_func
 588              	USART_WakeUpConfig:
 589              	.LFB38:
 483:firmware/STM32F10x_StdPeriph_Lib_V3.3.0/Libraries/STM32F10x_StdPeriph_Driver/src/stm32f10x_usart.c **** 
 484:firmware/STM32F10x_StdPeriph_Lib_V3.3.0/Libraries/STM32F10x_StdPeriph_Driver/src/stm32f10x_usart.c **** /**
 485:firmware/STM32F10x_StdPeriph_Lib_V3.3.0/Libraries/STM32F10x_StdPeriph_Driver/src/stm32f10x_usart.c ****   * @brief  Selects the USART WakeUp method.
 486:firmware/STM32F10x_StdPeriph_Lib_V3.3.0/Libraries/STM32F10x_StdPeriph_Driver/src/stm32f10x_usart.c ****   * @param  USARTx: Select the USART or the UART peripheral. 
 487:firmware/STM32F10x_StdPeriph_Lib_V3.3.0/Libraries/STM32F10x_StdPeriph_Driver/src/stm32f10x_usart.c ****   *   This parameter can be one of the following values:
 488:firmware/STM32F10x_StdPeriph_Lib_V3.3.0/Libraries/STM32F10x_StdPeriph_Driver/src/stm32f10x_usart.c ****   *   USART1, USART2, USART3, UART4 or UART5.
 489:firmware/STM32F10x_StdPeriph_Lib_V3.3.0/Libraries/STM32F10x_StdPeriph_Driver/src/stm32f10x_usart.c ****   * @param  USART_WakeUp: specifies the USART wakeup method.
 490:firmware/STM32F10x_StdPeriph_Lib_V3.3.0/Libraries/STM32F10x_StdPeriph_Driver/src/stm32f10x_usart.c ****   *   This parameter can be one of the following values:
 491:firmware/STM32F10x_StdPeriph_Lib_V3.3.0/Libraries/STM32F10x_StdPeriph_Driver/src/stm32f10x_usart.c ****   *     @arg USART_WakeUp_IdleLine: WakeUp by an idle line detection
 492:firmware/STM32F10x_StdPeriph_Lib_V3.3.0/Libraries/STM32F10x_StdPeriph_Driver/src/stm32f10x_usart.c ****   *     @arg USART_WakeUp_AddressMark: WakeUp by an address mark
 493:firmware/STM32F10x_StdPeriph_Lib_V3.3.0/Libraries/STM32F10x_StdPeriph_Driver/src/stm32f10x_usart.c ****   * @retval None
 494:firmware/STM32F10x_StdPeriph_Lib_V3.3.0/Libraries/STM32F10x_StdPeriph_Driver/src/stm32f10x_usart.c ****   */
 495:firmware/STM32F10x_StdPeriph_Lib_V3.3.0/Libraries/STM32F10x_StdPeriph_Driver/src/stm32f10x_usart.c **** void USART_WakeUpConfig(USART_TypeDef* USARTx, uint16_t USART_WakeUp)
 496:firmware/STM32F10x_StdPeriph_Lib_V3.3.0/Libraries/STM32F10x_StdPeriph_Driver/src/stm32f10x_usart.c **** {
 590              		.loc 1 496 0
 591              		.cfi_startproc
 592              		@ args = 0, pretend = 0, frame = 0
 593              		@ frame_needed = 0, uses_anonymous_args = 0
 594              		@ link register save eliminated.
 595              	.LVL53:
 497:firmware/STM32F10x_StdPeriph_Lib_V3.3.0/Libraries/STM32F10x_StdPeriph_Driver/src/stm32f10x_usart.c ****   /* Check the parameters */
 498:firmware/STM32F10x_StdPeriph_Lib_V3.3.0/Libraries/STM32F10x_StdPeriph_Driver/src/stm32f10x_usart.c ****   assert_param(IS_USART_ALL_PERIPH(USARTx));
 499:firmware/STM32F10x_StdPeriph_Lib_V3.3.0/Libraries/STM32F10x_StdPeriph_Driver/src/stm32f10x_usart.c ****   assert_param(IS_USART_WAKEUP(USART_WakeUp));
 500:firmware/STM32F10x_StdPeriph_Lib_V3.3.0/Libraries/STM32F10x_StdPeriph_Driver/src/stm32f10x_usart.c ****   
 501:firmware/STM32F10x_StdPeriph_Lib_V3.3.0/Libraries/STM32F10x_StdPeriph_Driver/src/stm32f10x_usart.c ****   USARTx->CR1 &= CR1_WAKE_Mask;
 596              		.loc 1 501 0
 597 0000 8389     		ldrh	r3, [r0, #12]
 598 0002 23F40063 		bic	r3, r3, #2048
 599 0006 1B04     		lsls	r3, r3, #16
 600 0008 1B0C     		lsrs	r3, r3, #16
 601 000a 8381     		strh	r3, [r0, #12]	@ movhi
 502:firmware/STM32F10x_StdPeriph_Lib_V3.3.0/Libraries/STM32F10x_StdPeriph_Driver/src/stm32f10x_usart.c ****   USARTx->CR1 |= USART_WakeUp;
 602              		.loc 1 502 0
 603 000c 8389     		ldrh	r3, [r0, #12]
 604 000e 9BB2     		uxth	r3, r3
 605 0010 41EA0303 		orr	r3, r1, r3
 606 0014 8381     		strh	r3, [r0, #12]	@ movhi
 503:firmware/STM32F10x_StdPeriph_Lib_V3.3.0/Libraries/STM32F10x_StdPeriph_Driver/src/stm32f10x_usart.c **** }
 607              		.loc 1 503 0
 608 0016 7047     		bx	lr
 609              		.cfi_endproc
 610              	.LFE38:
 612              		.section	.text.USART_ReceiverWakeUpCmd,"ax",%progbits
 613              		.align	1
 614              		.global	USART_ReceiverWakeUpCmd
 615              		.thumb
 616              		.thumb_func
 618              	USART_ReceiverWakeUpCmd:
 619              	.LFB39:
 504:firmware/STM32F10x_StdPeriph_Lib_V3.3.0/Libraries/STM32F10x_StdPeriph_Driver/src/stm32f10x_usart.c **** 
 505:firmware/STM32F10x_StdPeriph_Lib_V3.3.0/Libraries/STM32F10x_StdPeriph_Driver/src/stm32f10x_usart.c **** /**
 506:firmware/STM32F10x_StdPeriph_Lib_V3.3.0/Libraries/STM32F10x_StdPeriph_Driver/src/stm32f10x_usart.c ****   * @brief  Determines if the USART is in mute mode or not.
 507:firmware/STM32F10x_StdPeriph_Lib_V3.3.0/Libraries/STM32F10x_StdPeriph_Driver/src/stm32f10x_usart.c ****   * @param  USARTx: Select the USART or the UART peripheral. 
 508:firmware/STM32F10x_StdPeriph_Lib_V3.3.0/Libraries/STM32F10x_StdPeriph_Driver/src/stm32f10x_usart.c ****   *   This parameter can be one of the following values:
 509:firmware/STM32F10x_StdPeriph_Lib_V3.3.0/Libraries/STM32F10x_StdPeriph_Driver/src/stm32f10x_usart.c ****   *   USART1, USART2, USART3, UART4 or UART5.
 510:firmware/STM32F10x_StdPeriph_Lib_V3.3.0/Libraries/STM32F10x_StdPeriph_Driver/src/stm32f10x_usart.c ****   * @param  NewState: new state of the USART mute mode.
 511:firmware/STM32F10x_StdPeriph_Lib_V3.3.0/Libraries/STM32F10x_StdPeriph_Driver/src/stm32f10x_usart.c ****   *   This parameter can be: ENABLE or DISABLE.
 512:firmware/STM32F10x_StdPeriph_Lib_V3.3.0/Libraries/STM32F10x_StdPeriph_Driver/src/stm32f10x_usart.c ****   * @retval None
 513:firmware/STM32F10x_StdPeriph_Lib_V3.3.0/Libraries/STM32F10x_StdPeriph_Driver/src/stm32f10x_usart.c ****   */
 514:firmware/STM32F10x_StdPeriph_Lib_V3.3.0/Libraries/STM32F10x_StdPeriph_Driver/src/stm32f10x_usart.c **** void USART_ReceiverWakeUpCmd(USART_TypeDef* USARTx, FunctionalState NewState)
 515:firmware/STM32F10x_StdPeriph_Lib_V3.3.0/Libraries/STM32F10x_StdPeriph_Driver/src/stm32f10x_usart.c **** {
 620              		.loc 1 515 0
 621              		.cfi_startproc
 622              		@ args = 0, pretend = 0, frame = 0
 623              		@ frame_needed = 0, uses_anonymous_args = 0
 624              		@ link register save eliminated.
 625              	.LVL54:
 516:firmware/STM32F10x_StdPeriph_Lib_V3.3.0/Libraries/STM32F10x_StdPeriph_Driver/src/stm32f10x_usart.c ****   /* Check the parameters */
 517:firmware/STM32F10x_StdPeriph_Lib_V3.3.0/Libraries/STM32F10x_StdPeriph_Driver/src/stm32f10x_usart.c ****   assert_param(IS_USART_ALL_PERIPH(USARTx));
 518:firmware/STM32F10x_StdPeriph_Lib_V3.3.0/Libraries/STM32F10x_StdPeriph_Driver/src/stm32f10x_usart.c ****   assert_param(IS_FUNCTIONAL_STATE(NewState)); 
 519:firmware/STM32F10x_StdPeriph_Lib_V3.3.0/Libraries/STM32F10x_StdPeriph_Driver/src/stm32f10x_usart.c ****   
 520:firmware/STM32F10x_StdPeriph_Lib_V3.3.0/Libraries/STM32F10x_StdPeriph_Driver/src/stm32f10x_usart.c ****   if (NewState != DISABLE)
 626              		.loc 1 520 0
 627 0000 21B1     		cbz	r1, .L42
 521:firmware/STM32F10x_StdPeriph_Lib_V3.3.0/Libraries/STM32F10x_StdPeriph_Driver/src/stm32f10x_usart.c ****   {
 522:firmware/STM32F10x_StdPeriph_Lib_V3.3.0/Libraries/STM32F10x_StdPeriph_Driver/src/stm32f10x_usart.c ****     /* Enable the USART mute mode  by setting the RWU bit in the CR1 register */
 523:firmware/STM32F10x_StdPeriph_Lib_V3.3.0/Libraries/STM32F10x_StdPeriph_Driver/src/stm32f10x_usart.c ****     USARTx->CR1 |= CR1_RWU_Set;
 628              		.loc 1 523 0
 629 0002 8389     		ldrh	r3, [r0, #12]
 630 0004 9BB2     		uxth	r3, r3
 631 0006 43F00203 		orr	r3, r3, #2
 632 000a 04E0     		b	.L44
 633              	.L42:
 524:firmware/STM32F10x_StdPeriph_Lib_V3.3.0/Libraries/STM32F10x_StdPeriph_Driver/src/stm32f10x_usart.c ****   }
 525:firmware/STM32F10x_StdPeriph_Lib_V3.3.0/Libraries/STM32F10x_StdPeriph_Driver/src/stm32f10x_usart.c ****   else
 526:firmware/STM32F10x_StdPeriph_Lib_V3.3.0/Libraries/STM32F10x_StdPeriph_Driver/src/stm32f10x_usart.c ****   {
 527:firmware/STM32F10x_StdPeriph_Lib_V3.3.0/Libraries/STM32F10x_StdPeriph_Driver/src/stm32f10x_usart.c ****     /* Disable the USART mute mode by clearing the RWU bit in the CR1 register */
 528:firmware/STM32F10x_StdPeriph_Lib_V3.3.0/Libraries/STM32F10x_StdPeriph_Driver/src/stm32f10x_usart.c ****     USARTx->CR1 &= CR1_RWU_Reset;
 634              		.loc 1 528 0
 635 000c 8389     		ldrh	r3, [r0, #12]
 636 000e 23F00203 		bic	r3, r3, #2
 637 0012 1B04     		lsls	r3, r3, #16
 638 0014 1B0C     		lsrs	r3, r3, #16
 639              	.L44:
 640 0016 8381     		strh	r3, [r0, #12]	@ movhi
 641 0018 7047     		bx	lr
 642              		.cfi_endproc
 643              	.LFE39:
 645              		.section	.text.USART_LINBreakDetectLengthConfig,"ax",%progbits
 646              		.align	1
 647              		.global	USART_LINBreakDetectLengthConfig
 648              		.thumb
 649              		.thumb_func
 651              	USART_LINBreakDetectLengthConfig:
 652              	.LFB40:
 529:firmware/STM32F10x_StdPeriph_Lib_V3.3.0/Libraries/STM32F10x_StdPeriph_Driver/src/stm32f10x_usart.c ****   }
 530:firmware/STM32F10x_StdPeriph_Lib_V3.3.0/Libraries/STM32F10x_StdPeriph_Driver/src/stm32f10x_usart.c **** }
 531:firmware/STM32F10x_StdPeriph_Lib_V3.3.0/Libraries/STM32F10x_StdPeriph_Driver/src/stm32f10x_usart.c **** 
 532:firmware/STM32F10x_StdPeriph_Lib_V3.3.0/Libraries/STM32F10x_StdPeriph_Driver/src/stm32f10x_usart.c **** /**
 533:firmware/STM32F10x_StdPeriph_Lib_V3.3.0/Libraries/STM32F10x_StdPeriph_Driver/src/stm32f10x_usart.c ****   * @brief  Sets the USART LIN Break detection length.
 534:firmware/STM32F10x_StdPeriph_Lib_V3.3.0/Libraries/STM32F10x_StdPeriph_Driver/src/stm32f10x_usart.c ****   * @param  USARTx: Select the USART or the UART peripheral. 
 535:firmware/STM32F10x_StdPeriph_Lib_V3.3.0/Libraries/STM32F10x_StdPeriph_Driver/src/stm32f10x_usart.c ****   *   This parameter can be one of the following values:
 536:firmware/STM32F10x_StdPeriph_Lib_V3.3.0/Libraries/STM32F10x_StdPeriph_Driver/src/stm32f10x_usart.c ****   *   USART1, USART2, USART3, UART4 or UART5.
 537:firmware/STM32F10x_StdPeriph_Lib_V3.3.0/Libraries/STM32F10x_StdPeriph_Driver/src/stm32f10x_usart.c ****   * @param  USART_LINBreakDetectLength: specifies the LIN break detection length.
 538:firmware/STM32F10x_StdPeriph_Lib_V3.3.0/Libraries/STM32F10x_StdPeriph_Driver/src/stm32f10x_usart.c ****   *   This parameter can be one of the following values:
 539:firmware/STM32F10x_StdPeriph_Lib_V3.3.0/Libraries/STM32F10x_StdPeriph_Driver/src/stm32f10x_usart.c ****   *     @arg USART_LINBreakDetectLength_10b: 10-bit break detection
 540:firmware/STM32F10x_StdPeriph_Lib_V3.3.0/Libraries/STM32F10x_StdPeriph_Driver/src/stm32f10x_usart.c ****   *     @arg USART_LINBreakDetectLength_11b: 11-bit break detection
 541:firmware/STM32F10x_StdPeriph_Lib_V3.3.0/Libraries/STM32F10x_StdPeriph_Driver/src/stm32f10x_usart.c ****   * @retval None
 542:firmware/STM32F10x_StdPeriph_Lib_V3.3.0/Libraries/STM32F10x_StdPeriph_Driver/src/stm32f10x_usart.c ****   */
 543:firmware/STM32F10x_StdPeriph_Lib_V3.3.0/Libraries/STM32F10x_StdPeriph_Driver/src/stm32f10x_usart.c **** void USART_LINBreakDetectLengthConfig(USART_TypeDef* USARTx, uint16_t USART_LINBreakDetectLength)
 544:firmware/STM32F10x_StdPeriph_Lib_V3.3.0/Libraries/STM32F10x_StdPeriph_Driver/src/stm32f10x_usart.c **** {
 653              		.loc 1 544 0
 654              		.cfi_startproc
 655              		@ args = 0, pretend = 0, frame = 0
 656              		@ frame_needed = 0, uses_anonymous_args = 0
 657              		@ link register save eliminated.
 658              	.LVL55:
 545:firmware/STM32F10x_StdPeriph_Lib_V3.3.0/Libraries/STM32F10x_StdPeriph_Driver/src/stm32f10x_usart.c ****   /* Check the parameters */
 546:firmware/STM32F10x_StdPeriph_Lib_V3.3.0/Libraries/STM32F10x_StdPeriph_Driver/src/stm32f10x_usart.c ****   assert_param(IS_USART_ALL_PERIPH(USARTx));
 547:firmware/STM32F10x_StdPeriph_Lib_V3.3.0/Libraries/STM32F10x_StdPeriph_Driver/src/stm32f10x_usart.c ****   assert_param(IS_USART_LIN_BREAK_DETECT_LENGTH(USART_LINBreakDetectLength));
 548:firmware/STM32F10x_StdPeriph_Lib_V3.3.0/Libraries/STM32F10x_StdPeriph_Driver/src/stm32f10x_usart.c ****   
 549:firmware/STM32F10x_StdPeriph_Lib_V3.3.0/Libraries/STM32F10x_StdPeriph_Driver/src/stm32f10x_usart.c ****   USARTx->CR2 &= CR2_LBDL_Mask;
 659              		.loc 1 549 0
 660 0000 038A     		ldrh	r3, [r0, #16]
 661 0002 23F02003 		bic	r3, r3, #32
 662 0006 1B04     		lsls	r3, r3, #16
 663 0008 1B0C     		lsrs	r3, r3, #16
 664 000a 0382     		strh	r3, [r0, #16]	@ movhi
 550:firmware/STM32F10x_StdPeriph_Lib_V3.3.0/Libraries/STM32F10x_StdPeriph_Driver/src/stm32f10x_usart.c ****   USARTx->CR2 |= USART_LINBreakDetectLength;  
 665              		.loc 1 550 0
 666 000c 038A     		ldrh	r3, [r0, #16]
 667 000e 9BB2     		uxth	r3, r3
 668 0010 41EA0303 		orr	r3, r1, r3
 669 0014 0382     		strh	r3, [r0, #16]	@ movhi
 551:firmware/STM32F10x_StdPeriph_Lib_V3.3.0/Libraries/STM32F10x_StdPeriph_Driver/src/stm32f10x_usart.c **** }
 670              		.loc 1 551 0
 671 0016 7047     		bx	lr
 672              		.cfi_endproc
 673              	.LFE40:
 675              		.section	.text.USART_LINCmd,"ax",%progbits
 676              		.align	1
 677              		.global	USART_LINCmd
 678              		.thumb
 679              		.thumb_func
 681              	USART_LINCmd:
 682              	.LFB41:
 552:firmware/STM32F10x_StdPeriph_Lib_V3.3.0/Libraries/STM32F10x_StdPeriph_Driver/src/stm32f10x_usart.c **** 
 553:firmware/STM32F10x_StdPeriph_Lib_V3.3.0/Libraries/STM32F10x_StdPeriph_Driver/src/stm32f10x_usart.c **** /**
 554:firmware/STM32F10x_StdPeriph_Lib_V3.3.0/Libraries/STM32F10x_StdPeriph_Driver/src/stm32f10x_usart.c ****   * @brief  Enables or disables the USARTs LIN mode.
 555:firmware/STM32F10x_StdPeriph_Lib_V3.3.0/Libraries/STM32F10x_StdPeriph_Driver/src/stm32f10x_usart.c ****   * @param  USARTx: Select the USART or the UART peripheral. 
 556:firmware/STM32F10x_StdPeriph_Lib_V3.3.0/Libraries/STM32F10x_StdPeriph_Driver/src/stm32f10x_usart.c ****   *   This parameter can be one of the following values:
 557:firmware/STM32F10x_StdPeriph_Lib_V3.3.0/Libraries/STM32F10x_StdPeriph_Driver/src/stm32f10x_usart.c ****   *   USART1, USART2, USART3, UART4 or UART5.
 558:firmware/STM32F10x_StdPeriph_Lib_V3.3.0/Libraries/STM32F10x_StdPeriph_Driver/src/stm32f10x_usart.c ****   * @param  NewState: new state of the USART LIN mode.
 559:firmware/STM32F10x_StdPeriph_Lib_V3.3.0/Libraries/STM32F10x_StdPeriph_Driver/src/stm32f10x_usart.c ****   *   This parameter can be: ENABLE or DISABLE.
 560:firmware/STM32F10x_StdPeriph_Lib_V3.3.0/Libraries/STM32F10x_StdPeriph_Driver/src/stm32f10x_usart.c ****   * @retval None
 561:firmware/STM32F10x_StdPeriph_Lib_V3.3.0/Libraries/STM32F10x_StdPeriph_Driver/src/stm32f10x_usart.c ****   */
 562:firmware/STM32F10x_StdPeriph_Lib_V3.3.0/Libraries/STM32F10x_StdPeriph_Driver/src/stm32f10x_usart.c **** void USART_LINCmd(USART_TypeDef* USARTx, FunctionalState NewState)
 563:firmware/STM32F10x_StdPeriph_Lib_V3.3.0/Libraries/STM32F10x_StdPeriph_Driver/src/stm32f10x_usart.c **** {
 683              		.loc 1 563 0
 684              		.cfi_startproc
 685              		@ args = 0, pretend = 0, frame = 0
 686              		@ frame_needed = 0, uses_anonymous_args = 0
 687              		@ link register save eliminated.
 688              	.LVL56:
 564:firmware/STM32F10x_StdPeriph_Lib_V3.3.0/Libraries/STM32F10x_StdPeriph_Driver/src/stm32f10x_usart.c ****   /* Check the parameters */
 565:firmware/STM32F10x_StdPeriph_Lib_V3.3.0/Libraries/STM32F10x_StdPeriph_Driver/src/stm32f10x_usart.c ****   assert_param(IS_USART_ALL_PERIPH(USARTx));
 566:firmware/STM32F10x_StdPeriph_Lib_V3.3.0/Libraries/STM32F10x_StdPeriph_Driver/src/stm32f10x_usart.c ****   assert_param(IS_FUNCTIONAL_STATE(NewState));
 567:firmware/STM32F10x_StdPeriph_Lib_V3.3.0/Libraries/STM32F10x_StdPeriph_Driver/src/stm32f10x_usart.c ****   
 568:firmware/STM32F10x_StdPeriph_Lib_V3.3.0/Libraries/STM32F10x_StdPeriph_Driver/src/stm32f10x_usart.c ****   if (NewState != DISABLE)
 689              		.loc 1 568 0
 690 0000 21B1     		cbz	r1, .L47
 569:firmware/STM32F10x_StdPeriph_Lib_V3.3.0/Libraries/STM32F10x_StdPeriph_Driver/src/stm32f10x_usart.c ****   {
 570:firmware/STM32F10x_StdPeriph_Lib_V3.3.0/Libraries/STM32F10x_StdPeriph_Driver/src/stm32f10x_usart.c ****     /* Enable the LIN mode by setting the LINEN bit in the CR2 register */
 571:firmware/STM32F10x_StdPeriph_Lib_V3.3.0/Libraries/STM32F10x_StdPeriph_Driver/src/stm32f10x_usart.c ****     USARTx->CR2 |= CR2_LINEN_Set;
 691              		.loc 1 571 0
 692 0002 038A     		ldrh	r3, [r0, #16]
 693 0004 9BB2     		uxth	r3, r3
 694 0006 43F48043 		orr	r3, r3, #16384
 695 000a 04E0     		b	.L49
 696              	.L47:
 572:firmware/STM32F10x_StdPeriph_Lib_V3.3.0/Libraries/STM32F10x_StdPeriph_Driver/src/stm32f10x_usart.c ****   }
 573:firmware/STM32F10x_StdPeriph_Lib_V3.3.0/Libraries/STM32F10x_StdPeriph_Driver/src/stm32f10x_usart.c ****   else
 574:firmware/STM32F10x_StdPeriph_Lib_V3.3.0/Libraries/STM32F10x_StdPeriph_Driver/src/stm32f10x_usart.c ****   {
 575:firmware/STM32F10x_StdPeriph_Lib_V3.3.0/Libraries/STM32F10x_StdPeriph_Driver/src/stm32f10x_usart.c ****     /* Disable the LIN mode by clearing the LINEN bit in the CR2 register */
 576:firmware/STM32F10x_StdPeriph_Lib_V3.3.0/Libraries/STM32F10x_StdPeriph_Driver/src/stm32f10x_usart.c ****     USARTx->CR2 &= CR2_LINEN_Reset;
 697              		.loc 1 576 0
 698 000c 038A     		ldrh	r3, [r0, #16]
 699 000e 23F48043 		bic	r3, r3, #16384
 700 0012 1B04     		lsls	r3, r3, #16
 701 0014 1B0C     		lsrs	r3, r3, #16
 702              	.L49:
 703 0016 0382     		strh	r3, [r0, #16]	@ movhi
 704 0018 7047     		bx	lr
 705              		.cfi_endproc
 706              	.LFE41:
 708              		.section	.text.USART_SendData,"ax",%progbits
 709              		.align	1
 710              		.global	USART_SendData
 711              		.thumb
 712              		.thumb_func
 714              	USART_SendData:
 715              	.LFB42:
 577:firmware/STM32F10x_StdPeriph_Lib_V3.3.0/Libraries/STM32F10x_StdPeriph_Driver/src/stm32f10x_usart.c ****   }
 578:firmware/STM32F10x_StdPeriph_Lib_V3.3.0/Libraries/STM32F10x_StdPeriph_Driver/src/stm32f10x_usart.c **** }
 579:firmware/STM32F10x_StdPeriph_Lib_V3.3.0/Libraries/STM32F10x_StdPeriph_Driver/src/stm32f10x_usart.c **** 
 580:firmware/STM32F10x_StdPeriph_Lib_V3.3.0/Libraries/STM32F10x_StdPeriph_Driver/src/stm32f10x_usart.c **** /**
 581:firmware/STM32F10x_StdPeriph_Lib_V3.3.0/Libraries/STM32F10x_StdPeriph_Driver/src/stm32f10x_usart.c ****   * @brief  Transmits single data through the USARTx peripheral.
 582:firmware/STM32F10x_StdPeriph_Lib_V3.3.0/Libraries/STM32F10x_StdPeriph_Driver/src/stm32f10x_usart.c ****   * @param  USARTx: Select the USART or the UART peripheral. 
 583:firmware/STM32F10x_StdPeriph_Lib_V3.3.0/Libraries/STM32F10x_StdPeriph_Driver/src/stm32f10x_usart.c ****   *   This parameter can be one of the following values:
 584:firmware/STM32F10x_StdPeriph_Lib_V3.3.0/Libraries/STM32F10x_StdPeriph_Driver/src/stm32f10x_usart.c ****   *   USART1, USART2, USART3, UART4 or UART5.
 585:firmware/STM32F10x_StdPeriph_Lib_V3.3.0/Libraries/STM32F10x_StdPeriph_Driver/src/stm32f10x_usart.c ****   * @param  Data: the data to transmit.
 586:firmware/STM32F10x_StdPeriph_Lib_V3.3.0/Libraries/STM32F10x_StdPeriph_Driver/src/stm32f10x_usart.c ****   * @retval None
 587:firmware/STM32F10x_StdPeriph_Lib_V3.3.0/Libraries/STM32F10x_StdPeriph_Driver/src/stm32f10x_usart.c ****   */
 588:firmware/STM32F10x_StdPeriph_Lib_V3.3.0/Libraries/STM32F10x_StdPeriph_Driver/src/stm32f10x_usart.c **** void USART_SendData(USART_TypeDef* USARTx, uint16_t Data)
 589:firmware/STM32F10x_StdPeriph_Lib_V3.3.0/Libraries/STM32F10x_StdPeriph_Driver/src/stm32f10x_usart.c **** {
 716              		.loc 1 589 0
 717              		.cfi_startproc
 718              		@ args = 0, pretend = 0, frame = 0
 719              		@ frame_needed = 0, uses_anonymous_args = 0
 720              		@ link register save eliminated.
 721              	.LVL57:
 590:firmware/STM32F10x_StdPeriph_Lib_V3.3.0/Libraries/STM32F10x_StdPeriph_Driver/src/stm32f10x_usart.c ****   /* Check the parameters */
 591:firmware/STM32F10x_StdPeriph_Lib_V3.3.0/Libraries/STM32F10x_StdPeriph_Driver/src/stm32f10x_usart.c ****   assert_param(IS_USART_ALL_PERIPH(USARTx));
 592:firmware/STM32F10x_StdPeriph_Lib_V3.3.0/Libraries/STM32F10x_StdPeriph_Driver/src/stm32f10x_usart.c ****   assert_param(IS_USART_DATA(Data)); 
 593:firmware/STM32F10x_StdPeriph_Lib_V3.3.0/Libraries/STM32F10x_StdPeriph_Driver/src/stm32f10x_usart.c ****     
 594:firmware/STM32F10x_StdPeriph_Lib_V3.3.0/Libraries/STM32F10x_StdPeriph_Driver/src/stm32f10x_usart.c ****   /* Transmit Data */
 595:firmware/STM32F10x_StdPeriph_Lib_V3.3.0/Libraries/STM32F10x_StdPeriph_Driver/src/stm32f10x_usart.c ****   USARTx->DR = (Data & (uint16_t)0x01FF);
 722              		.loc 1 595 0
 723 0000 C905     		lsls	r1, r1, #23
 724              	.LVL58:
 725 0002 C90D     		lsrs	r1, r1, #23
 726 0004 8180     		strh	r1, [r0, #4]	@ movhi
 596:firmware/STM32F10x_StdPeriph_Lib_V3.3.0/Libraries/STM32F10x_StdPeriph_Driver/src/stm32f10x_usart.c **** }
 727              		.loc 1 596 0
 728 0006 7047     		bx	lr
 729              		.cfi_endproc
 730              	.LFE42:
 732              		.section	.text.USART_ReceiveData,"ax",%progbits
 733              		.align	1
 734              		.global	USART_ReceiveData
 735              		.thumb
 736              		.thumb_func
 738              	USART_ReceiveData:
 739              	.LFB43:
 597:firmware/STM32F10x_StdPeriph_Lib_V3.3.0/Libraries/STM32F10x_StdPeriph_Driver/src/stm32f10x_usart.c **** 
 598:firmware/STM32F10x_StdPeriph_Lib_V3.3.0/Libraries/STM32F10x_StdPeriph_Driver/src/stm32f10x_usart.c **** /**
 599:firmware/STM32F10x_StdPeriph_Lib_V3.3.0/Libraries/STM32F10x_StdPeriph_Driver/src/stm32f10x_usart.c ****   * @brief  Returns the most recent received data by the USARTx peripheral.
 600:firmware/STM32F10x_StdPeriph_Lib_V3.3.0/Libraries/STM32F10x_StdPeriph_Driver/src/stm32f10x_usart.c ****   * @param  USARTx: Select the USART or the UART peripheral. 
 601:firmware/STM32F10x_StdPeriph_Lib_V3.3.0/Libraries/STM32F10x_StdPeriph_Driver/src/stm32f10x_usart.c ****   *   This parameter can be one of the following values:
 602:firmware/STM32F10x_StdPeriph_Lib_V3.3.0/Libraries/STM32F10x_StdPeriph_Driver/src/stm32f10x_usart.c ****   *   USART1, USART2, USART3, UART4 or UART5.
 603:firmware/STM32F10x_StdPeriph_Lib_V3.3.0/Libraries/STM32F10x_StdPeriph_Driver/src/stm32f10x_usart.c ****   * @retval The received data.
 604:firmware/STM32F10x_StdPeriph_Lib_V3.3.0/Libraries/STM32F10x_StdPeriph_Driver/src/stm32f10x_usart.c ****   */
 605:firmware/STM32F10x_StdPeriph_Lib_V3.3.0/Libraries/STM32F10x_StdPeriph_Driver/src/stm32f10x_usart.c **** uint16_t USART_ReceiveData(USART_TypeDef* USARTx)
 606:firmware/STM32F10x_StdPeriph_Lib_V3.3.0/Libraries/STM32F10x_StdPeriph_Driver/src/stm32f10x_usart.c **** {
 740              		.loc 1 606 0
 741              		.cfi_startproc
 742              		@ args = 0, pretend = 0, frame = 0
 743              		@ frame_needed = 0, uses_anonymous_args = 0
 744              		@ link register save eliminated.
 745              	.LVL59:
 607:firmware/STM32F10x_StdPeriph_Lib_V3.3.0/Libraries/STM32F10x_StdPeriph_Driver/src/stm32f10x_usart.c ****   /* Check the parameters */
 608:firmware/STM32F10x_StdPeriph_Lib_V3.3.0/Libraries/STM32F10x_StdPeriph_Driver/src/stm32f10x_usart.c ****   assert_param(IS_USART_ALL_PERIPH(USARTx));
 609:firmware/STM32F10x_StdPeriph_Lib_V3.3.0/Libraries/STM32F10x_StdPeriph_Driver/src/stm32f10x_usart.c ****   
 610:firmware/STM32F10x_StdPeriph_Lib_V3.3.0/Libraries/STM32F10x_StdPeriph_Driver/src/stm32f10x_usart.c ****   /* Receive Data */
 611:firmware/STM32F10x_StdPeriph_Lib_V3.3.0/Libraries/STM32F10x_StdPeriph_Driver/src/stm32f10x_usart.c ****   return (uint16_t)(USARTx->DR & (uint16_t)0x01FF);
 746              		.loc 1 611 0
 747 0000 8088     		ldrh	r0, [r0, #4]
 748              	.LVL60:
 612:firmware/STM32F10x_StdPeriph_Lib_V3.3.0/Libraries/STM32F10x_StdPeriph_Driver/src/stm32f10x_usart.c **** }
 749              		.loc 1 612 0
 750 0002 C005     		lsls	r0, r0, #23
 751 0004 C00D     		lsrs	r0, r0, #23
 752 0006 7047     		bx	lr
 753              		.cfi_endproc
 754              	.LFE43:
 756              		.section	.text.USART_SendBreak,"ax",%progbits
 757              		.align	1
 758              		.global	USART_SendBreak
 759              		.thumb
 760              		.thumb_func
 762              	USART_SendBreak:
 763              	.LFB44:
 613:firmware/STM32F10x_StdPeriph_Lib_V3.3.0/Libraries/STM32F10x_StdPeriph_Driver/src/stm32f10x_usart.c **** 
 614:firmware/STM32F10x_StdPeriph_Lib_V3.3.0/Libraries/STM32F10x_StdPeriph_Driver/src/stm32f10x_usart.c **** /**
 615:firmware/STM32F10x_StdPeriph_Lib_V3.3.0/Libraries/STM32F10x_StdPeriph_Driver/src/stm32f10x_usart.c ****   * @brief  Transmits break characters.
 616:firmware/STM32F10x_StdPeriph_Lib_V3.3.0/Libraries/STM32F10x_StdPeriph_Driver/src/stm32f10x_usart.c ****   * @param  USARTx: Select the USART or the UART peripheral. 
 617:firmware/STM32F10x_StdPeriph_Lib_V3.3.0/Libraries/STM32F10x_StdPeriph_Driver/src/stm32f10x_usart.c ****   *   This parameter can be one of the following values:
 618:firmware/STM32F10x_StdPeriph_Lib_V3.3.0/Libraries/STM32F10x_StdPeriph_Driver/src/stm32f10x_usart.c ****   *   USART1, USART2, USART3, UART4 or UART5.
 619:firmware/STM32F10x_StdPeriph_Lib_V3.3.0/Libraries/STM32F10x_StdPeriph_Driver/src/stm32f10x_usart.c ****   * @retval None
 620:firmware/STM32F10x_StdPeriph_Lib_V3.3.0/Libraries/STM32F10x_StdPeriph_Driver/src/stm32f10x_usart.c ****   */
 621:firmware/STM32F10x_StdPeriph_Lib_V3.3.0/Libraries/STM32F10x_StdPeriph_Driver/src/stm32f10x_usart.c **** void USART_SendBreak(USART_TypeDef* USARTx)
 622:firmware/STM32F10x_StdPeriph_Lib_V3.3.0/Libraries/STM32F10x_StdPeriph_Driver/src/stm32f10x_usart.c **** {
 764              		.loc 1 622 0
 765              		.cfi_startproc
 766              		@ args = 0, pretend = 0, frame = 0
 767              		@ frame_needed = 0, uses_anonymous_args = 0
 768              		@ link register save eliminated.
 769              	.LVL61:
 623:firmware/STM32F10x_StdPeriph_Lib_V3.3.0/Libraries/STM32F10x_StdPeriph_Driver/src/stm32f10x_usart.c ****   /* Check the parameters */
 624:firmware/STM32F10x_StdPeriph_Lib_V3.3.0/Libraries/STM32F10x_StdPeriph_Driver/src/stm32f10x_usart.c ****   assert_param(IS_USART_ALL_PERIPH(USARTx));
 625:firmware/STM32F10x_StdPeriph_Lib_V3.3.0/Libraries/STM32F10x_StdPeriph_Driver/src/stm32f10x_usart.c ****   
 626:firmware/STM32F10x_StdPeriph_Lib_V3.3.0/Libraries/STM32F10x_StdPeriph_Driver/src/stm32f10x_usart.c ****   /* Send break characters */
 627:firmware/STM32F10x_StdPeriph_Lib_V3.3.0/Libraries/STM32F10x_StdPeriph_Driver/src/stm32f10x_usart.c ****   USARTx->CR1 |= CR1_SBK_Set;
 770              		.loc 1 627 0
 771 0000 8389     		ldrh	r3, [r0, #12]
 772 0002 9BB2     		uxth	r3, r3
 773 0004 43F00103 		orr	r3, r3, #1
 774 0008 8381     		strh	r3, [r0, #12]	@ movhi
 628:firmware/STM32F10x_StdPeriph_Lib_V3.3.0/Libraries/STM32F10x_StdPeriph_Driver/src/stm32f10x_usart.c **** }
 775              		.loc 1 628 0
 776 000a 7047     		bx	lr
 777              		.cfi_endproc
 778              	.LFE44:
 780              		.section	.text.USART_SetGuardTime,"ax",%progbits
 781              		.align	1
 782              		.global	USART_SetGuardTime
 783              		.thumb
 784              		.thumb_func
 786              	USART_SetGuardTime:
 787              	.LFB45:
 629:firmware/STM32F10x_StdPeriph_Lib_V3.3.0/Libraries/STM32F10x_StdPeriph_Driver/src/stm32f10x_usart.c **** 
 630:firmware/STM32F10x_StdPeriph_Lib_V3.3.0/Libraries/STM32F10x_StdPeriph_Driver/src/stm32f10x_usart.c **** /**
 631:firmware/STM32F10x_StdPeriph_Lib_V3.3.0/Libraries/STM32F10x_StdPeriph_Driver/src/stm32f10x_usart.c ****   * @brief  Sets the specified USART guard time.
 632:firmware/STM32F10x_StdPeriph_Lib_V3.3.0/Libraries/STM32F10x_StdPeriph_Driver/src/stm32f10x_usart.c ****   * @param  USARTx: where x can be 1, 2 or 3 to select the USART peripheral.
 633:firmware/STM32F10x_StdPeriph_Lib_V3.3.0/Libraries/STM32F10x_StdPeriph_Driver/src/stm32f10x_usart.c ****   * @param  USART_GuardTime: specifies the guard time.
 634:firmware/STM32F10x_StdPeriph_Lib_V3.3.0/Libraries/STM32F10x_StdPeriph_Driver/src/stm32f10x_usart.c ****   * @note The guard time bits are not available for UART4 and UART5.   
 635:firmware/STM32F10x_StdPeriph_Lib_V3.3.0/Libraries/STM32F10x_StdPeriph_Driver/src/stm32f10x_usart.c ****   * @retval None
 636:firmware/STM32F10x_StdPeriph_Lib_V3.3.0/Libraries/STM32F10x_StdPeriph_Driver/src/stm32f10x_usart.c ****   */
 637:firmware/STM32F10x_StdPeriph_Lib_V3.3.0/Libraries/STM32F10x_StdPeriph_Driver/src/stm32f10x_usart.c **** void USART_SetGuardTime(USART_TypeDef* USARTx, uint8_t USART_GuardTime)
 638:firmware/STM32F10x_StdPeriph_Lib_V3.3.0/Libraries/STM32F10x_StdPeriph_Driver/src/stm32f10x_usart.c **** {    
 788              		.loc 1 638 0
 789              		.cfi_startproc
 790              		@ args = 0, pretend = 0, frame = 0
 791              		@ frame_needed = 0, uses_anonymous_args = 0
 792              		@ link register save eliminated.
 793              	.LVL62:
 639:firmware/STM32F10x_StdPeriph_Lib_V3.3.0/Libraries/STM32F10x_StdPeriph_Driver/src/stm32f10x_usart.c ****   /* Check the parameters */
 640:firmware/STM32F10x_StdPeriph_Lib_V3.3.0/Libraries/STM32F10x_StdPeriph_Driver/src/stm32f10x_usart.c ****   assert_param(IS_USART_123_PERIPH(USARTx));
 641:firmware/STM32F10x_StdPeriph_Lib_V3.3.0/Libraries/STM32F10x_StdPeriph_Driver/src/stm32f10x_usart.c ****   
 642:firmware/STM32F10x_StdPeriph_Lib_V3.3.0/Libraries/STM32F10x_StdPeriph_Driver/src/stm32f10x_usart.c ****   /* Clear the USART Guard time */
 643:firmware/STM32F10x_StdPeriph_Lib_V3.3.0/Libraries/STM32F10x_StdPeriph_Driver/src/stm32f10x_usart.c ****   USARTx->GTPR &= GTPR_LSB_Mask;
 794              		.loc 1 643 0
 795 0000 038B     		ldrh	r3, [r0, #24]
 796 0002 DBB2     		uxtb	r3, r3
 797 0004 0383     		strh	r3, [r0, #24]	@ movhi
 644:firmware/STM32F10x_StdPeriph_Lib_V3.3.0/Libraries/STM32F10x_StdPeriph_Driver/src/stm32f10x_usart.c ****   /* Set the USART guard time */
 645:firmware/STM32F10x_StdPeriph_Lib_V3.3.0/Libraries/STM32F10x_StdPeriph_Driver/src/stm32f10x_usart.c ****   USARTx->GTPR |= (uint16_t)((uint16_t)USART_GuardTime << 0x08);
 798              		.loc 1 645 0
 799 0006 038B     		ldrh	r3, [r0, #24]
 800 0008 9BB2     		uxth	r3, r3
 801 000a 43EA0123 		orr	r3, r3, r1, lsl #8
 802 000e 0383     		strh	r3, [r0, #24]	@ movhi
 646:firmware/STM32F10x_StdPeriph_Lib_V3.3.0/Libraries/STM32F10x_StdPeriph_Driver/src/stm32f10x_usart.c **** }
 803              		.loc 1 646 0
 804 0010 7047     		bx	lr
 805              		.cfi_endproc
 806              	.LFE45:
 808              		.section	.text.USART_SetPrescaler,"ax",%progbits
 809              		.align	1
 810              		.global	USART_SetPrescaler
 811              		.thumb
 812              		.thumb_func
 814              	USART_SetPrescaler:
 815              	.LFB46:
 647:firmware/STM32F10x_StdPeriph_Lib_V3.3.0/Libraries/STM32F10x_StdPeriph_Driver/src/stm32f10x_usart.c **** 
 648:firmware/STM32F10x_StdPeriph_Lib_V3.3.0/Libraries/STM32F10x_StdPeriph_Driver/src/stm32f10x_usart.c **** /**
 649:firmware/STM32F10x_StdPeriph_Lib_V3.3.0/Libraries/STM32F10x_StdPeriph_Driver/src/stm32f10x_usart.c ****   * @brief  Sets the system clock prescaler.
 650:firmware/STM32F10x_StdPeriph_Lib_V3.3.0/Libraries/STM32F10x_StdPeriph_Driver/src/stm32f10x_usart.c ****   * @param  USARTx: Select the USART or the UART peripheral. 
 651:firmware/STM32F10x_StdPeriph_Lib_V3.3.0/Libraries/STM32F10x_StdPeriph_Driver/src/stm32f10x_usart.c ****   *   This parameter can be one of the following values:
 652:firmware/STM32F10x_StdPeriph_Lib_V3.3.0/Libraries/STM32F10x_StdPeriph_Driver/src/stm32f10x_usart.c ****   *   USART1, USART2, USART3, UART4 or UART5.
 653:firmware/STM32F10x_StdPeriph_Lib_V3.3.0/Libraries/STM32F10x_StdPeriph_Driver/src/stm32f10x_usart.c ****   * @param  USART_Prescaler: specifies the prescaler clock.  
 654:firmware/STM32F10x_StdPeriph_Lib_V3.3.0/Libraries/STM32F10x_StdPeriph_Driver/src/stm32f10x_usart.c ****   * @note   The function is used for IrDA mode with UART4 and UART5.
 655:firmware/STM32F10x_StdPeriph_Lib_V3.3.0/Libraries/STM32F10x_StdPeriph_Driver/src/stm32f10x_usart.c ****   * @retval None
 656:firmware/STM32F10x_StdPeriph_Lib_V3.3.0/Libraries/STM32F10x_StdPeriph_Driver/src/stm32f10x_usart.c ****   */
 657:firmware/STM32F10x_StdPeriph_Lib_V3.3.0/Libraries/STM32F10x_StdPeriph_Driver/src/stm32f10x_usart.c **** void USART_SetPrescaler(USART_TypeDef* USARTx, uint8_t USART_Prescaler)
 658:firmware/STM32F10x_StdPeriph_Lib_V3.3.0/Libraries/STM32F10x_StdPeriph_Driver/src/stm32f10x_usart.c **** { 
 816              		.loc 1 658 0
 817              		.cfi_startproc
 818              		@ args = 0, pretend = 0, frame = 0
 819              		@ frame_needed = 0, uses_anonymous_args = 0
 820              		@ link register save eliminated.
 821              	.LVL63:
 659:firmware/STM32F10x_StdPeriph_Lib_V3.3.0/Libraries/STM32F10x_StdPeriph_Driver/src/stm32f10x_usart.c ****   /* Check the parameters */
 660:firmware/STM32F10x_StdPeriph_Lib_V3.3.0/Libraries/STM32F10x_StdPeriph_Driver/src/stm32f10x_usart.c ****   assert_param(IS_USART_ALL_PERIPH(USARTx));
 661:firmware/STM32F10x_StdPeriph_Lib_V3.3.0/Libraries/STM32F10x_StdPeriph_Driver/src/stm32f10x_usart.c ****   
 662:firmware/STM32F10x_StdPeriph_Lib_V3.3.0/Libraries/STM32F10x_StdPeriph_Driver/src/stm32f10x_usart.c ****   /* Clear the USART prescaler */
 663:firmware/STM32F10x_StdPeriph_Lib_V3.3.0/Libraries/STM32F10x_StdPeriph_Driver/src/stm32f10x_usart.c ****   USARTx->GTPR &= GTPR_MSB_Mask;
 822              		.loc 1 663 0
 823 0000 038B     		ldrh	r3, [r0, #24]
 824 0002 03F47F43 		and	r3, r3, #65280
 825 0006 0383     		strh	r3, [r0, #24]	@ movhi
 664:firmware/STM32F10x_StdPeriph_Lib_V3.3.0/Libraries/STM32F10x_StdPeriph_Driver/src/stm32f10x_usart.c ****   /* Set the USART prescaler */
 665:firmware/STM32F10x_StdPeriph_Lib_V3.3.0/Libraries/STM32F10x_StdPeriph_Driver/src/stm32f10x_usart.c ****   USARTx->GTPR |= USART_Prescaler;
 826              		.loc 1 665 0
 827 0008 038B     		ldrh	r3, [r0, #24]
 828 000a 9BB2     		uxth	r3, r3
 829 000c 41EA0303 		orr	r3, r1, r3
 830 0010 0383     		strh	r3, [r0, #24]	@ movhi
 666:firmware/STM32F10x_StdPeriph_Lib_V3.3.0/Libraries/STM32F10x_StdPeriph_Driver/src/stm32f10x_usart.c **** }
 831              		.loc 1 666 0
 832 0012 7047     		bx	lr
 833              		.cfi_endproc
 834              	.LFE46:
 836              		.section	.text.USART_SmartCardCmd,"ax",%progbits
 837              		.align	1
 838              		.global	USART_SmartCardCmd
 839              		.thumb
 840              		.thumb_func
 842              	USART_SmartCardCmd:
 843              	.LFB47:
 667:firmware/STM32F10x_StdPeriph_Lib_V3.3.0/Libraries/STM32F10x_StdPeriph_Driver/src/stm32f10x_usart.c **** 
 668:firmware/STM32F10x_StdPeriph_Lib_V3.3.0/Libraries/STM32F10x_StdPeriph_Driver/src/stm32f10x_usart.c **** /**
 669:firmware/STM32F10x_StdPeriph_Lib_V3.3.0/Libraries/STM32F10x_StdPeriph_Driver/src/stm32f10x_usart.c ****   * @brief  Enables or disables the USARTs Smart Card mode.
 670:firmware/STM32F10x_StdPeriph_Lib_V3.3.0/Libraries/STM32F10x_StdPeriph_Driver/src/stm32f10x_usart.c ****   * @param  USARTx: where x can be 1, 2 or 3 to select the USART peripheral.
 671:firmware/STM32F10x_StdPeriph_Lib_V3.3.0/Libraries/STM32F10x_StdPeriph_Driver/src/stm32f10x_usart.c ****   * @param  NewState: new state of the Smart Card mode.
 672:firmware/STM32F10x_StdPeriph_Lib_V3.3.0/Libraries/STM32F10x_StdPeriph_Driver/src/stm32f10x_usart.c ****   *   This parameter can be: ENABLE or DISABLE.     
 673:firmware/STM32F10x_StdPeriph_Lib_V3.3.0/Libraries/STM32F10x_StdPeriph_Driver/src/stm32f10x_usart.c ****   * @note The Smart Card mode is not available for UART4 and UART5. 
 674:firmware/STM32F10x_StdPeriph_Lib_V3.3.0/Libraries/STM32F10x_StdPeriph_Driver/src/stm32f10x_usart.c ****   * @retval None
 675:firmware/STM32F10x_StdPeriph_Lib_V3.3.0/Libraries/STM32F10x_StdPeriph_Driver/src/stm32f10x_usart.c ****   */
 676:firmware/STM32F10x_StdPeriph_Lib_V3.3.0/Libraries/STM32F10x_StdPeriph_Driver/src/stm32f10x_usart.c **** void USART_SmartCardCmd(USART_TypeDef* USARTx, FunctionalState NewState)
 677:firmware/STM32F10x_StdPeriph_Lib_V3.3.0/Libraries/STM32F10x_StdPeriph_Driver/src/stm32f10x_usart.c **** {
 844              		.loc 1 677 0
 845              		.cfi_startproc
 846              		@ args = 0, pretend = 0, frame = 0
 847              		@ frame_needed = 0, uses_anonymous_args = 0
 848              		@ link register save eliminated.
 849              	.LVL64:
 678:firmware/STM32F10x_StdPeriph_Lib_V3.3.0/Libraries/STM32F10x_StdPeriph_Driver/src/stm32f10x_usart.c ****   /* Check the parameters */
 679:firmware/STM32F10x_StdPeriph_Lib_V3.3.0/Libraries/STM32F10x_StdPeriph_Driver/src/stm32f10x_usart.c ****   assert_param(IS_USART_123_PERIPH(USARTx));
 680:firmware/STM32F10x_StdPeriph_Lib_V3.3.0/Libraries/STM32F10x_StdPeriph_Driver/src/stm32f10x_usart.c ****   assert_param(IS_FUNCTIONAL_STATE(NewState));
 681:firmware/STM32F10x_StdPeriph_Lib_V3.3.0/Libraries/STM32F10x_StdPeriph_Driver/src/stm32f10x_usart.c ****   if (NewState != DISABLE)
 850              		.loc 1 681 0
 851 0000 21B1     		cbz	r1, .L56
 682:firmware/STM32F10x_StdPeriph_Lib_V3.3.0/Libraries/STM32F10x_StdPeriph_Driver/src/stm32f10x_usart.c ****   {
 683:firmware/STM32F10x_StdPeriph_Lib_V3.3.0/Libraries/STM32F10x_StdPeriph_Driver/src/stm32f10x_usart.c ****     /* Enable the SC mode by setting the SCEN bit in the CR3 register */
 684:firmware/STM32F10x_StdPeriph_Lib_V3.3.0/Libraries/STM32F10x_StdPeriph_Driver/src/stm32f10x_usart.c ****     USARTx->CR3 |= CR3_SCEN_Set;
 852              		.loc 1 684 0
 853 0002 838A     		ldrh	r3, [r0, #20]
 854 0004 9BB2     		uxth	r3, r3
 855 0006 43F02003 		orr	r3, r3, #32
 856 000a 04E0     		b	.L58
 857              	.L56:
 685:firmware/STM32F10x_StdPeriph_Lib_V3.3.0/Libraries/STM32F10x_StdPeriph_Driver/src/stm32f10x_usart.c ****   }
 686:firmware/STM32F10x_StdPeriph_Lib_V3.3.0/Libraries/STM32F10x_StdPeriph_Driver/src/stm32f10x_usart.c ****   else
 687:firmware/STM32F10x_StdPeriph_Lib_V3.3.0/Libraries/STM32F10x_StdPeriph_Driver/src/stm32f10x_usart.c ****   {
 688:firmware/STM32F10x_StdPeriph_Lib_V3.3.0/Libraries/STM32F10x_StdPeriph_Driver/src/stm32f10x_usart.c ****     /* Disable the SC mode by clearing the SCEN bit in the CR3 register */
 689:firmware/STM32F10x_StdPeriph_Lib_V3.3.0/Libraries/STM32F10x_StdPeriph_Driver/src/stm32f10x_usart.c ****     USARTx->CR3 &= CR3_SCEN_Reset;
 858              		.loc 1 689 0
 859 000c 838A     		ldrh	r3, [r0, #20]
 860 000e 23F02003 		bic	r3, r3, #32
 861 0012 1B04     		lsls	r3, r3, #16
 862 0014 1B0C     		lsrs	r3, r3, #16
 863              	.L58:
 864 0016 8382     		strh	r3, [r0, #20]	@ movhi
 865 0018 7047     		bx	lr
 866              		.cfi_endproc
 867              	.LFE47:
 869              		.section	.text.USART_SmartCardNACKCmd,"ax",%progbits
 870              		.align	1
 871              		.global	USART_SmartCardNACKCmd
 872              		.thumb
 873              		.thumb_func
 875              	USART_SmartCardNACKCmd:
 876              	.LFB48:
 690:firmware/STM32F10x_StdPeriph_Lib_V3.3.0/Libraries/STM32F10x_StdPeriph_Driver/src/stm32f10x_usart.c ****   }
 691:firmware/STM32F10x_StdPeriph_Lib_V3.3.0/Libraries/STM32F10x_StdPeriph_Driver/src/stm32f10x_usart.c **** }
 692:firmware/STM32F10x_StdPeriph_Lib_V3.3.0/Libraries/STM32F10x_StdPeriph_Driver/src/stm32f10x_usart.c **** 
 693:firmware/STM32F10x_StdPeriph_Lib_V3.3.0/Libraries/STM32F10x_StdPeriph_Driver/src/stm32f10x_usart.c **** /**
 694:firmware/STM32F10x_StdPeriph_Lib_V3.3.0/Libraries/STM32F10x_StdPeriph_Driver/src/stm32f10x_usart.c ****   * @brief  Enables or disables NACK transmission.
 695:firmware/STM32F10x_StdPeriph_Lib_V3.3.0/Libraries/STM32F10x_StdPeriph_Driver/src/stm32f10x_usart.c ****   * @param  USARTx: where x can be 1, 2 or 3 to select the USART peripheral. 
 696:firmware/STM32F10x_StdPeriph_Lib_V3.3.0/Libraries/STM32F10x_StdPeriph_Driver/src/stm32f10x_usart.c ****   * @param  NewState: new state of the NACK transmission.
 697:firmware/STM32F10x_StdPeriph_Lib_V3.3.0/Libraries/STM32F10x_StdPeriph_Driver/src/stm32f10x_usart.c ****   *   This parameter can be: ENABLE or DISABLE.  
 698:firmware/STM32F10x_StdPeriph_Lib_V3.3.0/Libraries/STM32F10x_StdPeriph_Driver/src/stm32f10x_usart.c ****   * @note The Smart Card mode is not available for UART4 and UART5.
 699:firmware/STM32F10x_StdPeriph_Lib_V3.3.0/Libraries/STM32F10x_StdPeriph_Driver/src/stm32f10x_usart.c ****   * @retval None
 700:firmware/STM32F10x_StdPeriph_Lib_V3.3.0/Libraries/STM32F10x_StdPeriph_Driver/src/stm32f10x_usart.c ****   */
 701:firmware/STM32F10x_StdPeriph_Lib_V3.3.0/Libraries/STM32F10x_StdPeriph_Driver/src/stm32f10x_usart.c **** void USART_SmartCardNACKCmd(USART_TypeDef* USARTx, FunctionalState NewState)
 702:firmware/STM32F10x_StdPeriph_Lib_V3.3.0/Libraries/STM32F10x_StdPeriph_Driver/src/stm32f10x_usart.c **** {
 877              		.loc 1 702 0
 878              		.cfi_startproc
 879              		@ args = 0, pretend = 0, frame = 0
 880              		@ frame_needed = 0, uses_anonymous_args = 0
 881              		@ link register save eliminated.
 882              	.LVL65:
 703:firmware/STM32F10x_StdPeriph_Lib_V3.3.0/Libraries/STM32F10x_StdPeriph_Driver/src/stm32f10x_usart.c ****   /* Check the parameters */
 704:firmware/STM32F10x_StdPeriph_Lib_V3.3.0/Libraries/STM32F10x_StdPeriph_Driver/src/stm32f10x_usart.c ****   assert_param(IS_USART_123_PERIPH(USARTx));  
 705:firmware/STM32F10x_StdPeriph_Lib_V3.3.0/Libraries/STM32F10x_StdPeriph_Driver/src/stm32f10x_usart.c ****   assert_param(IS_FUNCTIONAL_STATE(NewState));
 706:firmware/STM32F10x_StdPeriph_Lib_V3.3.0/Libraries/STM32F10x_StdPeriph_Driver/src/stm32f10x_usart.c ****   if (NewState != DISABLE)
 883              		.loc 1 706 0
 884 0000 21B1     		cbz	r1, .L60
 707:firmware/STM32F10x_StdPeriph_Lib_V3.3.0/Libraries/STM32F10x_StdPeriph_Driver/src/stm32f10x_usart.c ****   {
 708:firmware/STM32F10x_StdPeriph_Lib_V3.3.0/Libraries/STM32F10x_StdPeriph_Driver/src/stm32f10x_usart.c ****     /* Enable the NACK transmission by setting the NACK bit in the CR3 register */
 709:firmware/STM32F10x_StdPeriph_Lib_V3.3.0/Libraries/STM32F10x_StdPeriph_Driver/src/stm32f10x_usart.c ****     USARTx->CR3 |= CR3_NACK_Set;
 885              		.loc 1 709 0
 886 0002 838A     		ldrh	r3, [r0, #20]
 887 0004 9BB2     		uxth	r3, r3
 888 0006 43F01003 		orr	r3, r3, #16
 889 000a 04E0     		b	.L62
 890              	.L60:
 710:firmware/STM32F10x_StdPeriph_Lib_V3.3.0/Libraries/STM32F10x_StdPeriph_Driver/src/stm32f10x_usart.c ****   }
 711:firmware/STM32F10x_StdPeriph_Lib_V3.3.0/Libraries/STM32F10x_StdPeriph_Driver/src/stm32f10x_usart.c ****   else
 712:firmware/STM32F10x_StdPeriph_Lib_V3.3.0/Libraries/STM32F10x_StdPeriph_Driver/src/stm32f10x_usart.c ****   {
 713:firmware/STM32F10x_StdPeriph_Lib_V3.3.0/Libraries/STM32F10x_StdPeriph_Driver/src/stm32f10x_usart.c ****     /* Disable the NACK transmission by clearing the NACK bit in the CR3 register */
 714:firmware/STM32F10x_StdPeriph_Lib_V3.3.0/Libraries/STM32F10x_StdPeriph_Driver/src/stm32f10x_usart.c ****     USARTx->CR3 &= CR3_NACK_Reset;
 891              		.loc 1 714 0
 892 000c 838A     		ldrh	r3, [r0, #20]
 893 000e 23F01003 		bic	r3, r3, #16
 894 0012 1B04     		lsls	r3, r3, #16
 895 0014 1B0C     		lsrs	r3, r3, #16
 896              	.L62:
 897 0016 8382     		strh	r3, [r0, #20]	@ movhi
 898 0018 7047     		bx	lr
 899              		.cfi_endproc
 900              	.LFE48:
 902              		.section	.text.USART_HalfDuplexCmd,"ax",%progbits
 903              		.align	1
 904              		.global	USART_HalfDuplexCmd
 905              		.thumb
 906              		.thumb_func
 908              	USART_HalfDuplexCmd:
 909              	.LFB49:
 715:firmware/STM32F10x_StdPeriph_Lib_V3.3.0/Libraries/STM32F10x_StdPeriph_Driver/src/stm32f10x_usart.c ****   }
 716:firmware/STM32F10x_StdPeriph_Lib_V3.3.0/Libraries/STM32F10x_StdPeriph_Driver/src/stm32f10x_usart.c **** }
 717:firmware/STM32F10x_StdPeriph_Lib_V3.3.0/Libraries/STM32F10x_StdPeriph_Driver/src/stm32f10x_usart.c **** 
 718:firmware/STM32F10x_StdPeriph_Lib_V3.3.0/Libraries/STM32F10x_StdPeriph_Driver/src/stm32f10x_usart.c **** /**
 719:firmware/STM32F10x_StdPeriph_Lib_V3.3.0/Libraries/STM32F10x_StdPeriph_Driver/src/stm32f10x_usart.c ****   * @brief  Enables or disables the USARTs Half Duplex communication.
 720:firmware/STM32F10x_StdPeriph_Lib_V3.3.0/Libraries/STM32F10x_StdPeriph_Driver/src/stm32f10x_usart.c ****   * @param  USARTx: Select the USART or the UART peripheral. 
 721:firmware/STM32F10x_StdPeriph_Lib_V3.3.0/Libraries/STM32F10x_StdPeriph_Driver/src/stm32f10x_usart.c ****   *   This parameter can be one of the following values:
 722:firmware/STM32F10x_StdPeriph_Lib_V3.3.0/Libraries/STM32F10x_StdPeriph_Driver/src/stm32f10x_usart.c ****   *   USART1, USART2, USART3, UART4 or UART5.
 723:firmware/STM32F10x_StdPeriph_Lib_V3.3.0/Libraries/STM32F10x_StdPeriph_Driver/src/stm32f10x_usart.c ****   * @param  NewState: new state of the USART Communication.
 724:firmware/STM32F10x_StdPeriph_Lib_V3.3.0/Libraries/STM32F10x_StdPeriph_Driver/src/stm32f10x_usart.c ****   *   This parameter can be: ENABLE or DISABLE.
 725:firmware/STM32F10x_StdPeriph_Lib_V3.3.0/Libraries/STM32F10x_StdPeriph_Driver/src/stm32f10x_usart.c ****   * @retval None
 726:firmware/STM32F10x_StdPeriph_Lib_V3.3.0/Libraries/STM32F10x_StdPeriph_Driver/src/stm32f10x_usart.c ****   */
 727:firmware/STM32F10x_StdPeriph_Lib_V3.3.0/Libraries/STM32F10x_StdPeriph_Driver/src/stm32f10x_usart.c **** void USART_HalfDuplexCmd(USART_TypeDef* USARTx, FunctionalState NewState)
 728:firmware/STM32F10x_StdPeriph_Lib_V3.3.0/Libraries/STM32F10x_StdPeriph_Driver/src/stm32f10x_usart.c **** {
 910              		.loc 1 728 0
 911              		.cfi_startproc
 912              		@ args = 0, pretend = 0, frame = 0
 913              		@ frame_needed = 0, uses_anonymous_args = 0
 914              		@ link register save eliminated.
 915              	.LVL66:
 729:firmware/STM32F10x_StdPeriph_Lib_V3.3.0/Libraries/STM32F10x_StdPeriph_Driver/src/stm32f10x_usart.c ****   /* Check the parameters */
 730:firmware/STM32F10x_StdPeriph_Lib_V3.3.0/Libraries/STM32F10x_StdPeriph_Driver/src/stm32f10x_usart.c ****   assert_param(IS_USART_ALL_PERIPH(USARTx));
 731:firmware/STM32F10x_StdPeriph_Lib_V3.3.0/Libraries/STM32F10x_StdPeriph_Driver/src/stm32f10x_usart.c ****   assert_param(IS_FUNCTIONAL_STATE(NewState));
 732:firmware/STM32F10x_StdPeriph_Lib_V3.3.0/Libraries/STM32F10x_StdPeriph_Driver/src/stm32f10x_usart.c ****   
 733:firmware/STM32F10x_StdPeriph_Lib_V3.3.0/Libraries/STM32F10x_StdPeriph_Driver/src/stm32f10x_usart.c ****   if (NewState != DISABLE)
 916              		.loc 1 733 0
 917 0000 21B1     		cbz	r1, .L64
 734:firmware/STM32F10x_StdPeriph_Lib_V3.3.0/Libraries/STM32F10x_StdPeriph_Driver/src/stm32f10x_usart.c ****   {
 735:firmware/STM32F10x_StdPeriph_Lib_V3.3.0/Libraries/STM32F10x_StdPeriph_Driver/src/stm32f10x_usart.c ****     /* Enable the Half-Duplex mode by setting the HDSEL bit in the CR3 register */
 736:firmware/STM32F10x_StdPeriph_Lib_V3.3.0/Libraries/STM32F10x_StdPeriph_Driver/src/stm32f10x_usart.c ****     USARTx->CR3 |= CR3_HDSEL_Set;
 918              		.loc 1 736 0
 919 0002 838A     		ldrh	r3, [r0, #20]
 920 0004 9BB2     		uxth	r3, r3
 921 0006 43F00803 		orr	r3, r3, #8
 922 000a 04E0     		b	.L66
 923              	.L64:
 737:firmware/STM32F10x_StdPeriph_Lib_V3.3.0/Libraries/STM32F10x_StdPeriph_Driver/src/stm32f10x_usart.c ****   }
 738:firmware/STM32F10x_StdPeriph_Lib_V3.3.0/Libraries/STM32F10x_StdPeriph_Driver/src/stm32f10x_usart.c ****   else
 739:firmware/STM32F10x_StdPeriph_Lib_V3.3.0/Libraries/STM32F10x_StdPeriph_Driver/src/stm32f10x_usart.c ****   {
 740:firmware/STM32F10x_StdPeriph_Lib_V3.3.0/Libraries/STM32F10x_StdPeriph_Driver/src/stm32f10x_usart.c ****     /* Disable the Half-Duplex mode by clearing the HDSEL bit in the CR3 register */
 741:firmware/STM32F10x_StdPeriph_Lib_V3.3.0/Libraries/STM32F10x_StdPeriph_Driver/src/stm32f10x_usart.c ****     USARTx->CR3 &= CR3_HDSEL_Reset;
 924              		.loc 1 741 0
 925 000c 838A     		ldrh	r3, [r0, #20]
 926 000e 23F00803 		bic	r3, r3, #8
 927 0012 1B04     		lsls	r3, r3, #16
 928 0014 1B0C     		lsrs	r3, r3, #16
 929              	.L66:
 930 0016 8382     		strh	r3, [r0, #20]	@ movhi
 931 0018 7047     		bx	lr
 932              		.cfi_endproc
 933              	.LFE49:
 935              		.section	.text.USART_OverSampling8Cmd,"ax",%progbits
 936              		.align	1
 937              		.global	USART_OverSampling8Cmd
 938              		.thumb
 939              		.thumb_func
 941              	USART_OverSampling8Cmd:
 942              	.LFB50:
 742:firmware/STM32F10x_StdPeriph_Lib_V3.3.0/Libraries/STM32F10x_StdPeriph_Driver/src/stm32f10x_usart.c ****   }
 743:firmware/STM32F10x_StdPeriph_Lib_V3.3.0/Libraries/STM32F10x_StdPeriph_Driver/src/stm32f10x_usart.c **** }
 744:firmware/STM32F10x_StdPeriph_Lib_V3.3.0/Libraries/STM32F10x_StdPeriph_Driver/src/stm32f10x_usart.c **** 
 745:firmware/STM32F10x_StdPeriph_Lib_V3.3.0/Libraries/STM32F10x_StdPeriph_Driver/src/stm32f10x_usart.c **** 
 746:firmware/STM32F10x_StdPeriph_Lib_V3.3.0/Libraries/STM32F10x_StdPeriph_Driver/src/stm32f10x_usart.c **** /**
 747:firmware/STM32F10x_StdPeriph_Lib_V3.3.0/Libraries/STM32F10x_StdPeriph_Driver/src/stm32f10x_usart.c ****   * @brief  Enables or disables the USART's 8x oversampling mode.
 748:firmware/STM32F10x_StdPeriph_Lib_V3.3.0/Libraries/STM32F10x_StdPeriph_Driver/src/stm32f10x_usart.c ****   * @param  USARTx: Select the USART or the UART peripheral.
 749:firmware/STM32F10x_StdPeriph_Lib_V3.3.0/Libraries/STM32F10x_StdPeriph_Driver/src/stm32f10x_usart.c ****   *   This parameter can be one of the following values:
 750:firmware/STM32F10x_StdPeriph_Lib_V3.3.0/Libraries/STM32F10x_StdPeriph_Driver/src/stm32f10x_usart.c ****   *   USART1, USART2, USART3, UART4 or UART5.
 751:firmware/STM32F10x_StdPeriph_Lib_V3.3.0/Libraries/STM32F10x_StdPeriph_Driver/src/stm32f10x_usart.c ****   * @param  NewState: new state of the USART one bit sampling methode.
 752:firmware/STM32F10x_StdPeriph_Lib_V3.3.0/Libraries/STM32F10x_StdPeriph_Driver/src/stm32f10x_usart.c ****   *   This parameter can be: ENABLE or DISABLE.
 753:firmware/STM32F10x_StdPeriph_Lib_V3.3.0/Libraries/STM32F10x_StdPeriph_Driver/src/stm32f10x_usart.c ****   * @note
 754:firmware/STM32F10x_StdPeriph_Lib_V3.3.0/Libraries/STM32F10x_StdPeriph_Driver/src/stm32f10x_usart.c ****   *     This function has to be called before calling USART_Init()
 755:firmware/STM32F10x_StdPeriph_Lib_V3.3.0/Libraries/STM32F10x_StdPeriph_Driver/src/stm32f10x_usart.c ****   *     function in order to have correct baudrate Divider value.   
 756:firmware/STM32F10x_StdPeriph_Lib_V3.3.0/Libraries/STM32F10x_StdPeriph_Driver/src/stm32f10x_usart.c ****   * @retval None
 757:firmware/STM32F10x_StdPeriph_Lib_V3.3.0/Libraries/STM32F10x_StdPeriph_Driver/src/stm32f10x_usart.c ****   */
 758:firmware/STM32F10x_StdPeriph_Lib_V3.3.0/Libraries/STM32F10x_StdPeriph_Driver/src/stm32f10x_usart.c **** void USART_OverSampling8Cmd(USART_TypeDef* USARTx, FunctionalState NewState)
 759:firmware/STM32F10x_StdPeriph_Lib_V3.3.0/Libraries/STM32F10x_StdPeriph_Driver/src/stm32f10x_usart.c **** {
 943              		.loc 1 759 0
 944              		.cfi_startproc
 945              		@ args = 0, pretend = 0, frame = 0
 946              		@ frame_needed = 0, uses_anonymous_args = 0
 947              		@ link register save eliminated.
 948              	.LVL67:
 760:firmware/STM32F10x_StdPeriph_Lib_V3.3.0/Libraries/STM32F10x_StdPeriph_Driver/src/stm32f10x_usart.c ****   /* Check the parameters */
 761:firmware/STM32F10x_StdPeriph_Lib_V3.3.0/Libraries/STM32F10x_StdPeriph_Driver/src/stm32f10x_usart.c ****   assert_param(IS_USART_ALL_PERIPH(USARTx));
 762:firmware/STM32F10x_StdPeriph_Lib_V3.3.0/Libraries/STM32F10x_StdPeriph_Driver/src/stm32f10x_usart.c ****   assert_param(IS_FUNCTIONAL_STATE(NewState));
 763:firmware/STM32F10x_StdPeriph_Lib_V3.3.0/Libraries/STM32F10x_StdPeriph_Driver/src/stm32f10x_usart.c ****   
 764:firmware/STM32F10x_StdPeriph_Lib_V3.3.0/Libraries/STM32F10x_StdPeriph_Driver/src/stm32f10x_usart.c ****   if (NewState != DISABLE)
 949              		.loc 1 764 0
 950 0000 31B1     		cbz	r1, .L68
 765:firmware/STM32F10x_StdPeriph_Lib_V3.3.0/Libraries/STM32F10x_StdPeriph_Driver/src/stm32f10x_usart.c ****   {
 766:firmware/STM32F10x_StdPeriph_Lib_V3.3.0/Libraries/STM32F10x_StdPeriph_Driver/src/stm32f10x_usart.c ****     /* Enable the 8x Oversampling mode by setting the OVER8 bit in the CR1 register */
 767:firmware/STM32F10x_StdPeriph_Lib_V3.3.0/Libraries/STM32F10x_StdPeriph_Driver/src/stm32f10x_usart.c ****     USARTx->CR1 |= CR1_OVER8_Set;
 951              		.loc 1 767 0
 952 0002 8389     		ldrh	r3, [r0, #12]
 953 0004 6FEA4343 		mvn	r3, r3, lsl #17
 954 0008 6FEA5343 		mvn	r3, r3, lsr #17
 955 000c 9BB2     		uxth	r3, r3
 956 000e 02E0     		b	.L70
 957              	.L68:
 768:firmware/STM32F10x_StdPeriph_Lib_V3.3.0/Libraries/STM32F10x_StdPeriph_Driver/src/stm32f10x_usart.c ****   }
 769:firmware/STM32F10x_StdPeriph_Lib_V3.3.0/Libraries/STM32F10x_StdPeriph_Driver/src/stm32f10x_usart.c ****   else
 770:firmware/STM32F10x_StdPeriph_Lib_V3.3.0/Libraries/STM32F10x_StdPeriph_Driver/src/stm32f10x_usart.c ****   {
 771:firmware/STM32F10x_StdPeriph_Lib_V3.3.0/Libraries/STM32F10x_StdPeriph_Driver/src/stm32f10x_usart.c ****     /* Disable the 8x Oversampling mode by clearing the OVER8 bit in the CR1 register */
 772:firmware/STM32F10x_StdPeriph_Lib_V3.3.0/Libraries/STM32F10x_StdPeriph_Driver/src/stm32f10x_usart.c ****     USARTx->CR1 &= CR1_OVER8_Reset;
 958              		.loc 1 772 0
 959 0010 8389     		ldrh	r3, [r0, #12]
 960 0012 5B04     		lsls	r3, r3, #17
 961 0014 5B0C     		lsrs	r3, r3, #17
 962              	.L70:
 963 0016 8381     		strh	r3, [r0, #12]	@ movhi
 964 0018 7047     		bx	lr
 965              		.cfi_endproc
 966              	.LFE50:
 968              		.section	.text.USART_OneBitMethodCmd,"ax",%progbits
 969              		.align	1
 970              		.global	USART_OneBitMethodCmd
 971              		.thumb
 972              		.thumb_func
 974              	USART_OneBitMethodCmd:
 975              	.LFB51:
 773:firmware/STM32F10x_StdPeriph_Lib_V3.3.0/Libraries/STM32F10x_StdPeriph_Driver/src/stm32f10x_usart.c ****   }
 774:firmware/STM32F10x_StdPeriph_Lib_V3.3.0/Libraries/STM32F10x_StdPeriph_Driver/src/stm32f10x_usart.c **** }
 775:firmware/STM32F10x_StdPeriph_Lib_V3.3.0/Libraries/STM32F10x_StdPeriph_Driver/src/stm32f10x_usart.c **** 
 776:firmware/STM32F10x_StdPeriph_Lib_V3.3.0/Libraries/STM32F10x_StdPeriph_Driver/src/stm32f10x_usart.c **** /**
 777:firmware/STM32F10x_StdPeriph_Lib_V3.3.0/Libraries/STM32F10x_StdPeriph_Driver/src/stm32f10x_usart.c ****   * @brief  Enables or disables the USART's one bit sampling methode.
 778:firmware/STM32F10x_StdPeriph_Lib_V3.3.0/Libraries/STM32F10x_StdPeriph_Driver/src/stm32f10x_usart.c ****   * @param  USARTx: Select the USART or the UART peripheral.
 779:firmware/STM32F10x_StdPeriph_Lib_V3.3.0/Libraries/STM32F10x_StdPeriph_Driver/src/stm32f10x_usart.c ****   *   This parameter can be one of the following values:
 780:firmware/STM32F10x_StdPeriph_Lib_V3.3.0/Libraries/STM32F10x_StdPeriph_Driver/src/stm32f10x_usart.c ****   *   USART1, USART2, USART3, UART4 or UART5.
 781:firmware/STM32F10x_StdPeriph_Lib_V3.3.0/Libraries/STM32F10x_StdPeriph_Driver/src/stm32f10x_usart.c ****   * @param  NewState: new state of the USART one bit sampling methode.
 782:firmware/STM32F10x_StdPeriph_Lib_V3.3.0/Libraries/STM32F10x_StdPeriph_Driver/src/stm32f10x_usart.c ****   *   This parameter can be: ENABLE or DISABLE.
 783:firmware/STM32F10x_StdPeriph_Lib_V3.3.0/Libraries/STM32F10x_StdPeriph_Driver/src/stm32f10x_usart.c ****   * @retval None
 784:firmware/STM32F10x_StdPeriph_Lib_V3.3.0/Libraries/STM32F10x_StdPeriph_Driver/src/stm32f10x_usart.c ****   */
 785:firmware/STM32F10x_StdPeriph_Lib_V3.3.0/Libraries/STM32F10x_StdPeriph_Driver/src/stm32f10x_usart.c **** void USART_OneBitMethodCmd(USART_TypeDef* USARTx, FunctionalState NewState)
 786:firmware/STM32F10x_StdPeriph_Lib_V3.3.0/Libraries/STM32F10x_StdPeriph_Driver/src/stm32f10x_usart.c **** {
 976              		.loc 1 786 0
 977              		.cfi_startproc
 978              		@ args = 0, pretend = 0, frame = 0
 979              		@ frame_needed = 0, uses_anonymous_args = 0
 980              		@ link register save eliminated.
 981              	.LVL68:
 787:firmware/STM32F10x_StdPeriph_Lib_V3.3.0/Libraries/STM32F10x_StdPeriph_Driver/src/stm32f10x_usart.c ****   /* Check the parameters */
 788:firmware/STM32F10x_StdPeriph_Lib_V3.3.0/Libraries/STM32F10x_StdPeriph_Driver/src/stm32f10x_usart.c ****   assert_param(IS_USART_ALL_PERIPH(USARTx));
 789:firmware/STM32F10x_StdPeriph_Lib_V3.3.0/Libraries/STM32F10x_StdPeriph_Driver/src/stm32f10x_usart.c ****   assert_param(IS_FUNCTIONAL_STATE(NewState));
 790:firmware/STM32F10x_StdPeriph_Lib_V3.3.0/Libraries/STM32F10x_StdPeriph_Driver/src/stm32f10x_usart.c ****   
 791:firmware/STM32F10x_StdPeriph_Lib_V3.3.0/Libraries/STM32F10x_StdPeriph_Driver/src/stm32f10x_usart.c ****   if (NewState != DISABLE)
 982              		.loc 1 791 0
 983 0000 21B1     		cbz	r1, .L72
 792:firmware/STM32F10x_StdPeriph_Lib_V3.3.0/Libraries/STM32F10x_StdPeriph_Driver/src/stm32f10x_usart.c ****   {
 793:firmware/STM32F10x_StdPeriph_Lib_V3.3.0/Libraries/STM32F10x_StdPeriph_Driver/src/stm32f10x_usart.c ****     /* Enable the one bit method by setting the ONEBITE bit in the CR3 register */
 794:firmware/STM32F10x_StdPeriph_Lib_V3.3.0/Libraries/STM32F10x_StdPeriph_Driver/src/stm32f10x_usart.c ****     USARTx->CR3 |= CR3_ONEBITE_Set;
 984              		.loc 1 794 0
 985 0002 838A     		ldrh	r3, [r0, #20]
 986 0004 9BB2     		uxth	r3, r3
 987 0006 43F40063 		orr	r3, r3, #2048
 988 000a 04E0     		b	.L74
 989              	.L72:
 795:firmware/STM32F10x_StdPeriph_Lib_V3.3.0/Libraries/STM32F10x_StdPeriph_Driver/src/stm32f10x_usart.c ****   }
 796:firmware/STM32F10x_StdPeriph_Lib_V3.3.0/Libraries/STM32F10x_StdPeriph_Driver/src/stm32f10x_usart.c ****   else
 797:firmware/STM32F10x_StdPeriph_Lib_V3.3.0/Libraries/STM32F10x_StdPeriph_Driver/src/stm32f10x_usart.c ****   {
 798:firmware/STM32F10x_StdPeriph_Lib_V3.3.0/Libraries/STM32F10x_StdPeriph_Driver/src/stm32f10x_usart.c ****     /* Disable tthe one bit method by clearing the ONEBITE bit in the CR3 register */
 799:firmware/STM32F10x_StdPeriph_Lib_V3.3.0/Libraries/STM32F10x_StdPeriph_Driver/src/stm32f10x_usart.c ****     USARTx->CR3 &= CR3_ONEBITE_Reset;
 990              		.loc 1 799 0
 991 000c 838A     		ldrh	r3, [r0, #20]
 992 000e 23F40063 		bic	r3, r3, #2048
 993 0012 1B04     		lsls	r3, r3, #16
 994 0014 1B0C     		lsrs	r3, r3, #16
 995              	.L74:
 996 0016 8382     		strh	r3, [r0, #20]	@ movhi
 997 0018 7047     		bx	lr
 998              		.cfi_endproc
 999              	.LFE51:
 1001              		.section	.text.USART_IrDAConfig,"ax",%progbits
 1002              		.align	1
 1003              		.global	USART_IrDAConfig
 1004              		.thumb
 1005              		.thumb_func
 1007              	USART_IrDAConfig:
 1008              	.LFB52:
 800:firmware/STM32F10x_StdPeriph_Lib_V3.3.0/Libraries/STM32F10x_StdPeriph_Driver/src/stm32f10x_usart.c ****   }
 801:firmware/STM32F10x_StdPeriph_Lib_V3.3.0/Libraries/STM32F10x_StdPeriph_Driver/src/stm32f10x_usart.c **** }
 802:firmware/STM32F10x_StdPeriph_Lib_V3.3.0/Libraries/STM32F10x_StdPeriph_Driver/src/stm32f10x_usart.c **** 
 803:firmware/STM32F10x_StdPeriph_Lib_V3.3.0/Libraries/STM32F10x_StdPeriph_Driver/src/stm32f10x_usart.c **** /**
 804:firmware/STM32F10x_StdPeriph_Lib_V3.3.0/Libraries/STM32F10x_StdPeriph_Driver/src/stm32f10x_usart.c ****   * @brief  Configures the USARTs IrDA interface.
 805:firmware/STM32F10x_StdPeriph_Lib_V3.3.0/Libraries/STM32F10x_StdPeriph_Driver/src/stm32f10x_usart.c ****   * @param  USARTx: Select the USART or the UART peripheral. 
 806:firmware/STM32F10x_StdPeriph_Lib_V3.3.0/Libraries/STM32F10x_StdPeriph_Driver/src/stm32f10x_usart.c ****   *   This parameter can be one of the following values:
 807:firmware/STM32F10x_StdPeriph_Lib_V3.3.0/Libraries/STM32F10x_StdPeriph_Driver/src/stm32f10x_usart.c ****   *   USART1, USART2, USART3, UART4 or UART5.
 808:firmware/STM32F10x_StdPeriph_Lib_V3.3.0/Libraries/STM32F10x_StdPeriph_Driver/src/stm32f10x_usart.c ****   * @param  USART_IrDAMode: specifies the IrDA mode.
 809:firmware/STM32F10x_StdPeriph_Lib_V3.3.0/Libraries/STM32F10x_StdPeriph_Driver/src/stm32f10x_usart.c ****   *   This parameter can be one of the following values:
 810:firmware/STM32F10x_StdPeriph_Lib_V3.3.0/Libraries/STM32F10x_StdPeriph_Driver/src/stm32f10x_usart.c ****   *     @arg USART_IrDAMode_LowPower
 811:firmware/STM32F10x_StdPeriph_Lib_V3.3.0/Libraries/STM32F10x_StdPeriph_Driver/src/stm32f10x_usart.c ****   *     @arg USART_IrDAMode_Normal
 812:firmware/STM32F10x_StdPeriph_Lib_V3.3.0/Libraries/STM32F10x_StdPeriph_Driver/src/stm32f10x_usart.c ****   * @retval None
 813:firmware/STM32F10x_StdPeriph_Lib_V3.3.0/Libraries/STM32F10x_StdPeriph_Driver/src/stm32f10x_usart.c ****   */
 814:firmware/STM32F10x_StdPeriph_Lib_V3.3.0/Libraries/STM32F10x_StdPeriph_Driver/src/stm32f10x_usart.c **** void USART_IrDAConfig(USART_TypeDef* USARTx, uint16_t USART_IrDAMode)
 815:firmware/STM32F10x_StdPeriph_Lib_V3.3.0/Libraries/STM32F10x_StdPeriph_Driver/src/stm32f10x_usart.c **** {
 1009              		.loc 1 815 0
 1010              		.cfi_startproc
 1011              		@ args = 0, pretend = 0, frame = 0
 1012              		@ frame_needed = 0, uses_anonymous_args = 0
 1013              		@ link register save eliminated.
 1014              	.LVL69:
 816:firmware/STM32F10x_StdPeriph_Lib_V3.3.0/Libraries/STM32F10x_StdPeriph_Driver/src/stm32f10x_usart.c ****   /* Check the parameters */
 817:firmware/STM32F10x_StdPeriph_Lib_V3.3.0/Libraries/STM32F10x_StdPeriph_Driver/src/stm32f10x_usart.c ****   assert_param(IS_USART_ALL_PERIPH(USARTx));
 818:firmware/STM32F10x_StdPeriph_Lib_V3.3.0/Libraries/STM32F10x_StdPeriph_Driver/src/stm32f10x_usart.c ****   assert_param(IS_USART_IRDA_MODE(USART_IrDAMode));
 819:firmware/STM32F10x_StdPeriph_Lib_V3.3.0/Libraries/STM32F10x_StdPeriph_Driver/src/stm32f10x_usart.c ****     
 820:firmware/STM32F10x_StdPeriph_Lib_V3.3.0/Libraries/STM32F10x_StdPeriph_Driver/src/stm32f10x_usart.c ****   USARTx->CR3 &= CR3_IRLP_Mask;
 1015              		.loc 1 820 0
 1016 0000 838A     		ldrh	r3, [r0, #20]
 1017 0002 23F00403 		bic	r3, r3, #4
 1018 0006 1B04     		lsls	r3, r3, #16
 1019 0008 1B0C     		lsrs	r3, r3, #16
 1020 000a 8382     		strh	r3, [r0, #20]	@ movhi
 821:firmware/STM32F10x_StdPeriph_Lib_V3.3.0/Libraries/STM32F10x_StdPeriph_Driver/src/stm32f10x_usart.c ****   USARTx->CR3 |= USART_IrDAMode;
 1021              		.loc 1 821 0
 1022 000c 838A     		ldrh	r3, [r0, #20]
 1023 000e 9BB2     		uxth	r3, r3
 1024 0010 41EA0303 		orr	r3, r1, r3
 1025 0014 8382     		strh	r3, [r0, #20]	@ movhi
 822:firmware/STM32F10x_StdPeriph_Lib_V3.3.0/Libraries/STM32F10x_StdPeriph_Driver/src/stm32f10x_usart.c **** }
 1026              		.loc 1 822 0
 1027 0016 7047     		bx	lr
 1028              		.cfi_endproc
 1029              	.LFE52:
 1031              		.section	.text.USART_IrDACmd,"ax",%progbits
 1032              		.align	1
 1033              		.global	USART_IrDACmd
 1034              		.thumb
 1035              		.thumb_func
 1037              	USART_IrDACmd:
 1038              	.LFB53:
 823:firmware/STM32F10x_StdPeriph_Lib_V3.3.0/Libraries/STM32F10x_StdPeriph_Driver/src/stm32f10x_usart.c **** 
 824:firmware/STM32F10x_StdPeriph_Lib_V3.3.0/Libraries/STM32F10x_StdPeriph_Driver/src/stm32f10x_usart.c **** /**
 825:firmware/STM32F10x_StdPeriph_Lib_V3.3.0/Libraries/STM32F10x_StdPeriph_Driver/src/stm32f10x_usart.c ****   * @brief  Enables or disables the USARTs IrDA interface.
 826:firmware/STM32F10x_StdPeriph_Lib_V3.3.0/Libraries/STM32F10x_StdPeriph_Driver/src/stm32f10x_usart.c ****   * @param  USARTx: Select the USART or the UART peripheral. 
 827:firmware/STM32F10x_StdPeriph_Lib_V3.3.0/Libraries/STM32F10x_StdPeriph_Driver/src/stm32f10x_usart.c ****   *   This parameter can be one of the following values:
 828:firmware/STM32F10x_StdPeriph_Lib_V3.3.0/Libraries/STM32F10x_StdPeriph_Driver/src/stm32f10x_usart.c ****   *   USART1, USART2, USART3, UART4 or UART5.
 829:firmware/STM32F10x_StdPeriph_Lib_V3.3.0/Libraries/STM32F10x_StdPeriph_Driver/src/stm32f10x_usart.c ****   * @param  NewState: new state of the IrDA mode.
 830:firmware/STM32F10x_StdPeriph_Lib_V3.3.0/Libraries/STM32F10x_StdPeriph_Driver/src/stm32f10x_usart.c ****   *   This parameter can be: ENABLE or DISABLE.
 831:firmware/STM32F10x_StdPeriph_Lib_V3.3.0/Libraries/STM32F10x_StdPeriph_Driver/src/stm32f10x_usart.c ****   * @retval None
 832:firmware/STM32F10x_StdPeriph_Lib_V3.3.0/Libraries/STM32F10x_StdPeriph_Driver/src/stm32f10x_usart.c ****   */
 833:firmware/STM32F10x_StdPeriph_Lib_V3.3.0/Libraries/STM32F10x_StdPeriph_Driver/src/stm32f10x_usart.c **** void USART_IrDACmd(USART_TypeDef* USARTx, FunctionalState NewState)
 834:firmware/STM32F10x_StdPeriph_Lib_V3.3.0/Libraries/STM32F10x_StdPeriph_Driver/src/stm32f10x_usart.c **** {
 1039              		.loc 1 834 0
 1040              		.cfi_startproc
 1041              		@ args = 0, pretend = 0, frame = 0
 1042              		@ frame_needed = 0, uses_anonymous_args = 0
 1043              		@ link register save eliminated.
 1044              	.LVL70:
 835:firmware/STM32F10x_StdPeriph_Lib_V3.3.0/Libraries/STM32F10x_StdPeriph_Driver/src/stm32f10x_usart.c ****   /* Check the parameters */
 836:firmware/STM32F10x_StdPeriph_Lib_V3.3.0/Libraries/STM32F10x_StdPeriph_Driver/src/stm32f10x_usart.c ****   assert_param(IS_USART_ALL_PERIPH(USARTx));
 837:firmware/STM32F10x_StdPeriph_Lib_V3.3.0/Libraries/STM32F10x_StdPeriph_Driver/src/stm32f10x_usart.c ****   assert_param(IS_FUNCTIONAL_STATE(NewState));
 838:firmware/STM32F10x_StdPeriph_Lib_V3.3.0/Libraries/STM32F10x_StdPeriph_Driver/src/stm32f10x_usart.c ****     
 839:firmware/STM32F10x_StdPeriph_Lib_V3.3.0/Libraries/STM32F10x_StdPeriph_Driver/src/stm32f10x_usart.c ****   if (NewState != DISABLE)
 1045              		.loc 1 839 0
 1046 0000 21B1     		cbz	r1, .L77
 840:firmware/STM32F10x_StdPeriph_Lib_V3.3.0/Libraries/STM32F10x_StdPeriph_Driver/src/stm32f10x_usart.c ****   {
 841:firmware/STM32F10x_StdPeriph_Lib_V3.3.0/Libraries/STM32F10x_StdPeriph_Driver/src/stm32f10x_usart.c ****     /* Enable the IrDA mode by setting the IREN bit in the CR3 register */
 842:firmware/STM32F10x_StdPeriph_Lib_V3.3.0/Libraries/STM32F10x_StdPeriph_Driver/src/stm32f10x_usart.c ****     USARTx->CR3 |= CR3_IREN_Set;
 1047              		.loc 1 842 0
 1048 0002 838A     		ldrh	r3, [r0, #20]
 1049 0004 9BB2     		uxth	r3, r3
 1050 0006 43F00203 		orr	r3, r3, #2
 1051 000a 04E0     		b	.L79
 1052              	.L77:
 843:firmware/STM32F10x_StdPeriph_Lib_V3.3.0/Libraries/STM32F10x_StdPeriph_Driver/src/stm32f10x_usart.c ****   }
 844:firmware/STM32F10x_StdPeriph_Lib_V3.3.0/Libraries/STM32F10x_StdPeriph_Driver/src/stm32f10x_usart.c ****   else
 845:firmware/STM32F10x_StdPeriph_Lib_V3.3.0/Libraries/STM32F10x_StdPeriph_Driver/src/stm32f10x_usart.c ****   {
 846:firmware/STM32F10x_StdPeriph_Lib_V3.3.0/Libraries/STM32F10x_StdPeriph_Driver/src/stm32f10x_usart.c ****     /* Disable the IrDA mode by clearing the IREN bit in the CR3 register */
 847:firmware/STM32F10x_StdPeriph_Lib_V3.3.0/Libraries/STM32F10x_StdPeriph_Driver/src/stm32f10x_usart.c ****     USARTx->CR3 &= CR3_IREN_Reset;
 1053              		.loc 1 847 0
 1054 000c 838A     		ldrh	r3, [r0, #20]
 1055 000e 23F00203 		bic	r3, r3, #2
 1056 0012 1B04     		lsls	r3, r3, #16
 1057 0014 1B0C     		lsrs	r3, r3, #16
 1058              	.L79:
 1059 0016 8382     		strh	r3, [r0, #20]	@ movhi
 1060 0018 7047     		bx	lr
 1061              		.cfi_endproc
 1062              	.LFE53:
 1064              		.section	.text.USART_GetFlagStatus,"ax",%progbits
 1065              		.align	1
 1066              		.global	USART_GetFlagStatus
 1067              		.thumb
 1068              		.thumb_func
 1070              	USART_GetFlagStatus:
 1071              	.LFB54:
 848:firmware/STM32F10x_StdPeriph_Lib_V3.3.0/Libraries/STM32F10x_StdPeriph_Driver/src/stm32f10x_usart.c ****   }
 849:firmware/STM32F10x_StdPeriph_Lib_V3.3.0/Libraries/STM32F10x_StdPeriph_Driver/src/stm32f10x_usart.c **** }
 850:firmware/STM32F10x_StdPeriph_Lib_V3.3.0/Libraries/STM32F10x_StdPeriph_Driver/src/stm32f10x_usart.c **** 
 851:firmware/STM32F10x_StdPeriph_Lib_V3.3.0/Libraries/STM32F10x_StdPeriph_Driver/src/stm32f10x_usart.c **** /**
 852:firmware/STM32F10x_StdPeriph_Lib_V3.3.0/Libraries/STM32F10x_StdPeriph_Driver/src/stm32f10x_usart.c ****   * @brief  Checks whether the specified USART flag is set or not.
 853:firmware/STM32F10x_StdPeriph_Lib_V3.3.0/Libraries/STM32F10x_StdPeriph_Driver/src/stm32f10x_usart.c ****   * @param  USARTx: Select the USART or the UART peripheral. 
 854:firmware/STM32F10x_StdPeriph_Lib_V3.3.0/Libraries/STM32F10x_StdPeriph_Driver/src/stm32f10x_usart.c ****   *   This parameter can be one of the following values:
 855:firmware/STM32F10x_StdPeriph_Lib_V3.3.0/Libraries/STM32F10x_StdPeriph_Driver/src/stm32f10x_usart.c ****   *   USART1, USART2, USART3, UART4 or UART5.
 856:firmware/STM32F10x_StdPeriph_Lib_V3.3.0/Libraries/STM32F10x_StdPeriph_Driver/src/stm32f10x_usart.c ****   * @param  USART_FLAG: specifies the flag to check.
 857:firmware/STM32F10x_StdPeriph_Lib_V3.3.0/Libraries/STM32F10x_StdPeriph_Driver/src/stm32f10x_usart.c ****   *   This parameter can be one of the following values:
 858:firmware/STM32F10x_StdPeriph_Lib_V3.3.0/Libraries/STM32F10x_StdPeriph_Driver/src/stm32f10x_usart.c ****   *     @arg USART_FLAG_CTS:  CTS Change flag (not available for UART4 and UART5)
 859:firmware/STM32F10x_StdPeriph_Lib_V3.3.0/Libraries/STM32F10x_StdPeriph_Driver/src/stm32f10x_usart.c ****   *     @arg USART_FLAG_LBD:  LIN Break detection flag
 860:firmware/STM32F10x_StdPeriph_Lib_V3.3.0/Libraries/STM32F10x_StdPeriph_Driver/src/stm32f10x_usart.c ****   *     @arg USART_FLAG_TXE:  Transmit data register empty flag
 861:firmware/STM32F10x_StdPeriph_Lib_V3.3.0/Libraries/STM32F10x_StdPeriph_Driver/src/stm32f10x_usart.c ****   *     @arg USART_FLAG_TC:   Transmission Complete flag
 862:firmware/STM32F10x_StdPeriph_Lib_V3.3.0/Libraries/STM32F10x_StdPeriph_Driver/src/stm32f10x_usart.c ****   *     @arg USART_FLAG_RXNE: Receive data register not empty flag
 863:firmware/STM32F10x_StdPeriph_Lib_V3.3.0/Libraries/STM32F10x_StdPeriph_Driver/src/stm32f10x_usart.c ****   *     @arg USART_FLAG_IDLE: Idle Line detection flag
 864:firmware/STM32F10x_StdPeriph_Lib_V3.3.0/Libraries/STM32F10x_StdPeriph_Driver/src/stm32f10x_usart.c ****   *     @arg USART_FLAG_ORE:  OverRun Error flag
 865:firmware/STM32F10x_StdPeriph_Lib_V3.3.0/Libraries/STM32F10x_StdPeriph_Driver/src/stm32f10x_usart.c ****   *     @arg USART_FLAG_NE:   Noise Error flag
 866:firmware/STM32F10x_StdPeriph_Lib_V3.3.0/Libraries/STM32F10x_StdPeriph_Driver/src/stm32f10x_usart.c ****   *     @arg USART_FLAG_FE:   Framing Error flag
 867:firmware/STM32F10x_StdPeriph_Lib_V3.3.0/Libraries/STM32F10x_StdPeriph_Driver/src/stm32f10x_usart.c ****   *     @arg USART_FLAG_PE:   Parity Error flag
 868:firmware/STM32F10x_StdPeriph_Lib_V3.3.0/Libraries/STM32F10x_StdPeriph_Driver/src/stm32f10x_usart.c ****   * @retval The new state of USART_FLAG (SET or RESET).
 869:firmware/STM32F10x_StdPeriph_Lib_V3.3.0/Libraries/STM32F10x_StdPeriph_Driver/src/stm32f10x_usart.c ****   */
 870:firmware/STM32F10x_StdPeriph_Lib_V3.3.0/Libraries/STM32F10x_StdPeriph_Driver/src/stm32f10x_usart.c **** FlagStatus USART_GetFlagStatus(USART_TypeDef* USARTx, uint16_t USART_FLAG)
 871:firmware/STM32F10x_StdPeriph_Lib_V3.3.0/Libraries/STM32F10x_StdPeriph_Driver/src/stm32f10x_usart.c **** {
 1072              		.loc 1 871 0
 1073              		.cfi_startproc
 1074              		@ args = 0, pretend = 0, frame = 0
 1075              		@ frame_needed = 0, uses_anonymous_args = 0
 1076              		@ link register save eliminated.
 1077              	.LVL71:
 872:firmware/STM32F10x_StdPeriph_Lib_V3.3.0/Libraries/STM32F10x_StdPeriph_Driver/src/stm32f10x_usart.c ****   FlagStatus bitstatus = RESET;
 873:firmware/STM32F10x_StdPeriph_Lib_V3.3.0/Libraries/STM32F10x_StdPeriph_Driver/src/stm32f10x_usart.c ****   /* Check the parameters */
 874:firmware/STM32F10x_StdPeriph_Lib_V3.3.0/Libraries/STM32F10x_StdPeriph_Driver/src/stm32f10x_usart.c ****   assert_param(IS_USART_ALL_PERIPH(USARTx));
 875:firmware/STM32F10x_StdPeriph_Lib_V3.3.0/Libraries/STM32F10x_StdPeriph_Driver/src/stm32f10x_usart.c ****   assert_param(IS_USART_FLAG(USART_FLAG));
 876:firmware/STM32F10x_StdPeriph_Lib_V3.3.0/Libraries/STM32F10x_StdPeriph_Driver/src/stm32f10x_usart.c ****   /* The CTS flag is not available for UART4 and UART5 */
 877:firmware/STM32F10x_StdPeriph_Lib_V3.3.0/Libraries/STM32F10x_StdPeriph_Driver/src/stm32f10x_usart.c ****   if (USART_FLAG == USART_FLAG_CTS)
 878:firmware/STM32F10x_StdPeriph_Lib_V3.3.0/Libraries/STM32F10x_StdPeriph_Driver/src/stm32f10x_usart.c ****   {
 879:firmware/STM32F10x_StdPeriph_Lib_V3.3.0/Libraries/STM32F10x_StdPeriph_Driver/src/stm32f10x_usart.c ****     assert_param(IS_USART_123_PERIPH(USARTx));
 880:firmware/STM32F10x_StdPeriph_Lib_V3.3.0/Libraries/STM32F10x_StdPeriph_Driver/src/stm32f10x_usart.c ****   }  
 881:firmware/STM32F10x_StdPeriph_Lib_V3.3.0/Libraries/STM32F10x_StdPeriph_Driver/src/stm32f10x_usart.c ****   
 882:firmware/STM32F10x_StdPeriph_Lib_V3.3.0/Libraries/STM32F10x_StdPeriph_Driver/src/stm32f10x_usart.c ****   if ((USARTx->SR & USART_FLAG) != (uint16_t)RESET)
 1078              		.loc 1 882 0
 1079 0000 0388     		ldrh	r3, [r0, #0]
 1080              	.LVL72:
 883:firmware/STM32F10x_StdPeriph_Lib_V3.3.0/Libraries/STM32F10x_StdPeriph_Driver/src/stm32f10x_usart.c ****   {
 884:firmware/STM32F10x_StdPeriph_Lib_V3.3.0/Libraries/STM32F10x_StdPeriph_Driver/src/stm32f10x_usart.c ****     bitstatus = SET;
 1081              		.loc 1 884 0
 1082 0002 1942     		tst	r1, r3
 885:firmware/STM32F10x_StdPeriph_Lib_V3.3.0/Libraries/STM32F10x_StdPeriph_Driver/src/stm32f10x_usart.c ****   }
 886:firmware/STM32F10x_StdPeriph_Lib_V3.3.0/Libraries/STM32F10x_StdPeriph_Driver/src/stm32f10x_usart.c ****   else
 887:firmware/STM32F10x_StdPeriph_Lib_V3.3.0/Libraries/STM32F10x_StdPeriph_Driver/src/stm32f10x_usart.c ****   {
 888:firmware/STM32F10x_StdPeriph_Lib_V3.3.0/Libraries/STM32F10x_StdPeriph_Driver/src/stm32f10x_usart.c ****     bitstatus = RESET;
 889:firmware/STM32F10x_StdPeriph_Lib_V3.3.0/Libraries/STM32F10x_StdPeriph_Driver/src/stm32f10x_usart.c ****   }
 890:firmware/STM32F10x_StdPeriph_Lib_V3.3.0/Libraries/STM32F10x_StdPeriph_Driver/src/stm32f10x_usart.c ****   return bitstatus;
 891:firmware/STM32F10x_StdPeriph_Lib_V3.3.0/Libraries/STM32F10x_StdPeriph_Driver/src/stm32f10x_usart.c **** }
 1083              		.loc 1 891 0
 1084 0004 0CBF     		ite	eq
 1085 0006 0020     		moveq	r0, #0
 1086 0008 0120     		movne	r0, #1
 1087              	.LVL73:
 1088 000a 7047     		bx	lr
 1089              		.cfi_endproc
 1090              	.LFE54:
 1092              		.section	.text.USART_ClearFlag,"ax",%progbits
 1093              		.align	1
 1094              		.global	USART_ClearFlag
 1095              		.thumb
 1096              		.thumb_func
 1098              	USART_ClearFlag:
 1099              	.LFB55:
 892:firmware/STM32F10x_StdPeriph_Lib_V3.3.0/Libraries/STM32F10x_StdPeriph_Driver/src/stm32f10x_usart.c **** 
 893:firmware/STM32F10x_StdPeriph_Lib_V3.3.0/Libraries/STM32F10x_StdPeriph_Driver/src/stm32f10x_usart.c **** /**
 894:firmware/STM32F10x_StdPeriph_Lib_V3.3.0/Libraries/STM32F10x_StdPeriph_Driver/src/stm32f10x_usart.c ****   * @brief  Clears the USARTx's pending flags.
 895:firmware/STM32F10x_StdPeriph_Lib_V3.3.0/Libraries/STM32F10x_StdPeriph_Driver/src/stm32f10x_usart.c ****   * @param  USARTx: Select the USART or the UART peripheral. 
 896:firmware/STM32F10x_StdPeriph_Lib_V3.3.0/Libraries/STM32F10x_StdPeriph_Driver/src/stm32f10x_usart.c ****   *   This parameter can be one of the following values:
 897:firmware/STM32F10x_StdPeriph_Lib_V3.3.0/Libraries/STM32F10x_StdPeriph_Driver/src/stm32f10x_usart.c ****   *   USART1, USART2, USART3, UART4 or UART5.
 898:firmware/STM32F10x_StdPeriph_Lib_V3.3.0/Libraries/STM32F10x_StdPeriph_Driver/src/stm32f10x_usart.c ****   * @param  USART_FLAG: specifies the flag to clear.
 899:firmware/STM32F10x_StdPeriph_Lib_V3.3.0/Libraries/STM32F10x_StdPeriph_Driver/src/stm32f10x_usart.c ****   *   This parameter can be any combination of the following values:
 900:firmware/STM32F10x_StdPeriph_Lib_V3.3.0/Libraries/STM32F10x_StdPeriph_Driver/src/stm32f10x_usart.c ****   *     @arg USART_FLAG_CTS:  CTS Change flag (not available for UART4 and UART5).
 901:firmware/STM32F10x_StdPeriph_Lib_V3.3.0/Libraries/STM32F10x_StdPeriph_Driver/src/stm32f10x_usart.c ****   *     @arg USART_FLAG_LBD:  LIN Break detection flag.
 902:firmware/STM32F10x_StdPeriph_Lib_V3.3.0/Libraries/STM32F10x_StdPeriph_Driver/src/stm32f10x_usart.c ****   *     @arg USART_FLAG_TC:   Transmission Complete flag.
 903:firmware/STM32F10x_StdPeriph_Lib_V3.3.0/Libraries/STM32F10x_StdPeriph_Driver/src/stm32f10x_usart.c ****   *     @arg USART_FLAG_RXNE: Receive data register not empty flag.
 904:firmware/STM32F10x_StdPeriph_Lib_V3.3.0/Libraries/STM32F10x_StdPeriph_Driver/src/stm32f10x_usart.c ****   *   
 905:firmware/STM32F10x_StdPeriph_Lib_V3.3.0/Libraries/STM32F10x_StdPeriph_Driver/src/stm32f10x_usart.c ****   * @note
 906:firmware/STM32F10x_StdPeriph_Lib_V3.3.0/Libraries/STM32F10x_StdPeriph_Driver/src/stm32f10x_usart.c ****   *   - PE (Parity error), FE (Framing error), NE (Noise error), ORE (OverRun 
 907:firmware/STM32F10x_StdPeriph_Lib_V3.3.0/Libraries/STM32F10x_StdPeriph_Driver/src/stm32f10x_usart.c ****   *     error) and IDLE (Idle line detected) flags are cleared by software 
 908:firmware/STM32F10x_StdPeriph_Lib_V3.3.0/Libraries/STM32F10x_StdPeriph_Driver/src/stm32f10x_usart.c ****   *     sequence: a read operation to USART_SR register (USART_GetFlagStatus()) 
 909:firmware/STM32F10x_StdPeriph_Lib_V3.3.0/Libraries/STM32F10x_StdPeriph_Driver/src/stm32f10x_usart.c ****   *     followed by a read operation to USART_DR register (USART_ReceiveData()).
 910:firmware/STM32F10x_StdPeriph_Lib_V3.3.0/Libraries/STM32F10x_StdPeriph_Driver/src/stm32f10x_usart.c ****   *   - RXNE flag can be also cleared by a read to the USART_DR register 
 911:firmware/STM32F10x_StdPeriph_Lib_V3.3.0/Libraries/STM32F10x_StdPeriph_Driver/src/stm32f10x_usart.c ****   *     (USART_ReceiveData()).
 912:firmware/STM32F10x_StdPeriph_Lib_V3.3.0/Libraries/STM32F10x_StdPeriph_Driver/src/stm32f10x_usart.c ****   *   - TC flag can be also cleared by software sequence: a read operation to 
 913:firmware/STM32F10x_StdPeriph_Lib_V3.3.0/Libraries/STM32F10x_StdPeriph_Driver/src/stm32f10x_usart.c ****   *     USART_SR register (USART_GetFlagStatus()) followed by a write operation
 914:firmware/STM32F10x_StdPeriph_Lib_V3.3.0/Libraries/STM32F10x_StdPeriph_Driver/src/stm32f10x_usart.c ****   *     to USART_DR register (USART_SendData()).
 915:firmware/STM32F10x_StdPeriph_Lib_V3.3.0/Libraries/STM32F10x_StdPeriph_Driver/src/stm32f10x_usart.c ****   *   - TXE flag is cleared only by a write to the USART_DR register 
 916:firmware/STM32F10x_StdPeriph_Lib_V3.3.0/Libraries/STM32F10x_StdPeriph_Driver/src/stm32f10x_usart.c ****   *     (USART_SendData()).
 917:firmware/STM32F10x_StdPeriph_Lib_V3.3.0/Libraries/STM32F10x_StdPeriph_Driver/src/stm32f10x_usart.c ****   * @retval None
 918:firmware/STM32F10x_StdPeriph_Lib_V3.3.0/Libraries/STM32F10x_StdPeriph_Driver/src/stm32f10x_usart.c ****   */
 919:firmware/STM32F10x_StdPeriph_Lib_V3.3.0/Libraries/STM32F10x_StdPeriph_Driver/src/stm32f10x_usart.c **** void USART_ClearFlag(USART_TypeDef* USARTx, uint16_t USART_FLAG)
 920:firmware/STM32F10x_StdPeriph_Lib_V3.3.0/Libraries/STM32F10x_StdPeriph_Driver/src/stm32f10x_usart.c **** {
 1100              		.loc 1 920 0
 1101              		.cfi_startproc
 1102              		@ args = 0, pretend = 0, frame = 0
 1103              		@ frame_needed = 0, uses_anonymous_args = 0
 1104              		@ link register save eliminated.
 1105              	.LVL74:
 921:firmware/STM32F10x_StdPeriph_Lib_V3.3.0/Libraries/STM32F10x_StdPeriph_Driver/src/stm32f10x_usart.c ****   /* Check the parameters */
 922:firmware/STM32F10x_StdPeriph_Lib_V3.3.0/Libraries/STM32F10x_StdPeriph_Driver/src/stm32f10x_usart.c ****   assert_param(IS_USART_ALL_PERIPH(USARTx));
 923:firmware/STM32F10x_StdPeriph_Lib_V3.3.0/Libraries/STM32F10x_StdPeriph_Driver/src/stm32f10x_usart.c ****   assert_param(IS_USART_CLEAR_FLAG(USART_FLAG));
 924:firmware/STM32F10x_StdPeriph_Lib_V3.3.0/Libraries/STM32F10x_StdPeriph_Driver/src/stm32f10x_usart.c ****   /* The CTS flag is not available for UART4 and UART5 */
 925:firmware/STM32F10x_StdPeriph_Lib_V3.3.0/Libraries/STM32F10x_StdPeriph_Driver/src/stm32f10x_usart.c ****   if ((USART_FLAG & USART_FLAG_CTS) == USART_FLAG_CTS)
 926:firmware/STM32F10x_StdPeriph_Lib_V3.3.0/Libraries/STM32F10x_StdPeriph_Driver/src/stm32f10x_usart.c ****   {
 927:firmware/STM32F10x_StdPeriph_Lib_V3.3.0/Libraries/STM32F10x_StdPeriph_Driver/src/stm32f10x_usart.c ****     assert_param(IS_USART_123_PERIPH(USARTx));
 928:firmware/STM32F10x_StdPeriph_Lib_V3.3.0/Libraries/STM32F10x_StdPeriph_Driver/src/stm32f10x_usart.c ****   } 
 929:firmware/STM32F10x_StdPeriph_Lib_V3.3.0/Libraries/STM32F10x_StdPeriph_Driver/src/stm32f10x_usart.c ****    
 930:firmware/STM32F10x_StdPeriph_Lib_V3.3.0/Libraries/STM32F10x_StdPeriph_Driver/src/stm32f10x_usart.c ****   USARTx->SR = (uint16_t)~USART_FLAG;
 1106              		.loc 1 930 0
 1107 0000 C943     		mvns	r1, r1
 1108              	.LVL75:
 1109 0002 89B2     		uxth	r1, r1
 1110 0004 0180     		strh	r1, [r0, #0]	@ movhi
 931:firmware/STM32F10x_StdPeriph_Lib_V3.3.0/Libraries/STM32F10x_StdPeriph_Driver/src/stm32f10x_usart.c **** }
 1111              		.loc 1 931 0
 1112 0006 7047     		bx	lr
 1113              		.cfi_endproc
 1114              	.LFE55:
 1116              		.section	.text.USART_GetITStatus,"ax",%progbits
 1117              		.align	1
 1118              		.global	USART_GetITStatus
 1119              		.thumb
 1120              		.thumb_func
 1122              	USART_GetITStatus:
 1123              	.LFB56:
 932:firmware/STM32F10x_StdPeriph_Lib_V3.3.0/Libraries/STM32F10x_StdPeriph_Driver/src/stm32f10x_usart.c **** 
 933:firmware/STM32F10x_StdPeriph_Lib_V3.3.0/Libraries/STM32F10x_StdPeriph_Driver/src/stm32f10x_usart.c **** /**
 934:firmware/STM32F10x_StdPeriph_Lib_V3.3.0/Libraries/STM32F10x_StdPeriph_Driver/src/stm32f10x_usart.c ****   * @brief  Checks whether the specified USART interrupt has occurred or not.
 935:firmware/STM32F10x_StdPeriph_Lib_V3.3.0/Libraries/STM32F10x_StdPeriph_Driver/src/stm32f10x_usart.c ****   * @param  USARTx: Select the USART or the UART peripheral. 
 936:firmware/STM32F10x_StdPeriph_Lib_V3.3.0/Libraries/STM32F10x_StdPeriph_Driver/src/stm32f10x_usart.c ****   *   This parameter can be one of the following values:
 937:firmware/STM32F10x_StdPeriph_Lib_V3.3.0/Libraries/STM32F10x_StdPeriph_Driver/src/stm32f10x_usart.c ****   *   USART1, USART2, USART3, UART4 or UART5.
 938:firmware/STM32F10x_StdPeriph_Lib_V3.3.0/Libraries/STM32F10x_StdPeriph_Driver/src/stm32f10x_usart.c ****   * @param  USART_IT: specifies the USART interrupt source to check.
 939:firmware/STM32F10x_StdPeriph_Lib_V3.3.0/Libraries/STM32F10x_StdPeriph_Driver/src/stm32f10x_usart.c ****   *   This parameter can be one of the following values:
 940:firmware/STM32F10x_StdPeriph_Lib_V3.3.0/Libraries/STM32F10x_StdPeriph_Driver/src/stm32f10x_usart.c ****   *     @arg USART_IT_CTS:  CTS change interrupt (not available for UART4 and UART5)
 941:firmware/STM32F10x_StdPeriph_Lib_V3.3.0/Libraries/STM32F10x_StdPeriph_Driver/src/stm32f10x_usart.c ****   *     @arg USART_IT_LBD:  LIN Break detection interrupt
 942:firmware/STM32F10x_StdPeriph_Lib_V3.3.0/Libraries/STM32F10x_StdPeriph_Driver/src/stm32f10x_usart.c ****   *     @arg USART_IT_TXE:  Tansmit Data Register empty interrupt
 943:firmware/STM32F10x_StdPeriph_Lib_V3.3.0/Libraries/STM32F10x_StdPeriph_Driver/src/stm32f10x_usart.c ****   *     @arg USART_IT_TC:   Transmission complete interrupt
 944:firmware/STM32F10x_StdPeriph_Lib_V3.3.0/Libraries/STM32F10x_StdPeriph_Driver/src/stm32f10x_usart.c ****   *     @arg USART_IT_RXNE: Receive Data register not empty interrupt
 945:firmware/STM32F10x_StdPeriph_Lib_V3.3.0/Libraries/STM32F10x_StdPeriph_Driver/src/stm32f10x_usart.c ****   *     @arg USART_IT_IDLE: Idle line detection interrupt
 946:firmware/STM32F10x_StdPeriph_Lib_V3.3.0/Libraries/STM32F10x_StdPeriph_Driver/src/stm32f10x_usart.c ****   *     @arg USART_IT_ORE:  OverRun Error interrupt
 947:firmware/STM32F10x_StdPeriph_Lib_V3.3.0/Libraries/STM32F10x_StdPeriph_Driver/src/stm32f10x_usart.c ****   *     @arg USART_IT_NE:   Noise Error interrupt
 948:firmware/STM32F10x_StdPeriph_Lib_V3.3.0/Libraries/STM32F10x_StdPeriph_Driver/src/stm32f10x_usart.c ****   *     @arg USART_IT_FE:   Framing Error interrupt
 949:firmware/STM32F10x_StdPeriph_Lib_V3.3.0/Libraries/STM32F10x_StdPeriph_Driver/src/stm32f10x_usart.c ****   *     @arg USART_IT_PE:   Parity Error interrupt
 950:firmware/STM32F10x_StdPeriph_Lib_V3.3.0/Libraries/STM32F10x_StdPeriph_Driver/src/stm32f10x_usart.c ****   * @retval The new state of USART_IT (SET or RESET).
 951:firmware/STM32F10x_StdPeriph_Lib_V3.3.0/Libraries/STM32F10x_StdPeriph_Driver/src/stm32f10x_usart.c ****   */
 952:firmware/STM32F10x_StdPeriph_Lib_V3.3.0/Libraries/STM32F10x_StdPeriph_Driver/src/stm32f10x_usart.c **** ITStatus USART_GetITStatus(USART_TypeDef* USARTx, uint16_t USART_IT)
 953:firmware/STM32F10x_StdPeriph_Lib_V3.3.0/Libraries/STM32F10x_StdPeriph_Driver/src/stm32f10x_usart.c **** {
 1124              		.loc 1 953 0
 1125              		.cfi_startproc
 1126              		@ args = 0, pretend = 0, frame = 0
 1127              		@ frame_needed = 0, uses_anonymous_args = 0
 1128              	.LVL76:
 1129 0000 10B5     		push	{r4, lr}
 1130              	.LCFI5:
 1131              		.cfi_def_cfa_offset 8
 954:firmware/STM32F10x_StdPeriph_Lib_V3.3.0/Libraries/STM32F10x_StdPeriph_Driver/src/stm32f10x_usart.c ****   uint32_t bitpos = 0x00, itmask = 0x00, usartreg = 0x00;
 955:firmware/STM32F10x_StdPeriph_Lib_V3.3.0/Libraries/STM32F10x_StdPeriph_Driver/src/stm32f10x_usart.c ****   ITStatus bitstatus = RESET;
 956:firmware/STM32F10x_StdPeriph_Lib_V3.3.0/Libraries/STM32F10x_StdPeriph_Driver/src/stm32f10x_usart.c ****   /* Check the parameters */
 957:firmware/STM32F10x_StdPeriph_Lib_V3.3.0/Libraries/STM32F10x_StdPeriph_Driver/src/stm32f10x_usart.c ****   assert_param(IS_USART_ALL_PERIPH(USARTx));
 958:firmware/STM32F10x_StdPeriph_Lib_V3.3.0/Libraries/STM32F10x_StdPeriph_Driver/src/stm32f10x_usart.c ****   assert_param(IS_USART_GET_IT(USART_IT));
 959:firmware/STM32F10x_StdPeriph_Lib_V3.3.0/Libraries/STM32F10x_StdPeriph_Driver/src/stm32f10x_usart.c ****   /* The CTS interrupt is not available for UART4 and UART5 */ 
 960:firmware/STM32F10x_StdPeriph_Lib_V3.3.0/Libraries/STM32F10x_StdPeriph_Driver/src/stm32f10x_usart.c ****   if (USART_IT == USART_IT_CTS)
 961:firmware/STM32F10x_StdPeriph_Lib_V3.3.0/Libraries/STM32F10x_StdPeriph_Driver/src/stm32f10x_usart.c ****   {
 962:firmware/STM32F10x_StdPeriph_Lib_V3.3.0/Libraries/STM32F10x_StdPeriph_Driver/src/stm32f10x_usart.c ****     assert_param(IS_USART_123_PERIPH(USARTx));
 963:firmware/STM32F10x_StdPeriph_Lib_V3.3.0/Libraries/STM32F10x_StdPeriph_Driver/src/stm32f10x_usart.c ****   }   
 964:firmware/STM32F10x_StdPeriph_Lib_V3.3.0/Libraries/STM32F10x_StdPeriph_Driver/src/stm32f10x_usart.c ****   
 965:firmware/STM32F10x_StdPeriph_Lib_V3.3.0/Libraries/STM32F10x_StdPeriph_Driver/src/stm32f10x_usart.c ****   /* Get the USART register index */
 966:firmware/STM32F10x_StdPeriph_Lib_V3.3.0/Libraries/STM32F10x_StdPeriph_Driver/src/stm32f10x_usart.c ****   usartreg = (((uint8_t)USART_IT) >> 0x05);
 1132              		.loc 1 966 0
 1133 0002 CCB2     		uxtb	r4, r1
 1134              		.cfi_offset 14, -4
 1135              		.cfi_offset 4, -8
 967:firmware/STM32F10x_StdPeriph_Lib_V3.3.0/Libraries/STM32F10x_StdPeriph_Driver/src/stm32f10x_usart.c ****   /* Get the interrupt position */
 968:firmware/STM32F10x_StdPeriph_Lib_V3.3.0/Libraries/STM32F10x_StdPeriph_Driver/src/stm32f10x_usart.c ****   itmask = USART_IT & IT_Mask;
 969:firmware/STM32F10x_StdPeriph_Lib_V3.3.0/Libraries/STM32F10x_StdPeriph_Driver/src/stm32f10x_usart.c ****   itmask = (uint32_t)0x01 << itmask;
 1136              		.loc 1 969 0
 1137 0004 0122     		movs	r2, #1
 966:firmware/STM32F10x_StdPeriph_Lib_V3.3.0/Libraries/STM32F10x_StdPeriph_Driver/src/stm32f10x_usart.c ****   usartreg = (((uint8_t)USART_IT) >> 0x05);
 1138              		.loc 1 966 0
 1139 0006 6409     		lsrs	r4, r4, #5
 1140              	.LVL77:
 968:firmware/STM32F10x_StdPeriph_Lib_V3.3.0/Libraries/STM32F10x_StdPeriph_Driver/src/stm32f10x_usart.c ****   itmask = USART_IT & IT_Mask;
 1141              		.loc 1 968 0
 1142 0008 01F01F03 		and	r3, r1, #31
 1143              		.loc 1 969 0
 1144 000c 9A40     		lsls	r2, r2, r3
 1145              	.LVL78:
 970:firmware/STM32F10x_StdPeriph_Lib_V3.3.0/Libraries/STM32F10x_StdPeriph_Driver/src/stm32f10x_usart.c ****   
 971:firmware/STM32F10x_StdPeriph_Lib_V3.3.0/Libraries/STM32F10x_StdPeriph_Driver/src/stm32f10x_usart.c ****   if (usartreg == 0x01) /* The IT  is in CR1 register */
 1146              		.loc 1 971 0
 1147 000e 012C     		cmp	r4, #1
 1148 0010 01D1     		bne	.L83
 972:firmware/STM32F10x_StdPeriph_Lib_V3.3.0/Libraries/STM32F10x_StdPeriph_Driver/src/stm32f10x_usart.c ****   {
 973:firmware/STM32F10x_StdPeriph_Lib_V3.3.0/Libraries/STM32F10x_StdPeriph_Driver/src/stm32f10x_usart.c ****     itmask &= USARTx->CR1;
 1149              		.loc 1 973 0
 1150 0012 8389     		ldrh	r3, [r0, #12]
 1151 0014 03E0     		b	.L88
 1152              	.L83:
 974:firmware/STM32F10x_StdPeriph_Lib_V3.3.0/Libraries/STM32F10x_StdPeriph_Driver/src/stm32f10x_usart.c ****   }
 975:firmware/STM32F10x_StdPeriph_Lib_V3.3.0/Libraries/STM32F10x_StdPeriph_Driver/src/stm32f10x_usart.c ****   else if (usartreg == 0x02) /* The IT  is in CR2 register */
 1153              		.loc 1 975 0
 1154 0016 022C     		cmp	r4, #2
 976:firmware/STM32F10x_StdPeriph_Lib_V3.3.0/Libraries/STM32F10x_StdPeriph_Driver/src/stm32f10x_usart.c ****   {
 977:firmware/STM32F10x_StdPeriph_Lib_V3.3.0/Libraries/STM32F10x_StdPeriph_Driver/src/stm32f10x_usart.c ****     itmask &= USARTx->CR2;
 1155              		.loc 1 977 0
 1156 0018 0CBF     		ite	eq
 1157 001a 038A     		ldrheq	r3, [r0, #16]
 978:firmware/STM32F10x_StdPeriph_Lib_V3.3.0/Libraries/STM32F10x_StdPeriph_Driver/src/stm32f10x_usart.c ****   }
 979:firmware/STM32F10x_StdPeriph_Lib_V3.3.0/Libraries/STM32F10x_StdPeriph_Driver/src/stm32f10x_usart.c ****   else /* The IT  is in CR3 register */
 980:firmware/STM32F10x_StdPeriph_Lib_V3.3.0/Libraries/STM32F10x_StdPeriph_Driver/src/stm32f10x_usart.c ****   {
 981:firmware/STM32F10x_StdPeriph_Lib_V3.3.0/Libraries/STM32F10x_StdPeriph_Driver/src/stm32f10x_usart.c ****     itmask &= USARTx->CR3;
 1158              		.loc 1 981 0
 1159 001c 838A     		ldrhne	r3, [r0, #20]
 1160              	.L88:
 1161 001e 9BB2     		uxth	r3, r3
 1162 0020 02EA0303 		and	r3, r2, r3
 1163              	.LVL79:
 982:firmware/STM32F10x_StdPeriph_Lib_V3.3.0/Libraries/STM32F10x_StdPeriph_Driver/src/stm32f10x_usart.c ****   }
 983:firmware/STM32F10x_StdPeriph_Lib_V3.3.0/Libraries/STM32F10x_StdPeriph_Driver/src/stm32f10x_usart.c ****   
 984:firmware/STM32F10x_StdPeriph_Lib_V3.3.0/Libraries/STM32F10x_StdPeriph_Driver/src/stm32f10x_usart.c ****   bitpos = USART_IT >> 0x08;
 985:firmware/STM32F10x_StdPeriph_Lib_V3.3.0/Libraries/STM32F10x_StdPeriph_Driver/src/stm32f10x_usart.c ****   bitpos = (uint32_t)0x01 << bitpos;
 986:firmware/STM32F10x_StdPeriph_Lib_V3.3.0/Libraries/STM32F10x_StdPeriph_Driver/src/stm32f10x_usart.c ****   bitpos &= USARTx->SR;
 1164              		.loc 1 986 0
 1165 0024 0288     		ldrh	r2, [r0, #0]
 1166 0026 92B2     		uxth	r2, r2
 1167              	.LVL80:
 987:firmware/STM32F10x_StdPeriph_Lib_V3.3.0/Libraries/STM32F10x_StdPeriph_Driver/src/stm32f10x_usart.c ****   if ((itmask != (uint16_t)RESET)&&(bitpos != (uint16_t)RESET))
 1168              		.loc 1 987 0
 1169 0028 43B1     		cbz	r3, .L87
 984:firmware/STM32F10x_StdPeriph_Lib_V3.3.0/Libraries/STM32F10x_StdPeriph_Driver/src/stm32f10x_usart.c ****   bitpos = USART_IT >> 0x08;
 1170              		.loc 1 984 0 discriminator 1
 1171 002a 090A     		lsrs	r1, r1, #8
 1172              	.LVL81:
 985:firmware/STM32F10x_StdPeriph_Lib_V3.3.0/Libraries/STM32F10x_StdPeriph_Driver/src/stm32f10x_usart.c ****   bitpos = (uint32_t)0x01 << bitpos;
 1173              		.loc 1 985 0 discriminator 1
 1174 002c 0123     		movs	r3, #1
 1175              	.LVL82:
 1176 002e 13FA01F1 		lsls	r1, r3, r1
 952:firmware/STM32F10x_StdPeriph_Lib_V3.3.0/Libraries/STM32F10x_StdPeriph_Driver/src/stm32f10x_usart.c **** ITStatus USART_GetITStatus(USART_TypeDef* USARTx, uint16_t USART_IT)
 1177              		.loc 1 952 0 discriminator 1
 1178 0032 1142     		tst	r1, r2
 988:firmware/STM32F10x_StdPeriph_Lib_V3.3.0/Libraries/STM32F10x_StdPeriph_Driver/src/stm32f10x_usart.c ****   {
 989:firmware/STM32F10x_StdPeriph_Lib_V3.3.0/Libraries/STM32F10x_StdPeriph_Driver/src/stm32f10x_usart.c ****     bitstatus = SET;
 1179              		.loc 1 989 0 discriminator 1
 1180 0034 0CBF     		ite	eq
 1181 0036 0020     		moveq	r0, #0
 1182 0038 0120     		movne	r0, #1
 1183              	.LVL83:
 1184 003a 10BD     		pop	{r4, pc}
 1185              	.LVL84:
 1186              	.L87:
 990:firmware/STM32F10x_StdPeriph_Lib_V3.3.0/Libraries/STM32F10x_StdPeriph_Driver/src/stm32f10x_usart.c ****   }
 991:firmware/STM32F10x_StdPeriph_Lib_V3.3.0/Libraries/STM32F10x_StdPeriph_Driver/src/stm32f10x_usart.c ****   else
 992:firmware/STM32F10x_StdPeriph_Lib_V3.3.0/Libraries/STM32F10x_StdPeriph_Driver/src/stm32f10x_usart.c ****   {
 993:firmware/STM32F10x_StdPeriph_Lib_V3.3.0/Libraries/STM32F10x_StdPeriph_Driver/src/stm32f10x_usart.c ****     bitstatus = RESET;
 1187              		.loc 1 993 0
 1188 003c 1846     		mov	r0, r3
 1189              	.LVL85:
 994:firmware/STM32F10x_StdPeriph_Lib_V3.3.0/Libraries/STM32F10x_StdPeriph_Driver/src/stm32f10x_usart.c ****   }
 995:firmware/STM32F10x_StdPeriph_Lib_V3.3.0/Libraries/STM32F10x_StdPeriph_Driver/src/stm32f10x_usart.c ****   
 996:firmware/STM32F10x_StdPeriph_Lib_V3.3.0/Libraries/STM32F10x_StdPeriph_Driver/src/stm32f10x_usart.c ****   return bitstatus;  
 997:firmware/STM32F10x_StdPeriph_Lib_V3.3.0/Libraries/STM32F10x_StdPeriph_Driver/src/stm32f10x_usart.c **** }
 1190              		.loc 1 997 0
 1191 003e 10BD     		pop	{r4, pc}
 1192              		.cfi_endproc
 1193              	.LFE56:
 1195              		.section	.text.USART_ClearITPendingBit,"ax",%progbits
 1196              		.align	1
 1197              		.global	USART_ClearITPendingBit
 1198              		.thumb
 1199              		.thumb_func
 1201              	USART_ClearITPendingBit:
 1202              	.LFB57:
 998:firmware/STM32F10x_StdPeriph_Lib_V3.3.0/Libraries/STM32F10x_StdPeriph_Driver/src/stm32f10x_usart.c **** 
 999:firmware/STM32F10x_StdPeriph_Lib_V3.3.0/Libraries/STM32F10x_StdPeriph_Driver/src/stm32f10x_usart.c **** /**
1000:firmware/STM32F10x_StdPeriph_Lib_V3.3.0/Libraries/STM32F10x_StdPeriph_Driver/src/stm32f10x_usart.c ****   * @brief  Clears the USARTxs interrupt pending bits.
1001:firmware/STM32F10x_StdPeriph_Lib_V3.3.0/Libraries/STM32F10x_StdPeriph_Driver/src/stm32f10x_usart.c ****   * @param  USARTx: Select the USART or the UART peripheral. 
1002:firmware/STM32F10x_StdPeriph_Lib_V3.3.0/Libraries/STM32F10x_StdPeriph_Driver/src/stm32f10x_usart.c ****   *   This parameter can be one of the following values:
1003:firmware/STM32F10x_StdPeriph_Lib_V3.3.0/Libraries/STM32F10x_StdPeriph_Driver/src/stm32f10x_usart.c ****   *   USART1, USART2, USART3, UART4 or UART5.
1004:firmware/STM32F10x_StdPeriph_Lib_V3.3.0/Libraries/STM32F10x_StdPeriph_Driver/src/stm32f10x_usart.c ****   * @param  USART_IT: specifies the interrupt pending bit to clear.
1005:firmware/STM32F10x_StdPeriph_Lib_V3.3.0/Libraries/STM32F10x_StdPeriph_Driver/src/stm32f10x_usart.c ****   *   This parameter can be one of the following values:
1006:firmware/STM32F10x_StdPeriph_Lib_V3.3.0/Libraries/STM32F10x_StdPeriph_Driver/src/stm32f10x_usart.c ****   *     @arg USART_IT_CTS:  CTS change interrupt (not available for UART4 and UART5)
1007:firmware/STM32F10x_StdPeriph_Lib_V3.3.0/Libraries/STM32F10x_StdPeriph_Driver/src/stm32f10x_usart.c ****   *     @arg USART_IT_LBD:  LIN Break detection interrupt
1008:firmware/STM32F10x_StdPeriph_Lib_V3.3.0/Libraries/STM32F10x_StdPeriph_Driver/src/stm32f10x_usart.c ****   *     @arg USART_IT_TC:   Transmission complete interrupt. 
1009:firmware/STM32F10x_StdPeriph_Lib_V3.3.0/Libraries/STM32F10x_StdPeriph_Driver/src/stm32f10x_usart.c ****   *     @arg USART_IT_RXNE: Receive Data register not empty interrupt.
1010:firmware/STM32F10x_StdPeriph_Lib_V3.3.0/Libraries/STM32F10x_StdPeriph_Driver/src/stm32f10x_usart.c ****   *   
1011:firmware/STM32F10x_StdPeriph_Lib_V3.3.0/Libraries/STM32F10x_StdPeriph_Driver/src/stm32f10x_usart.c ****   * @note
1012:firmware/STM32F10x_StdPeriph_Lib_V3.3.0/Libraries/STM32F10x_StdPeriph_Driver/src/stm32f10x_usart.c ****   *   - PE (Parity error), FE (Framing error), NE (Noise error), ORE (OverRun 
1013:firmware/STM32F10x_StdPeriph_Lib_V3.3.0/Libraries/STM32F10x_StdPeriph_Driver/src/stm32f10x_usart.c ****   *     error) and IDLE (Idle line detected) pending bits are cleared by 
1014:firmware/STM32F10x_StdPeriph_Lib_V3.3.0/Libraries/STM32F10x_StdPeriph_Driver/src/stm32f10x_usart.c ****   *     software sequence: a read operation to USART_SR register 
1015:firmware/STM32F10x_StdPeriph_Lib_V3.3.0/Libraries/STM32F10x_StdPeriph_Driver/src/stm32f10x_usart.c ****   *     (USART_GetITStatus()) followed by a read operation to USART_DR register 
1016:firmware/STM32F10x_StdPeriph_Lib_V3.3.0/Libraries/STM32F10x_StdPeriph_Driver/src/stm32f10x_usart.c ****   *     (USART_ReceiveData()).
1017:firmware/STM32F10x_StdPeriph_Lib_V3.3.0/Libraries/STM32F10x_StdPeriph_Driver/src/stm32f10x_usart.c ****   *   - RXNE pending bit can be also cleared by a read to the USART_DR register 
1018:firmware/STM32F10x_StdPeriph_Lib_V3.3.0/Libraries/STM32F10x_StdPeriph_Driver/src/stm32f10x_usart.c ****   *     (USART_ReceiveData()).
1019:firmware/STM32F10x_StdPeriph_Lib_V3.3.0/Libraries/STM32F10x_StdPeriph_Driver/src/stm32f10x_usart.c ****   *   - TC pending bit can be also cleared by software sequence: a read 
1020:firmware/STM32F10x_StdPeriph_Lib_V3.3.0/Libraries/STM32F10x_StdPeriph_Driver/src/stm32f10x_usart.c ****   *     operation to USART_SR register (USART_GetITStatus()) followed by a write 
1021:firmware/STM32F10x_StdPeriph_Lib_V3.3.0/Libraries/STM32F10x_StdPeriph_Driver/src/stm32f10x_usart.c ****   *     operation to USART_DR register (USART_SendData()).
1022:firmware/STM32F10x_StdPeriph_Lib_V3.3.0/Libraries/STM32F10x_StdPeriph_Driver/src/stm32f10x_usart.c ****   *   - TXE pending bit is cleared only by a write to the USART_DR register 
1023:firmware/STM32F10x_StdPeriph_Lib_V3.3.0/Libraries/STM32F10x_StdPeriph_Driver/src/stm32f10x_usart.c ****   *     (USART_SendData()).
1024:firmware/STM32F10x_StdPeriph_Lib_V3.3.0/Libraries/STM32F10x_StdPeriph_Driver/src/stm32f10x_usart.c ****   * @retval None
1025:firmware/STM32F10x_StdPeriph_Lib_V3.3.0/Libraries/STM32F10x_StdPeriph_Driver/src/stm32f10x_usart.c ****   */
1026:firmware/STM32F10x_StdPeriph_Lib_V3.3.0/Libraries/STM32F10x_StdPeriph_Driver/src/stm32f10x_usart.c **** void USART_ClearITPendingBit(USART_TypeDef* USARTx, uint16_t USART_IT)
1027:firmware/STM32F10x_StdPeriph_Lib_V3.3.0/Libraries/STM32F10x_StdPeriph_Driver/src/stm32f10x_usart.c **** {
 1203              		.loc 1 1027 0
 1204              		.cfi_startproc
 1205              		@ args = 0, pretend = 0, frame = 0
 1206              		@ frame_needed = 0, uses_anonymous_args = 0
 1207              		@ link register save eliminated.
 1208              	.LVL86:
1028:firmware/STM32F10x_StdPeriph_Lib_V3.3.0/Libraries/STM32F10x_StdPeriph_Driver/src/stm32f10x_usart.c ****   uint16_t bitpos = 0x00, itmask = 0x00;
1029:firmware/STM32F10x_StdPeriph_Lib_V3.3.0/Libraries/STM32F10x_StdPeriph_Driver/src/stm32f10x_usart.c ****   /* Check the parameters */
1030:firmware/STM32F10x_StdPeriph_Lib_V3.3.0/Libraries/STM32F10x_StdPeriph_Driver/src/stm32f10x_usart.c ****   assert_param(IS_USART_ALL_PERIPH(USARTx));
1031:firmware/STM32F10x_StdPeriph_Lib_V3.3.0/Libraries/STM32F10x_StdPeriph_Driver/src/stm32f10x_usart.c ****   assert_param(IS_USART_CLEAR_IT(USART_IT));
1032:firmware/STM32F10x_StdPeriph_Lib_V3.3.0/Libraries/STM32F10x_StdPeriph_Driver/src/stm32f10x_usart.c ****   /* The CTS interrupt is not available for UART4 and UART5 */
1033:firmware/STM32F10x_StdPeriph_Lib_V3.3.0/Libraries/STM32F10x_StdPeriph_Driver/src/stm32f10x_usart.c ****   if (USART_IT == USART_IT_CTS)
1034:firmware/STM32F10x_StdPeriph_Lib_V3.3.0/Libraries/STM32F10x_StdPeriph_Driver/src/stm32f10x_usart.c ****   {
1035:firmware/STM32F10x_StdPeriph_Lib_V3.3.0/Libraries/STM32F10x_StdPeriph_Driver/src/stm32f10x_usart.c ****     assert_param(IS_USART_123_PERIPH(USARTx));
1036:firmware/STM32F10x_StdPeriph_Lib_V3.3.0/Libraries/STM32F10x_StdPeriph_Driver/src/stm32f10x_usart.c ****   }   
1037:firmware/STM32F10x_StdPeriph_Lib_V3.3.0/Libraries/STM32F10x_StdPeriph_Driver/src/stm32f10x_usart.c ****   
1038:firmware/STM32F10x_StdPeriph_Lib_V3.3.0/Libraries/STM32F10x_StdPeriph_Driver/src/stm32f10x_usart.c ****   bitpos = USART_IT >> 0x08;
1039:firmware/STM32F10x_StdPeriph_Lib_V3.3.0/Libraries/STM32F10x_StdPeriph_Driver/src/stm32f10x_usart.c ****   itmask = ((uint16_t)0x01 << (uint16_t)bitpos);
 1209              		.loc 1 1039 0
 1210 0000 090A     		lsrs	r1, r1, #8
 1211              	.LVL87:
 1212 0002 0123     		movs	r3, #1
 1213 0004 8B40     		lsls	r3, r3, r1
1040:firmware/STM32F10x_StdPeriph_Lib_V3.3.0/Libraries/STM32F10x_StdPeriph_Driver/src/stm32f10x_usart.c ****   USARTx->SR = (uint16_t)~itmask;
 1214              		.loc 1 1040 0
 1215 0006 DB43     		mvns	r3, r3
 1216 0008 9BB2     		uxth	r3, r3
 1217 000a 0380     		strh	r3, [r0, #0]	@ movhi
1041:firmware/STM32F10x_StdPeriph_Lib_V3.3.0/Libraries/STM32F10x_StdPeriph_Driver/src/stm32f10x_usart.c **** }
 1218              		.loc 1 1041 0
 1219 000c 7047     		bx	lr
 1220              		.cfi_endproc
 1221              	.LFE57:
 1223              		.text
 1224              	.Letext0: