   1              		.syntax unified
   2              		.cpu cortex-m3
   3              		.fpu softvfp
   4              		.eabi_attribute 20, 1
   5              		.eabi_attribute 21, 1
   6              		.eabi_attribute 23, 3
   7              		.eabi_attribute 24, 1
   8              		.eabi_attribute 25, 1
   9              		.eabi_attribute 26, 1
  10              		.eabi_attribute 30, 4
  11              		.eabi_attribute 18, 4
  12              		.thumb
  13              		.file	"stm32f10x_i2c.c"
  21              	.Ltext0:
  22              		.cfi_sections	.debug_frame
  23              		.section	.text.I2C_DeInit,"ax",%progbits
  24              		.align	1
  25              		.global	I2C_DeInit
  26              		.thumb
  27              		.thumb_func
  29              	I2C_DeInit:
  30              	.LFB29:
  31              		.file 1 "firmware/STM32F10x_StdPeriph_Lib_V3.3.0/Libraries/STM32F10x_StdPeriph_Driver/src/stm32f10
   1:firmware/STM32F10x_StdPeriph_Lib_V3.3.0/Libraries/STM32F10x_StdPeriph_Driver/src/stm32f10x_i2c.c **** /**
   2:firmware/STM32F10x_StdPeriph_Lib_V3.3.0/Libraries/STM32F10x_StdPeriph_Driver/src/stm32f10x_i2c.c ****   ******************************************************************************
   3:firmware/STM32F10x_StdPeriph_Lib_V3.3.0/Libraries/STM32F10x_StdPeriph_Driver/src/stm32f10x_i2c.c ****   * @file    stm32f10x_i2c.c
   4:firmware/STM32F10x_StdPeriph_Lib_V3.3.0/Libraries/STM32F10x_StdPeriph_Driver/src/stm32f10x_i2c.c ****   * @author  MCD Application Team
   5:firmware/STM32F10x_StdPeriph_Lib_V3.3.0/Libraries/STM32F10x_StdPeriph_Driver/src/stm32f10x_i2c.c ****   * @version V3.3.0
   6:firmware/STM32F10x_StdPeriph_Lib_V3.3.0/Libraries/STM32F10x_StdPeriph_Driver/src/stm32f10x_i2c.c ****   * @date    04/16/2010
   7:firmware/STM32F10x_StdPeriph_Lib_V3.3.0/Libraries/STM32F10x_StdPeriph_Driver/src/stm32f10x_i2c.c ****   * @brief   This file provides all the I2C firmware functions.
   8:firmware/STM32F10x_StdPeriph_Lib_V3.3.0/Libraries/STM32F10x_StdPeriph_Driver/src/stm32f10x_i2c.c ****   ******************************************************************************
   9:firmware/STM32F10x_StdPeriph_Lib_V3.3.0/Libraries/STM32F10x_StdPeriph_Driver/src/stm32f10x_i2c.c ****   * @copy
  10:firmware/STM32F10x_StdPeriph_Lib_V3.3.0/Libraries/STM32F10x_StdPeriph_Driver/src/stm32f10x_i2c.c ****   *
  11:firmware/STM32F10x_StdPeriph_Lib_V3.3.0/Libraries/STM32F10x_StdPeriph_Driver/src/stm32f10x_i2c.c ****   * THE PRESENT FIRMWARE WHICH IS FOR GUIDANCE ONLY AIMS AT PROVIDING CUSTOMERS
  12:firmware/STM32F10x_StdPeriph_Lib_V3.3.0/Libraries/STM32F10x_StdPeriph_Driver/src/stm32f10x_i2c.c ****   * WITH CODING INFORMATION REGARDING THEIR PRODUCTS IN ORDER FOR THEM TO SAVE
  13:firmware/STM32F10x_StdPeriph_Lib_V3.3.0/Libraries/STM32F10x_StdPeriph_Driver/src/stm32f10x_i2c.c ****   * TIME. AS A RESULT, STMICROELECTRONICS SHALL NOT BE HELD LIABLE FOR ANY
  14:firmware/STM32F10x_StdPeriph_Lib_V3.3.0/Libraries/STM32F10x_StdPeriph_Driver/src/stm32f10x_i2c.c ****   * DIRECT, INDIRECT OR CONSEQUENTIAL DAMAGES WITH RESPECT TO ANY CLAIMS ARISING
  15:firmware/STM32F10x_StdPeriph_Lib_V3.3.0/Libraries/STM32F10x_StdPeriph_Driver/src/stm32f10x_i2c.c ****   * FROM THE CONTENT OF SUCH FIRMWARE AND/OR THE USE MADE BY CUSTOMERS OF THE
  16:firmware/STM32F10x_StdPeriph_Lib_V3.3.0/Libraries/STM32F10x_StdPeriph_Driver/src/stm32f10x_i2c.c ****   * CODING INFORMATION CONTAINED HEREIN IN CONNECTION WITH THEIR PRODUCTS.
  17:firmware/STM32F10x_StdPeriph_Lib_V3.3.0/Libraries/STM32F10x_StdPeriph_Driver/src/stm32f10x_i2c.c ****   *
  18:firmware/STM32F10x_StdPeriph_Lib_V3.3.0/Libraries/STM32F10x_StdPeriph_Driver/src/stm32f10x_i2c.c ****   * <h2><center>&copy; COPYRIGHT 2010 STMicroelectronics</center></h2>
  19:firmware/STM32F10x_StdPeriph_Lib_V3.3.0/Libraries/STM32F10x_StdPeriph_Driver/src/stm32f10x_i2c.c ****   */ 
  20:firmware/STM32F10x_StdPeriph_Lib_V3.3.0/Libraries/STM32F10x_StdPeriph_Driver/src/stm32f10x_i2c.c **** 
  21:firmware/STM32F10x_StdPeriph_Lib_V3.3.0/Libraries/STM32F10x_StdPeriph_Driver/src/stm32f10x_i2c.c **** /* Includes ------------------------------------------------------------------*/
  22:firmware/STM32F10x_StdPeriph_Lib_V3.3.0/Libraries/STM32F10x_StdPeriph_Driver/src/stm32f10x_i2c.c **** #include "stm32f10x_i2c.h"
  23:firmware/STM32F10x_StdPeriph_Lib_V3.3.0/Libraries/STM32F10x_StdPeriph_Driver/src/stm32f10x_i2c.c **** #include "stm32f10x_rcc.h"
  24:firmware/STM32F10x_StdPeriph_Lib_V3.3.0/Libraries/STM32F10x_StdPeriph_Driver/src/stm32f10x_i2c.c **** 
  25:firmware/STM32F10x_StdPeriph_Lib_V3.3.0/Libraries/STM32F10x_StdPeriph_Driver/src/stm32f10x_i2c.c **** 
  26:firmware/STM32F10x_StdPeriph_Lib_V3.3.0/Libraries/STM32F10x_StdPeriph_Driver/src/stm32f10x_i2c.c **** /** @addtogroup STM32F10x_StdPeriph_Driver
  27:firmware/STM32F10x_StdPeriph_Lib_V3.3.0/Libraries/STM32F10x_StdPeriph_Driver/src/stm32f10x_i2c.c ****   * @{
  28:firmware/STM32F10x_StdPeriph_Lib_V3.3.0/Libraries/STM32F10x_StdPeriph_Driver/src/stm32f10x_i2c.c ****   */
  29:firmware/STM32F10x_StdPeriph_Lib_V3.3.0/Libraries/STM32F10x_StdPeriph_Driver/src/stm32f10x_i2c.c **** 
  30:firmware/STM32F10x_StdPeriph_Lib_V3.3.0/Libraries/STM32F10x_StdPeriph_Driver/src/stm32f10x_i2c.c **** /** @defgroup I2C 
  31:firmware/STM32F10x_StdPeriph_Lib_V3.3.0/Libraries/STM32F10x_StdPeriph_Driver/src/stm32f10x_i2c.c ****   * @brief I2C driver modules
  32:firmware/STM32F10x_StdPeriph_Lib_V3.3.0/Libraries/STM32F10x_StdPeriph_Driver/src/stm32f10x_i2c.c ****   * @{
  33:firmware/STM32F10x_StdPeriph_Lib_V3.3.0/Libraries/STM32F10x_StdPeriph_Driver/src/stm32f10x_i2c.c ****   */ 
  34:firmware/STM32F10x_StdPeriph_Lib_V3.3.0/Libraries/STM32F10x_StdPeriph_Driver/src/stm32f10x_i2c.c **** 
  35:firmware/STM32F10x_StdPeriph_Lib_V3.3.0/Libraries/STM32F10x_StdPeriph_Driver/src/stm32f10x_i2c.c **** /** @defgroup I2C_Private_TypesDefinitions
  36:firmware/STM32F10x_StdPeriph_Lib_V3.3.0/Libraries/STM32F10x_StdPeriph_Driver/src/stm32f10x_i2c.c ****   * @{
  37:firmware/STM32F10x_StdPeriph_Lib_V3.3.0/Libraries/STM32F10x_StdPeriph_Driver/src/stm32f10x_i2c.c ****   */
  38:firmware/STM32F10x_StdPeriph_Lib_V3.3.0/Libraries/STM32F10x_StdPeriph_Driver/src/stm32f10x_i2c.c **** 
  39:firmware/STM32F10x_StdPeriph_Lib_V3.3.0/Libraries/STM32F10x_StdPeriph_Driver/src/stm32f10x_i2c.c **** /**
  40:firmware/STM32F10x_StdPeriph_Lib_V3.3.0/Libraries/STM32F10x_StdPeriph_Driver/src/stm32f10x_i2c.c ****   * @}
  41:firmware/STM32F10x_StdPeriph_Lib_V3.3.0/Libraries/STM32F10x_StdPeriph_Driver/src/stm32f10x_i2c.c ****   */
  42:firmware/STM32F10x_StdPeriph_Lib_V3.3.0/Libraries/STM32F10x_StdPeriph_Driver/src/stm32f10x_i2c.c **** 
  43:firmware/STM32F10x_StdPeriph_Lib_V3.3.0/Libraries/STM32F10x_StdPeriph_Driver/src/stm32f10x_i2c.c **** /** @defgroup I2C_Private_Defines
  44:firmware/STM32F10x_StdPeriph_Lib_V3.3.0/Libraries/STM32F10x_StdPeriph_Driver/src/stm32f10x_i2c.c ****   * @{
  45:firmware/STM32F10x_StdPeriph_Lib_V3.3.0/Libraries/STM32F10x_StdPeriph_Driver/src/stm32f10x_i2c.c ****   */
  46:firmware/STM32F10x_StdPeriph_Lib_V3.3.0/Libraries/STM32F10x_StdPeriph_Driver/src/stm32f10x_i2c.c **** 
  47:firmware/STM32F10x_StdPeriph_Lib_V3.3.0/Libraries/STM32F10x_StdPeriph_Driver/src/stm32f10x_i2c.c **** /* I2C SPE mask */
  48:firmware/STM32F10x_StdPeriph_Lib_V3.3.0/Libraries/STM32F10x_StdPeriph_Driver/src/stm32f10x_i2c.c **** #define CR1_PE_Set              ((uint16_t)0x0001)
  49:firmware/STM32F10x_StdPeriph_Lib_V3.3.0/Libraries/STM32F10x_StdPeriph_Driver/src/stm32f10x_i2c.c **** #define CR1_PE_Reset            ((uint16_t)0xFFFE)
  50:firmware/STM32F10x_StdPeriph_Lib_V3.3.0/Libraries/STM32F10x_StdPeriph_Driver/src/stm32f10x_i2c.c **** 
  51:firmware/STM32F10x_StdPeriph_Lib_V3.3.0/Libraries/STM32F10x_StdPeriph_Driver/src/stm32f10x_i2c.c **** /* I2C START mask */
  52:firmware/STM32F10x_StdPeriph_Lib_V3.3.0/Libraries/STM32F10x_StdPeriph_Driver/src/stm32f10x_i2c.c **** #define CR1_START_Set           ((uint16_t)0x0100)
  53:firmware/STM32F10x_StdPeriph_Lib_V3.3.0/Libraries/STM32F10x_StdPeriph_Driver/src/stm32f10x_i2c.c **** #define CR1_START_Reset         ((uint16_t)0xFEFF)
  54:firmware/STM32F10x_StdPeriph_Lib_V3.3.0/Libraries/STM32F10x_StdPeriph_Driver/src/stm32f10x_i2c.c **** 
  55:firmware/STM32F10x_StdPeriph_Lib_V3.3.0/Libraries/STM32F10x_StdPeriph_Driver/src/stm32f10x_i2c.c **** /* I2C STOP mask */
  56:firmware/STM32F10x_StdPeriph_Lib_V3.3.0/Libraries/STM32F10x_StdPeriph_Driver/src/stm32f10x_i2c.c **** #define CR1_STOP_Set            ((uint16_t)0x0200)
  57:firmware/STM32F10x_StdPeriph_Lib_V3.3.0/Libraries/STM32F10x_StdPeriph_Driver/src/stm32f10x_i2c.c **** #define CR1_STOP_Reset          ((uint16_t)0xFDFF)
  58:firmware/STM32F10x_StdPeriph_Lib_V3.3.0/Libraries/STM32F10x_StdPeriph_Driver/src/stm32f10x_i2c.c **** 
  59:firmware/STM32F10x_StdPeriph_Lib_V3.3.0/Libraries/STM32F10x_StdPeriph_Driver/src/stm32f10x_i2c.c **** /* I2C ACK mask */
  60:firmware/STM32F10x_StdPeriph_Lib_V3.3.0/Libraries/STM32F10x_StdPeriph_Driver/src/stm32f10x_i2c.c **** #define CR1_ACK_Set             ((uint16_t)0x0400)
  61:firmware/STM32F10x_StdPeriph_Lib_V3.3.0/Libraries/STM32F10x_StdPeriph_Driver/src/stm32f10x_i2c.c **** #define CR1_ACK_Reset           ((uint16_t)0xFBFF)
  62:firmware/STM32F10x_StdPeriph_Lib_V3.3.0/Libraries/STM32F10x_StdPeriph_Driver/src/stm32f10x_i2c.c **** 
  63:firmware/STM32F10x_StdPeriph_Lib_V3.3.0/Libraries/STM32F10x_StdPeriph_Driver/src/stm32f10x_i2c.c **** /* I2C ENGC mask */
  64:firmware/STM32F10x_StdPeriph_Lib_V3.3.0/Libraries/STM32F10x_StdPeriph_Driver/src/stm32f10x_i2c.c **** #define CR1_ENGC_Set            ((uint16_t)0x0040)
  65:firmware/STM32F10x_StdPeriph_Lib_V3.3.0/Libraries/STM32F10x_StdPeriph_Driver/src/stm32f10x_i2c.c **** #define CR1_ENGC_Reset          ((uint16_t)0xFFBF)
  66:firmware/STM32F10x_StdPeriph_Lib_V3.3.0/Libraries/STM32F10x_StdPeriph_Driver/src/stm32f10x_i2c.c **** 
  67:firmware/STM32F10x_StdPeriph_Lib_V3.3.0/Libraries/STM32F10x_StdPeriph_Driver/src/stm32f10x_i2c.c **** /* I2C SWRST mask */
  68:firmware/STM32F10x_StdPeriph_Lib_V3.3.0/Libraries/STM32F10x_StdPeriph_Driver/src/stm32f10x_i2c.c **** #define CR1_SWRST_Set           ((uint16_t)0x8000)
  69:firmware/STM32F10x_StdPeriph_Lib_V3.3.0/Libraries/STM32F10x_StdPeriph_Driver/src/stm32f10x_i2c.c **** #define CR1_SWRST_Reset         ((uint16_t)0x7FFF)
  70:firmware/STM32F10x_StdPeriph_Lib_V3.3.0/Libraries/STM32F10x_StdPeriph_Driver/src/stm32f10x_i2c.c **** 
  71:firmware/STM32F10x_StdPeriph_Lib_V3.3.0/Libraries/STM32F10x_StdPeriph_Driver/src/stm32f10x_i2c.c **** /* I2C PEC mask */
  72:firmware/STM32F10x_StdPeriph_Lib_V3.3.0/Libraries/STM32F10x_StdPeriph_Driver/src/stm32f10x_i2c.c **** #define CR1_PEC_Set             ((uint16_t)0x1000)
  73:firmware/STM32F10x_StdPeriph_Lib_V3.3.0/Libraries/STM32F10x_StdPeriph_Driver/src/stm32f10x_i2c.c **** #define CR1_PEC_Reset           ((uint16_t)0xEFFF)
  74:firmware/STM32F10x_StdPeriph_Lib_V3.3.0/Libraries/STM32F10x_StdPeriph_Driver/src/stm32f10x_i2c.c **** 
  75:firmware/STM32F10x_StdPeriph_Lib_V3.3.0/Libraries/STM32F10x_StdPeriph_Driver/src/stm32f10x_i2c.c **** /* I2C ENPEC mask */
  76:firmware/STM32F10x_StdPeriph_Lib_V3.3.0/Libraries/STM32F10x_StdPeriph_Driver/src/stm32f10x_i2c.c **** #define CR1_ENPEC_Set           ((uint16_t)0x0020)
  77:firmware/STM32F10x_StdPeriph_Lib_V3.3.0/Libraries/STM32F10x_StdPeriph_Driver/src/stm32f10x_i2c.c **** #define CR1_ENPEC_Reset         ((uint16_t)0xFFDF)
  78:firmware/STM32F10x_StdPeriph_Lib_V3.3.0/Libraries/STM32F10x_StdPeriph_Driver/src/stm32f10x_i2c.c **** 
  79:firmware/STM32F10x_StdPeriph_Lib_V3.3.0/Libraries/STM32F10x_StdPeriph_Driver/src/stm32f10x_i2c.c **** /* I2C ENARP mask */
  80:firmware/STM32F10x_StdPeriph_Lib_V3.3.0/Libraries/STM32F10x_StdPeriph_Driver/src/stm32f10x_i2c.c **** #define CR1_ENARP_Set           ((uint16_t)0x0010)
  81:firmware/STM32F10x_StdPeriph_Lib_V3.3.0/Libraries/STM32F10x_StdPeriph_Driver/src/stm32f10x_i2c.c **** #define CR1_ENARP_Reset         ((uint16_t)0xFFEF)
  82:firmware/STM32F10x_StdPeriph_Lib_V3.3.0/Libraries/STM32F10x_StdPeriph_Driver/src/stm32f10x_i2c.c **** 
  83:firmware/STM32F10x_StdPeriph_Lib_V3.3.0/Libraries/STM32F10x_StdPeriph_Driver/src/stm32f10x_i2c.c **** /* I2C NOSTRETCH mask */
  84:firmware/STM32F10x_StdPeriph_Lib_V3.3.0/Libraries/STM32F10x_StdPeriph_Driver/src/stm32f10x_i2c.c **** #define CR1_NOSTRETCH_Set       ((uint16_t)0x0080)
  85:firmware/STM32F10x_StdPeriph_Lib_V3.3.0/Libraries/STM32F10x_StdPeriph_Driver/src/stm32f10x_i2c.c **** #define CR1_NOSTRETCH_Reset     ((uint16_t)0xFF7F)
  86:firmware/STM32F10x_StdPeriph_Lib_V3.3.0/Libraries/STM32F10x_StdPeriph_Driver/src/stm32f10x_i2c.c **** 
  87:firmware/STM32F10x_StdPeriph_Lib_V3.3.0/Libraries/STM32F10x_StdPeriph_Driver/src/stm32f10x_i2c.c **** /* I2C registers Masks */
  88:firmware/STM32F10x_StdPeriph_Lib_V3.3.0/Libraries/STM32F10x_StdPeriph_Driver/src/stm32f10x_i2c.c **** #define CR1_CLEAR_Mask          ((uint16_t)0xFBF5)
  89:firmware/STM32F10x_StdPeriph_Lib_V3.3.0/Libraries/STM32F10x_StdPeriph_Driver/src/stm32f10x_i2c.c **** 
  90:firmware/STM32F10x_StdPeriph_Lib_V3.3.0/Libraries/STM32F10x_StdPeriph_Driver/src/stm32f10x_i2c.c **** /* I2C DMAEN mask */
  91:firmware/STM32F10x_StdPeriph_Lib_V3.3.0/Libraries/STM32F10x_StdPeriph_Driver/src/stm32f10x_i2c.c **** #define CR2_DMAEN_Set           ((uint16_t)0x0800)
  92:firmware/STM32F10x_StdPeriph_Lib_V3.3.0/Libraries/STM32F10x_StdPeriph_Driver/src/stm32f10x_i2c.c **** #define CR2_DMAEN_Reset         ((uint16_t)0xF7FF)
  93:firmware/STM32F10x_StdPeriph_Lib_V3.3.0/Libraries/STM32F10x_StdPeriph_Driver/src/stm32f10x_i2c.c **** 
  94:firmware/STM32F10x_StdPeriph_Lib_V3.3.0/Libraries/STM32F10x_StdPeriph_Driver/src/stm32f10x_i2c.c **** /* I2C LAST mask */
  95:firmware/STM32F10x_StdPeriph_Lib_V3.3.0/Libraries/STM32F10x_StdPeriph_Driver/src/stm32f10x_i2c.c **** #define CR2_LAST_Set            ((uint16_t)0x1000)
  96:firmware/STM32F10x_StdPeriph_Lib_V3.3.0/Libraries/STM32F10x_StdPeriph_Driver/src/stm32f10x_i2c.c **** #define CR2_LAST_Reset          ((uint16_t)0xEFFF)
  97:firmware/STM32F10x_StdPeriph_Lib_V3.3.0/Libraries/STM32F10x_StdPeriph_Driver/src/stm32f10x_i2c.c **** 
  98:firmware/STM32F10x_StdPeriph_Lib_V3.3.0/Libraries/STM32F10x_StdPeriph_Driver/src/stm32f10x_i2c.c **** /* I2C FREQ mask */
  99:firmware/STM32F10x_StdPeriph_Lib_V3.3.0/Libraries/STM32F10x_StdPeriph_Driver/src/stm32f10x_i2c.c **** #define CR2_FREQ_Reset          ((uint16_t)0xFFC0)
 100:firmware/STM32F10x_StdPeriph_Lib_V3.3.0/Libraries/STM32F10x_StdPeriph_Driver/src/stm32f10x_i2c.c **** 
 101:firmware/STM32F10x_StdPeriph_Lib_V3.3.0/Libraries/STM32F10x_StdPeriph_Driver/src/stm32f10x_i2c.c **** /* I2C ADD0 mask */
 102:firmware/STM32F10x_StdPeriph_Lib_V3.3.0/Libraries/STM32F10x_StdPeriph_Driver/src/stm32f10x_i2c.c **** #define OAR1_ADD0_Set           ((uint16_t)0x0001)
 103:firmware/STM32F10x_StdPeriph_Lib_V3.3.0/Libraries/STM32F10x_StdPeriph_Driver/src/stm32f10x_i2c.c **** #define OAR1_ADD0_Reset         ((uint16_t)0xFFFE)
 104:firmware/STM32F10x_StdPeriph_Lib_V3.3.0/Libraries/STM32F10x_StdPeriph_Driver/src/stm32f10x_i2c.c **** 
 105:firmware/STM32F10x_StdPeriph_Lib_V3.3.0/Libraries/STM32F10x_StdPeriph_Driver/src/stm32f10x_i2c.c **** /* I2C ENDUAL mask */
 106:firmware/STM32F10x_StdPeriph_Lib_V3.3.0/Libraries/STM32F10x_StdPeriph_Driver/src/stm32f10x_i2c.c **** #define OAR2_ENDUAL_Set         ((uint16_t)0x0001)
 107:firmware/STM32F10x_StdPeriph_Lib_V3.3.0/Libraries/STM32F10x_StdPeriph_Driver/src/stm32f10x_i2c.c **** #define OAR2_ENDUAL_Reset       ((uint16_t)0xFFFE)
 108:firmware/STM32F10x_StdPeriph_Lib_V3.3.0/Libraries/STM32F10x_StdPeriph_Driver/src/stm32f10x_i2c.c **** 
 109:firmware/STM32F10x_StdPeriph_Lib_V3.3.0/Libraries/STM32F10x_StdPeriph_Driver/src/stm32f10x_i2c.c **** /* I2C ADD2 mask */
 110:firmware/STM32F10x_StdPeriph_Lib_V3.3.0/Libraries/STM32F10x_StdPeriph_Driver/src/stm32f10x_i2c.c **** #define OAR2_ADD2_Reset         ((uint16_t)0xFF01)
 111:firmware/STM32F10x_StdPeriph_Lib_V3.3.0/Libraries/STM32F10x_StdPeriph_Driver/src/stm32f10x_i2c.c **** 
 112:firmware/STM32F10x_StdPeriph_Lib_V3.3.0/Libraries/STM32F10x_StdPeriph_Driver/src/stm32f10x_i2c.c **** /* I2C F/S mask */
 113:firmware/STM32F10x_StdPeriph_Lib_V3.3.0/Libraries/STM32F10x_StdPeriph_Driver/src/stm32f10x_i2c.c **** #define CCR_FS_Set              ((uint16_t)0x8000)
 114:firmware/STM32F10x_StdPeriph_Lib_V3.3.0/Libraries/STM32F10x_StdPeriph_Driver/src/stm32f10x_i2c.c **** 
 115:firmware/STM32F10x_StdPeriph_Lib_V3.3.0/Libraries/STM32F10x_StdPeriph_Driver/src/stm32f10x_i2c.c **** /* I2C CCR mask */
 116:firmware/STM32F10x_StdPeriph_Lib_V3.3.0/Libraries/STM32F10x_StdPeriph_Driver/src/stm32f10x_i2c.c **** #define CCR_CCR_Set             ((uint16_t)0x0FFF)
 117:firmware/STM32F10x_StdPeriph_Lib_V3.3.0/Libraries/STM32F10x_StdPeriph_Driver/src/stm32f10x_i2c.c **** 
 118:firmware/STM32F10x_StdPeriph_Lib_V3.3.0/Libraries/STM32F10x_StdPeriph_Driver/src/stm32f10x_i2c.c **** /* I2C FLAG mask */
 119:firmware/STM32F10x_StdPeriph_Lib_V3.3.0/Libraries/STM32F10x_StdPeriph_Driver/src/stm32f10x_i2c.c **** #define FLAG_Mask               ((uint32_t)0x00FFFFFF)
 120:firmware/STM32F10x_StdPeriph_Lib_V3.3.0/Libraries/STM32F10x_StdPeriph_Driver/src/stm32f10x_i2c.c **** 
 121:firmware/STM32F10x_StdPeriph_Lib_V3.3.0/Libraries/STM32F10x_StdPeriph_Driver/src/stm32f10x_i2c.c **** /* I2C Interrupt Enable mask */
 122:firmware/STM32F10x_StdPeriph_Lib_V3.3.0/Libraries/STM32F10x_StdPeriph_Driver/src/stm32f10x_i2c.c **** #define ITEN_Mask               ((uint32_t)0x07000000)
 123:firmware/STM32F10x_StdPeriph_Lib_V3.3.0/Libraries/STM32F10x_StdPeriph_Driver/src/stm32f10x_i2c.c **** 
 124:firmware/STM32F10x_StdPeriph_Lib_V3.3.0/Libraries/STM32F10x_StdPeriph_Driver/src/stm32f10x_i2c.c **** /**
 125:firmware/STM32F10x_StdPeriph_Lib_V3.3.0/Libraries/STM32F10x_StdPeriph_Driver/src/stm32f10x_i2c.c ****   * @}
 126:firmware/STM32F10x_StdPeriph_Lib_V3.3.0/Libraries/STM32F10x_StdPeriph_Driver/src/stm32f10x_i2c.c ****   */
 127:firmware/STM32F10x_StdPeriph_Lib_V3.3.0/Libraries/STM32F10x_StdPeriph_Driver/src/stm32f10x_i2c.c **** 
 128:firmware/STM32F10x_StdPeriph_Lib_V3.3.0/Libraries/STM32F10x_StdPeriph_Driver/src/stm32f10x_i2c.c **** /** @defgroup I2C_Private_Macros
 129:firmware/STM32F10x_StdPeriph_Lib_V3.3.0/Libraries/STM32F10x_StdPeriph_Driver/src/stm32f10x_i2c.c ****   * @{
 130:firmware/STM32F10x_StdPeriph_Lib_V3.3.0/Libraries/STM32F10x_StdPeriph_Driver/src/stm32f10x_i2c.c ****   */
 131:firmware/STM32F10x_StdPeriph_Lib_V3.3.0/Libraries/STM32F10x_StdPeriph_Driver/src/stm32f10x_i2c.c **** 
 132:firmware/STM32F10x_StdPeriph_Lib_V3.3.0/Libraries/STM32F10x_StdPeriph_Driver/src/stm32f10x_i2c.c **** /**
 133:firmware/STM32F10x_StdPeriph_Lib_V3.3.0/Libraries/STM32F10x_StdPeriph_Driver/src/stm32f10x_i2c.c ****   * @}
 134:firmware/STM32F10x_StdPeriph_Lib_V3.3.0/Libraries/STM32F10x_StdPeriph_Driver/src/stm32f10x_i2c.c ****   */
 135:firmware/STM32F10x_StdPeriph_Lib_V3.3.0/Libraries/STM32F10x_StdPeriph_Driver/src/stm32f10x_i2c.c **** 
 136:firmware/STM32F10x_StdPeriph_Lib_V3.3.0/Libraries/STM32F10x_StdPeriph_Driver/src/stm32f10x_i2c.c **** /** @defgroup I2C_Private_Variables
 137:firmware/STM32F10x_StdPeriph_Lib_V3.3.0/Libraries/STM32F10x_StdPeriph_Driver/src/stm32f10x_i2c.c ****   * @{
 138:firmware/STM32F10x_StdPeriph_Lib_V3.3.0/Libraries/STM32F10x_StdPeriph_Driver/src/stm32f10x_i2c.c ****   */
 139:firmware/STM32F10x_StdPeriph_Lib_V3.3.0/Libraries/STM32F10x_StdPeriph_Driver/src/stm32f10x_i2c.c **** 
 140:firmware/STM32F10x_StdPeriph_Lib_V3.3.0/Libraries/STM32F10x_StdPeriph_Driver/src/stm32f10x_i2c.c **** /**
 141:firmware/STM32F10x_StdPeriph_Lib_V3.3.0/Libraries/STM32F10x_StdPeriph_Driver/src/stm32f10x_i2c.c ****   * @}
 142:firmware/STM32F10x_StdPeriph_Lib_V3.3.0/Libraries/STM32F10x_StdPeriph_Driver/src/stm32f10x_i2c.c ****   */
 143:firmware/STM32F10x_StdPeriph_Lib_V3.3.0/Libraries/STM32F10x_StdPeriph_Driver/src/stm32f10x_i2c.c **** 
 144:firmware/STM32F10x_StdPeriph_Lib_V3.3.0/Libraries/STM32F10x_StdPeriph_Driver/src/stm32f10x_i2c.c **** /** @defgroup I2C_Private_FunctionPrototypes
 145:firmware/STM32F10x_StdPeriph_Lib_V3.3.0/Libraries/STM32F10x_StdPeriph_Driver/src/stm32f10x_i2c.c ****   * @{
 146:firmware/STM32F10x_StdPeriph_Lib_V3.3.0/Libraries/STM32F10x_StdPeriph_Driver/src/stm32f10x_i2c.c ****   */
 147:firmware/STM32F10x_StdPeriph_Lib_V3.3.0/Libraries/STM32F10x_StdPeriph_Driver/src/stm32f10x_i2c.c **** 
 148:firmware/STM32F10x_StdPeriph_Lib_V3.3.0/Libraries/STM32F10x_StdPeriph_Driver/src/stm32f10x_i2c.c **** /**
 149:firmware/STM32F10x_StdPeriph_Lib_V3.3.0/Libraries/STM32F10x_StdPeriph_Driver/src/stm32f10x_i2c.c ****   * @}
 150:firmware/STM32F10x_StdPeriph_Lib_V3.3.0/Libraries/STM32F10x_StdPeriph_Driver/src/stm32f10x_i2c.c ****   */
 151:firmware/STM32F10x_StdPeriph_Lib_V3.3.0/Libraries/STM32F10x_StdPeriph_Driver/src/stm32f10x_i2c.c **** 
 152:firmware/STM32F10x_StdPeriph_Lib_V3.3.0/Libraries/STM32F10x_StdPeriph_Driver/src/stm32f10x_i2c.c **** /** @defgroup I2C_Private_Functions
 153:firmware/STM32F10x_StdPeriph_Lib_V3.3.0/Libraries/STM32F10x_StdPeriph_Driver/src/stm32f10x_i2c.c ****   * @{
 154:firmware/STM32F10x_StdPeriph_Lib_V3.3.0/Libraries/STM32F10x_StdPeriph_Driver/src/stm32f10x_i2c.c ****   */
 155:firmware/STM32F10x_StdPeriph_Lib_V3.3.0/Libraries/STM32F10x_StdPeriph_Driver/src/stm32f10x_i2c.c **** 
 156:firmware/STM32F10x_StdPeriph_Lib_V3.3.0/Libraries/STM32F10x_StdPeriph_Driver/src/stm32f10x_i2c.c **** /**
 157:firmware/STM32F10x_StdPeriph_Lib_V3.3.0/Libraries/STM32F10x_StdPeriph_Driver/src/stm32f10x_i2c.c ****   * @brief  Deinitializes the I2Cx peripheral registers to their default reset values.
 158:firmware/STM32F10x_StdPeriph_Lib_V3.3.0/Libraries/STM32F10x_StdPeriph_Driver/src/stm32f10x_i2c.c ****   * @param  I2Cx: where x can be 1 or 2 to select the I2C peripheral.
 159:firmware/STM32F10x_StdPeriph_Lib_V3.3.0/Libraries/STM32F10x_StdPeriph_Driver/src/stm32f10x_i2c.c ****   * @retval None
 160:firmware/STM32F10x_StdPeriph_Lib_V3.3.0/Libraries/STM32F10x_StdPeriph_Driver/src/stm32f10x_i2c.c ****   */
 161:firmware/STM32F10x_StdPeriph_Lib_V3.3.0/Libraries/STM32F10x_StdPeriph_Driver/src/stm32f10x_i2c.c **** void I2C_DeInit(I2C_TypeDef* I2Cx)
 162:firmware/STM32F10x_StdPeriph_Lib_V3.3.0/Libraries/STM32F10x_StdPeriph_Driver/src/stm32f10x_i2c.c **** {
  32              		.loc 1 162 0
  33              		.cfi_startproc
  34              		@ args = 0, pretend = 0, frame = 0
  35              		@ frame_needed = 0, uses_anonymous_args = 0
  36              	.LVL0:
 163:firmware/STM32F10x_StdPeriph_Lib_V3.3.0/Libraries/STM32F10x_StdPeriph_Driver/src/stm32f10x_i2c.c ****   /* Check the parameters */
 164:firmware/STM32F10x_StdPeriph_Lib_V3.3.0/Libraries/STM32F10x_StdPeriph_Driver/src/stm32f10x_i2c.c ****   assert_param(IS_I2C_ALL_PERIPH(I2Cx));
 165:firmware/STM32F10x_StdPeriph_Lib_V3.3.0/Libraries/STM32F10x_StdPeriph_Driver/src/stm32f10x_i2c.c **** 
 166:firmware/STM32F10x_StdPeriph_Lib_V3.3.0/Libraries/STM32F10x_StdPeriph_Driver/src/stm32f10x_i2c.c ****   if (I2Cx == I2C1)
  37              		.loc 1 166 0
  38 0000 0B4B     		ldr	r3, .L4
 162:firmware/STM32F10x_StdPeriph_Lib_V3.3.0/Libraries/STM32F10x_StdPeriph_Driver/src/stm32f10x_i2c.c **** {
  39              		.loc 1 162 0
  40 0002 10B5     		push	{r4, lr}
  41              	.LCFI0:
  42              		.cfi_def_cfa_offset 8
  43              		.loc 1 166 0
  44 0004 9842     		cmp	r0, r3
  45 0006 07D1     		bne	.L2
  46              		.cfi_offset 14, -4
  47              		.cfi_offset 4, -8
 167:firmware/STM32F10x_StdPeriph_Lib_V3.3.0/Libraries/STM32F10x_StdPeriph_Driver/src/stm32f10x_i2c.c ****   {
 168:firmware/STM32F10x_StdPeriph_Lib_V3.3.0/Libraries/STM32F10x_StdPeriph_Driver/src/stm32f10x_i2c.c ****     /* Enable I2C1 reset state */
 169:firmware/STM32F10x_StdPeriph_Lib_V3.3.0/Libraries/STM32F10x_StdPeriph_Driver/src/stm32f10x_i2c.c ****     RCC_APB1PeriphResetCmd(RCC_APB1Periph_I2C1, ENABLE);
  48              		.loc 1 169 0
  49 0008 4FF40010 		mov	r0, #2097152
  50              	.LVL1:
  51 000c 0121     		movs	r1, #1
  52 000e FFF7FEFF 		bl	RCC_APB1PeriphResetCmd
 170:firmware/STM32F10x_StdPeriph_Lib_V3.3.0/Libraries/STM32F10x_StdPeriph_Driver/src/stm32f10x_i2c.c ****     /* Release I2C1 from reset state */
 171:firmware/STM32F10x_StdPeriph_Lib_V3.3.0/Libraries/STM32F10x_StdPeriph_Driver/src/stm32f10x_i2c.c ****     RCC_APB1PeriphResetCmd(RCC_APB1Periph_I2C1, DISABLE);
  53              		.loc 1 171 0
  54 0012 4FF40010 		mov	r0, #2097152
  55 0016 06E0     		b	.L3
  56              	.LVL2:
  57              	.L2:
 172:firmware/STM32F10x_StdPeriph_Lib_V3.3.0/Libraries/STM32F10x_StdPeriph_Driver/src/stm32f10x_i2c.c ****   }
 173:firmware/STM32F10x_StdPeriph_Lib_V3.3.0/Libraries/STM32F10x_StdPeriph_Driver/src/stm32f10x_i2c.c ****   else
 174:firmware/STM32F10x_StdPeriph_Lib_V3.3.0/Libraries/STM32F10x_StdPeriph_Driver/src/stm32f10x_i2c.c ****   {
 175:firmware/STM32F10x_StdPeriph_Lib_V3.3.0/Libraries/STM32F10x_StdPeriph_Driver/src/stm32f10x_i2c.c ****     /* Enable I2C2 reset state */
 176:firmware/STM32F10x_StdPeriph_Lib_V3.3.0/Libraries/STM32F10x_StdPeriph_Driver/src/stm32f10x_i2c.c ****     RCC_APB1PeriphResetCmd(RCC_APB1Periph_I2C2, ENABLE);
  58              		.loc 1 176 0
  59 0018 4FF48000 		mov	r0, #4194304
  60              	.LVL3:
  61 001c 0121     		movs	r1, #1
  62 001e FFF7FEFF 		bl	RCC_APB1PeriphResetCmd
 177:firmware/STM32F10x_StdPeriph_Lib_V3.3.0/Libraries/STM32F10x_StdPeriph_Driver/src/stm32f10x_i2c.c ****     /* Release I2C2 from reset state */
 178:firmware/STM32F10x_StdPeriph_Lib_V3.3.0/Libraries/STM32F10x_StdPeriph_Driver/src/stm32f10x_i2c.c ****     RCC_APB1PeriphResetCmd(RCC_APB1Periph_I2C2, DISABLE);
  63              		.loc 1 178 0
  64 0022 4FF48000 		mov	r0, #4194304
  65              	.L3:
  66 0026 0021     		movs	r1, #0
 179:firmware/STM32F10x_StdPeriph_Lib_V3.3.0/Libraries/STM32F10x_StdPeriph_Driver/src/stm32f10x_i2c.c ****   }
 180:firmware/STM32F10x_StdPeriph_Lib_V3.3.0/Libraries/STM32F10x_StdPeriph_Driver/src/stm32f10x_i2c.c **** }
  67              		.loc 1 180 0
  68 0028 BDE81040 		pop	{r4, lr}
 178:firmware/STM32F10x_StdPeriph_Lib_V3.3.0/Libraries/STM32F10x_StdPeriph_Driver/src/stm32f10x_i2c.c ****     RCC_APB1PeriphResetCmd(RCC_APB1Periph_I2C2, DISABLE);
  69              		.loc 1 178 0
  70 002c FFF7FEBF 		b	RCC_APB1PeriphResetCmd
  71              	.L5:
  72              		.align	2
  73              	.L4:
  74 0030 00540040 		.word	1073763328
  75              		.cfi_endproc
  76              	.LFE29:
  78              		.section	.text.I2C_Init,"ax",%progbits
  79              		.align	1
  80              		.global	I2C_Init
  81              		.thumb
  82              		.thumb_func
  84              	I2C_Init:
  85              	.LFB30:
 181:firmware/STM32F10x_StdPeriph_Lib_V3.3.0/Libraries/STM32F10x_StdPeriph_Driver/src/stm32f10x_i2c.c **** 
 182:firmware/STM32F10x_StdPeriph_Lib_V3.3.0/Libraries/STM32F10x_StdPeriph_Driver/src/stm32f10x_i2c.c **** /**
 183:firmware/STM32F10x_StdPeriph_Lib_V3.3.0/Libraries/STM32F10x_StdPeriph_Driver/src/stm32f10x_i2c.c ****   * @brief  Initializes the I2Cx peripheral according to the specified 
 184:firmware/STM32F10x_StdPeriph_Lib_V3.3.0/Libraries/STM32F10x_StdPeriph_Driver/src/stm32f10x_i2c.c ****   *   parameters in the I2C_InitStruct.
 185:firmware/STM32F10x_StdPeriph_Lib_V3.3.0/Libraries/STM32F10x_StdPeriph_Driver/src/stm32f10x_i2c.c ****   * @param  I2Cx: where x can be 1 or 2 to select the I2C peripheral.
 186:firmware/STM32F10x_StdPeriph_Lib_V3.3.0/Libraries/STM32F10x_StdPeriph_Driver/src/stm32f10x_i2c.c ****   * @param  I2C_InitStruct: pointer to a I2C_InitTypeDef structure that
 187:firmware/STM32F10x_StdPeriph_Lib_V3.3.0/Libraries/STM32F10x_StdPeriph_Driver/src/stm32f10x_i2c.c ****   *   contains the configuration information for the specified I2C peripheral.
 188:firmware/STM32F10x_StdPeriph_Lib_V3.3.0/Libraries/STM32F10x_StdPeriph_Driver/src/stm32f10x_i2c.c ****   * @retval None
 189:firmware/STM32F10x_StdPeriph_Lib_V3.3.0/Libraries/STM32F10x_StdPeriph_Driver/src/stm32f10x_i2c.c ****   */
 190:firmware/STM32F10x_StdPeriph_Lib_V3.3.0/Libraries/STM32F10x_StdPeriph_Driver/src/stm32f10x_i2c.c **** void I2C_Init(I2C_TypeDef* I2Cx, I2C_InitTypeDef* I2C_InitStruct)
 191:firmware/STM32F10x_StdPeriph_Lib_V3.3.0/Libraries/STM32F10x_StdPeriph_Driver/src/stm32f10x_i2c.c **** {
  86              		.loc 1 191 0
  87              		.cfi_startproc
  88              		@ args = 0, pretend = 0, frame = 24
  89              		@ frame_needed = 0, uses_anonymous_args = 0
  90              	.LVL4:
  91 0000 F0B5     		push	{r4, r5, r6, r7, lr}
  92              	.LCFI1:
  93              		.cfi_def_cfa_offset 20
  94 0002 87B0     		sub	sp, sp, #28
  95              	.LCFI2:
  96              		.cfi_def_cfa_offset 48
  97              		.loc 1 191 0
  98 0004 0446     		mov	r4, r0
  99              		.cfi_offset 14, -4
 100              		.cfi_offset 7, -8
 101              		.cfi_offset 6, -12
 102              		.cfi_offset 5, -16
 103              		.cfi_offset 4, -20
 192:firmware/STM32F10x_StdPeriph_Lib_V3.3.0/Libraries/STM32F10x_StdPeriph_Driver/src/stm32f10x_i2c.c ****   uint16_t tmpreg = 0, freqrange = 0;
 193:firmware/STM32F10x_StdPeriph_Lib_V3.3.0/Libraries/STM32F10x_StdPeriph_Driver/src/stm32f10x_i2c.c ****   uint16_t result = 0x04;
 194:firmware/STM32F10x_StdPeriph_Lib_V3.3.0/Libraries/STM32F10x_StdPeriph_Driver/src/stm32f10x_i2c.c ****   uint32_t pclk1 = 8000000;
 195:firmware/STM32F10x_StdPeriph_Lib_V3.3.0/Libraries/STM32F10x_StdPeriph_Driver/src/stm32f10x_i2c.c ****   RCC_ClocksTypeDef  rcc_clocks;
 196:firmware/STM32F10x_StdPeriph_Lib_V3.3.0/Libraries/STM32F10x_StdPeriph_Driver/src/stm32f10x_i2c.c ****   /* Check the parameters */
 197:firmware/STM32F10x_StdPeriph_Lib_V3.3.0/Libraries/STM32F10x_StdPeriph_Driver/src/stm32f10x_i2c.c ****   assert_param(IS_I2C_ALL_PERIPH(I2Cx));
 198:firmware/STM32F10x_StdPeriph_Lib_V3.3.0/Libraries/STM32F10x_StdPeriph_Driver/src/stm32f10x_i2c.c ****   assert_param(IS_I2C_CLOCK_SPEED(I2C_InitStruct->I2C_ClockSpeed));
 199:firmware/STM32F10x_StdPeriph_Lib_V3.3.0/Libraries/STM32F10x_StdPeriph_Driver/src/stm32f10x_i2c.c ****   assert_param(IS_I2C_MODE(I2C_InitStruct->I2C_Mode));
 200:firmware/STM32F10x_StdPeriph_Lib_V3.3.0/Libraries/STM32F10x_StdPeriph_Driver/src/stm32f10x_i2c.c ****   assert_param(IS_I2C_DUTY_CYCLE(I2C_InitStruct->I2C_DutyCycle));
 201:firmware/STM32F10x_StdPeriph_Lib_V3.3.0/Libraries/STM32F10x_StdPeriph_Driver/src/stm32f10x_i2c.c ****   assert_param(IS_I2C_OWN_ADDRESS1(I2C_InitStruct->I2C_OwnAddress1));
 202:firmware/STM32F10x_StdPeriph_Lib_V3.3.0/Libraries/STM32F10x_StdPeriph_Driver/src/stm32f10x_i2c.c ****   assert_param(IS_I2C_ACK_STATE(I2C_InitStruct->I2C_Ack));
 203:firmware/STM32F10x_StdPeriph_Lib_V3.3.0/Libraries/STM32F10x_StdPeriph_Driver/src/stm32f10x_i2c.c ****   assert_param(IS_I2C_ACKNOWLEDGE_ADDRESS(I2C_InitStruct->I2C_AcknowledgedAddress));
 204:firmware/STM32F10x_StdPeriph_Lib_V3.3.0/Libraries/STM32F10x_StdPeriph_Driver/src/stm32f10x_i2c.c **** 
 205:firmware/STM32F10x_StdPeriph_Lib_V3.3.0/Libraries/STM32F10x_StdPeriph_Driver/src/stm32f10x_i2c.c **** /*---------------------------- I2Cx CR2 Configuration ------------------------*/
 206:firmware/STM32F10x_StdPeriph_Lib_V3.3.0/Libraries/STM32F10x_StdPeriph_Driver/src/stm32f10x_i2c.c ****   /* Get the I2Cx CR2 value */
 207:firmware/STM32F10x_StdPeriph_Lib_V3.3.0/Libraries/STM32F10x_StdPeriph_Driver/src/stm32f10x_i2c.c ****   tmpreg = I2Cx->CR2;
 104              		.loc 1 207 0
 105 0006 8688     		ldrh	r6, [r0, #4]
 106              	.LVL5:
 208:firmware/STM32F10x_StdPeriph_Lib_V3.3.0/Libraries/STM32F10x_StdPeriph_Driver/src/stm32f10x_i2c.c ****   /* Clear frequency FREQ[5:0] bits */
 209:firmware/STM32F10x_StdPeriph_Lib_V3.3.0/Libraries/STM32F10x_StdPeriph_Driver/src/stm32f10x_i2c.c ****   tmpreg &= CR2_FREQ_Reset;
 210:firmware/STM32F10x_StdPeriph_Lib_V3.3.0/Libraries/STM32F10x_StdPeriph_Driver/src/stm32f10x_i2c.c ****   /* Get pclk1 frequency value */
 211:firmware/STM32F10x_StdPeriph_Lib_V3.3.0/Libraries/STM32F10x_StdPeriph_Driver/src/stm32f10x_i2c.c ****   RCC_GetClocksFreq(&rcc_clocks);
 107              		.loc 1 211 0
 108 0008 01A8     		add	r0, sp, #4
 109              	.LVL6:
 191:firmware/STM32F10x_StdPeriph_Lib_V3.3.0/Libraries/STM32F10x_StdPeriph_Driver/src/stm32f10x_i2c.c **** {
 110              		.loc 1 191 0
 111 000a 0D46     		mov	r5, r1
 212:firmware/STM32F10x_StdPeriph_Lib_V3.3.0/Libraries/STM32F10x_StdPeriph_Driver/src/stm32f10x_i2c.c ****   pclk1 = rcc_clocks.PCLK1_Frequency;
 213:firmware/STM32F10x_StdPeriph_Lib_V3.3.0/Libraries/STM32F10x_StdPeriph_Driver/src/stm32f10x_i2c.c ****   /* Set frequency bits depending on pclk1 value */
 214:firmware/STM32F10x_StdPeriph_Lib_V3.3.0/Libraries/STM32F10x_StdPeriph_Driver/src/stm32f10x_i2c.c ****   freqrange = (uint16_t)(pclk1 / 1000000);
 112              		.loc 1 214 0
 113 000c 304F     		ldr	r7, .L14
 211:firmware/STM32F10x_StdPeriph_Lib_V3.3.0/Libraries/STM32F10x_StdPeriph_Driver/src/stm32f10x_i2c.c ****   RCC_GetClocksFreq(&rcc_clocks);
 114              		.loc 1 211 0
 115 000e FFF7FEFF 		bl	RCC_GetClocksFreq
 116              	.LVL7:
 212:firmware/STM32F10x_StdPeriph_Lib_V3.3.0/Libraries/STM32F10x_StdPeriph_Driver/src/stm32f10x_i2c.c ****   pclk1 = rcc_clocks.PCLK1_Frequency;
 117              		.loc 1 212 0
 118 0012 0398     		ldr	r0, [sp, #12]
 209:firmware/STM32F10x_StdPeriph_Lib_V3.3.0/Libraries/STM32F10x_StdPeriph_Driver/src/stm32f10x_i2c.c ****   tmpreg &= CR2_FREQ_Reset;
 119              		.loc 1 209 0
 120 0014 26F03F06 		bic	r6, r6, #63
 121              	.LVL8:
 122 0018 3604     		lsls	r6, r6, #16
 123              		.loc 1 214 0
 124 001a B0FBF7F7 		udiv	r7, r0, r7
 209:firmware/STM32F10x_StdPeriph_Lib_V3.3.0/Libraries/STM32F10x_StdPeriph_Driver/src/stm32f10x_i2c.c ****   tmpreg &= CR2_FREQ_Reset;
 125              		.loc 1 209 0
 126 001e 360C     		lsrs	r6, r6, #16
 127              	.LVL9:
 128              		.loc 1 214 0
 129 0020 BFB2     		uxth	r7, r7
 130              	.LVL10:
 215:firmware/STM32F10x_StdPeriph_Lib_V3.3.0/Libraries/STM32F10x_StdPeriph_Driver/src/stm32f10x_i2c.c ****   tmpreg |= freqrange;
 131              		.loc 1 215 0
 132 0022 47EA0606 		orr	r6, r7, r6
 133              	.LVL11:
 216:firmware/STM32F10x_StdPeriph_Lib_V3.3.0/Libraries/STM32F10x_StdPeriph_Driver/src/stm32f10x_i2c.c ****   /* Write to I2Cx CR2 */
 217:firmware/STM32F10x_StdPeriph_Lib_V3.3.0/Libraries/STM32F10x_StdPeriph_Driver/src/stm32f10x_i2c.c ****   I2Cx->CR2 = tmpreg;
 134              		.loc 1 217 0
 135 0026 A680     		strh	r6, [r4, #4]	@ movhi
 218:firmware/STM32F10x_StdPeriph_Lib_V3.3.0/Libraries/STM32F10x_StdPeriph_Driver/src/stm32f10x_i2c.c **** 
 219:firmware/STM32F10x_StdPeriph_Lib_V3.3.0/Libraries/STM32F10x_StdPeriph_Driver/src/stm32f10x_i2c.c **** /*---------------------------- I2Cx CCR Configuration ------------------------*/
 220:firmware/STM32F10x_StdPeriph_Lib_V3.3.0/Libraries/STM32F10x_StdPeriph_Driver/src/stm32f10x_i2c.c ****   /* Disable the selected I2C peripheral to configure TRISE */
 221:firmware/STM32F10x_StdPeriph_Lib_V3.3.0/Libraries/STM32F10x_StdPeriph_Driver/src/stm32f10x_i2c.c ****   I2Cx->CR1 &= CR1_PE_Reset;
 136              		.loc 1 221 0
 137 0028 2188     		ldrh	r1, [r4, #0]
 222:firmware/STM32F10x_StdPeriph_Lib_V3.3.0/Libraries/STM32F10x_StdPeriph_Driver/src/stm32f10x_i2c.c ****   /* Reset tmpreg value */
 223:firmware/STM32F10x_StdPeriph_Lib_V3.3.0/Libraries/STM32F10x_StdPeriph_Driver/src/stm32f10x_i2c.c ****   /* Clear F/S, DUTY and CCR[11:0] bits */
 224:firmware/STM32F10x_StdPeriph_Lib_V3.3.0/Libraries/STM32F10x_StdPeriph_Driver/src/stm32f10x_i2c.c ****   tmpreg = 0;
 225:firmware/STM32F10x_StdPeriph_Lib_V3.3.0/Libraries/STM32F10x_StdPeriph_Driver/src/stm32f10x_i2c.c **** 
 226:firmware/STM32F10x_StdPeriph_Lib_V3.3.0/Libraries/STM32F10x_StdPeriph_Driver/src/stm32f10x_i2c.c ****   /* Configure speed in standard mode */
 227:firmware/STM32F10x_StdPeriph_Lib_V3.3.0/Libraries/STM32F10x_StdPeriph_Driver/src/stm32f10x_i2c.c ****   if (I2C_InitStruct->I2C_ClockSpeed <= 100000)
 138              		.loc 1 227 0
 139 002a 2A68     		ldr	r2, [r5, #0]
 221:firmware/STM32F10x_StdPeriph_Lib_V3.3.0/Libraries/STM32F10x_StdPeriph_Driver/src/stm32f10x_i2c.c ****   I2Cx->CR1 &= CR1_PE_Reset;
 140              		.loc 1 221 0
 141 002c 21F00101 		bic	r1, r1, #1
 142              		.loc 1 227 0
 143 0030 284B     		ldr	r3, .L14+4
 221:firmware/STM32F10x_StdPeriph_Lib_V3.3.0/Libraries/STM32F10x_StdPeriph_Driver/src/stm32f10x_i2c.c ****   I2Cx->CR1 &= CR1_PE_Reset;
 144              		.loc 1 221 0
 145 0032 0904     		lsls	r1, r1, #16
 146 0034 090C     		lsrs	r1, r1, #16
 147              		.loc 1 227 0
 148 0036 9A42     		cmp	r2, r3
 221:firmware/STM32F10x_StdPeriph_Lib_V3.3.0/Libraries/STM32F10x_StdPeriph_Driver/src/stm32f10x_i2c.c ****   I2Cx->CR1 &= CR1_PE_Reset;
 149              		.loc 1 221 0
 150 0038 2180     		strh	r1, [r4, #0]	@ movhi
 151              	.LVL12:
 152              		.loc 1 227 0
 153 003a 0AD8     		bhi	.L7
 228:firmware/STM32F10x_StdPeriph_Lib_V3.3.0/Libraries/STM32F10x_StdPeriph_Driver/src/stm32f10x_i2c.c ****   {
 229:firmware/STM32F10x_StdPeriph_Lib_V3.3.0/Libraries/STM32F10x_StdPeriph_Driver/src/stm32f10x_i2c.c ****     /* Standard mode speed calculate */
 230:firmware/STM32F10x_StdPeriph_Lib_V3.3.0/Libraries/STM32F10x_StdPeriph_Driver/src/stm32f10x_i2c.c ****     result = (uint16_t)(pclk1 / (I2C_InitStruct->I2C_ClockSpeed << 1));
 154              		.loc 1 230 0
 155 003c 5300     		lsls	r3, r2, #1
 156 003e B0FBF3F3 		udiv	r3, r0, r3
 231:firmware/STM32F10x_StdPeriph_Lib_V3.3.0/Libraries/STM32F10x_StdPeriph_Driver/src/stm32f10x_i2c.c ****     /* Test if CCR value is under 0x4*/
 232:firmware/STM32F10x_StdPeriph_Lib_V3.3.0/Libraries/STM32F10x_StdPeriph_Driver/src/stm32f10x_i2c.c ****     if (result < 0x04)
 233:firmware/STM32F10x_StdPeriph_Lib_V3.3.0/Libraries/STM32F10x_StdPeriph_Driver/src/stm32f10x_i2c.c ****     {
 234:firmware/STM32F10x_StdPeriph_Lib_V3.3.0/Libraries/STM32F10x_StdPeriph_Driver/src/stm32f10x_i2c.c ****       /* Set minimum allowed value */
 235:firmware/STM32F10x_StdPeriph_Lib_V3.3.0/Libraries/STM32F10x_StdPeriph_Driver/src/stm32f10x_i2c.c ****       result = 0x04;  
 236:firmware/STM32F10x_StdPeriph_Lib_V3.3.0/Libraries/STM32F10x_StdPeriph_Driver/src/stm32f10x_i2c.c ****     }
 237:firmware/STM32F10x_StdPeriph_Lib_V3.3.0/Libraries/STM32F10x_StdPeriph_Driver/src/stm32f10x_i2c.c ****     /* Set speed value for standard mode */
 238:firmware/STM32F10x_StdPeriph_Lib_V3.3.0/Libraries/STM32F10x_StdPeriph_Driver/src/stm32f10x_i2c.c ****     tmpreg |= result;	  
 239:firmware/STM32F10x_StdPeriph_Lib_V3.3.0/Libraries/STM32F10x_StdPeriph_Driver/src/stm32f10x_i2c.c ****     /* Set Maximum Rise Time for standard mode */
 240:firmware/STM32F10x_StdPeriph_Lib_V3.3.0/Libraries/STM32F10x_StdPeriph_Driver/src/stm32f10x_i2c.c ****     I2Cx->TRISE = freqrange + 1; 
 157              		.loc 1 240 0
 158 0042 0137     		adds	r7, r7, #1
 159              	.LVL13:
 230:firmware/STM32F10x_StdPeriph_Lib_V3.3.0/Libraries/STM32F10x_StdPeriph_Driver/src/stm32f10x_i2c.c ****     result = (uint16_t)(pclk1 / (I2C_InitStruct->I2C_ClockSpeed << 1));
 160              		.loc 1 230 0
 161 0044 9BB2     		uxth	r3, r3
 162              	.LVL14:
 163              		.loc 1 240 0
 164 0046 BFB2     		uxth	r7, r7
 165              	.LVL15:
 166 0048 2784     		strh	r7, [r4, #32]	@ movhi
 238:firmware/STM32F10x_StdPeriph_Lib_V3.3.0/Libraries/STM32F10x_StdPeriph_Driver/src/stm32f10x_i2c.c ****     tmpreg |= result;	  
 167              		.loc 1 238 0
 168 004a 032B     		cmp	r3, #3
 169 004c 98BF     		it	ls
 170 004e 0423     		movls	r3, #4
 171              	.LVL16:
 172 0050 22E0     		b	.L9
 173              	.LVL17:
 174              	.L7:
 241:firmware/STM32F10x_StdPeriph_Lib_V3.3.0/Libraries/STM32F10x_StdPeriph_Driver/src/stm32f10x_i2c.c ****   }
 242:firmware/STM32F10x_StdPeriph_Lib_V3.3.0/Libraries/STM32F10x_StdPeriph_Driver/src/stm32f10x_i2c.c ****   /* Configure speed in fast mode */
 243:firmware/STM32F10x_StdPeriph_Lib_V3.3.0/Libraries/STM32F10x_StdPeriph_Driver/src/stm32f10x_i2c.c ****   else /*(I2C_InitStruct->I2C_ClockSpeed <= 400000)*/
 244:firmware/STM32F10x_StdPeriph_Lib_V3.3.0/Libraries/STM32F10x_StdPeriph_Driver/src/stm32f10x_i2c.c ****   {
 245:firmware/STM32F10x_StdPeriph_Lib_V3.3.0/Libraries/STM32F10x_StdPeriph_Driver/src/stm32f10x_i2c.c ****     if (I2C_InitStruct->I2C_DutyCycle == I2C_DutyCycle_2)
 175              		.loc 1 245 0
 176 0052 E988     		ldrh	r1, [r5, #6]
 177 0054 4BF6FF73 		movw	r3, #49151
 178 0058 9942     		cmp	r1, r3
 179 005a 05D1     		bne	.L10
 246:firmware/STM32F10x_StdPeriph_Lib_V3.3.0/Libraries/STM32F10x_StdPeriph_Driver/src/stm32f10x_i2c.c ****     {
 247:firmware/STM32F10x_StdPeriph_Lib_V3.3.0/Libraries/STM32F10x_StdPeriph_Driver/src/stm32f10x_i2c.c ****       /* Fast mode speed calculate: Tlow/Thigh = 2 */
 248:firmware/STM32F10x_StdPeriph_Lib_V3.3.0/Libraries/STM32F10x_StdPeriph_Driver/src/stm32f10x_i2c.c ****       result = (uint16_t)(pclk1 / (I2C_InitStruct->I2C_ClockSpeed * 3));
 180              		.loc 1 248 0
 181 005c 02EB4202 		add	r2, r2, r2, lsl #1
 182 0060 B0FBF2F3 		udiv	r3, r0, r2
 183 0064 9BB2     		uxth	r3, r3
 184              	.LVL18:
 185 0066 06E0     		b	.L11
 186              	.LVL19:
 187              	.L10:
 249:firmware/STM32F10x_StdPeriph_Lib_V3.3.0/Libraries/STM32F10x_StdPeriph_Driver/src/stm32f10x_i2c.c ****     }
 250:firmware/STM32F10x_StdPeriph_Lib_V3.3.0/Libraries/STM32F10x_StdPeriph_Driver/src/stm32f10x_i2c.c ****     else /*I2C_InitStruct->I2C_DutyCycle == I2C_DutyCycle_16_9*/
 251:firmware/STM32F10x_StdPeriph_Lib_V3.3.0/Libraries/STM32F10x_StdPeriph_Driver/src/stm32f10x_i2c.c ****     {
 252:firmware/STM32F10x_StdPeriph_Lib_V3.3.0/Libraries/STM32F10x_StdPeriph_Driver/src/stm32f10x_i2c.c ****       /* Fast mode speed calculate: Tlow/Thigh = 16/9 */
 253:firmware/STM32F10x_StdPeriph_Lib_V3.3.0/Libraries/STM32F10x_StdPeriph_Driver/src/stm32f10x_i2c.c ****       result = (uint16_t)(pclk1 / (I2C_InitStruct->I2C_ClockSpeed * 25));
 188              		.loc 1 253 0
 189 0068 1923     		movs	r3, #25
 190 006a 5343     		muls	r3, r2, r3
 191 006c B0FBF3F3 		udiv	r3, r0, r3
 192 0070 9BB2     		uxth	r3, r3
 193              	.LVL20:
 254:firmware/STM32F10x_StdPeriph_Lib_V3.3.0/Libraries/STM32F10x_StdPeriph_Driver/src/stm32f10x_i2c.c ****       /* Set DUTY bit */
 255:firmware/STM32F10x_StdPeriph_Lib_V3.3.0/Libraries/STM32F10x_StdPeriph_Driver/src/stm32f10x_i2c.c ****       result |= I2C_DutyCycle_16_9;
 194              		.loc 1 255 0
 195 0072 43F48043 		orr	r3, r3, #16384
 196              	.LVL21:
 197              	.L11:
 256:firmware/STM32F10x_StdPeriph_Lib_V3.3.0/Libraries/STM32F10x_StdPeriph_Driver/src/stm32f10x_i2c.c ****     }
 257:firmware/STM32F10x_StdPeriph_Lib_V3.3.0/Libraries/STM32F10x_StdPeriph_Driver/src/stm32f10x_i2c.c **** 
 258:firmware/STM32F10x_StdPeriph_Lib_V3.3.0/Libraries/STM32F10x_StdPeriph_Driver/src/stm32f10x_i2c.c ****     /* Test if CCR value is under 0x1*/
 259:firmware/STM32F10x_StdPeriph_Lib_V3.3.0/Libraries/STM32F10x_StdPeriph_Driver/src/stm32f10x_i2c.c ****     if ((result & CCR_CCR_Set) == 0)
 198              		.loc 1 259 0
 199 0076 1A05     		lsls	r2, r3, #20
 200 0078 120D     		lsrs	r2, r2, #20
 201 007a 0AB9     		cbnz	r2, .L12
 260:firmware/STM32F10x_StdPeriph_Lib_V3.3.0/Libraries/STM32F10x_StdPeriph_Driver/src/stm32f10x_i2c.c ****     {
 261:firmware/STM32F10x_StdPeriph_Lib_V3.3.0/Libraries/STM32F10x_StdPeriph_Driver/src/stm32f10x_i2c.c ****       /* Set minimum allowed value */
 262:firmware/STM32F10x_StdPeriph_Lib_V3.3.0/Libraries/STM32F10x_StdPeriph_Driver/src/stm32f10x_i2c.c ****       result |= (uint16_t)0x0001;  
 202              		.loc 1 262 0
 203 007c 43F00103 		orr	r3, r3, #1
 204              	.LVL22:
 205              	.L12:
 263:firmware/STM32F10x_StdPeriph_Lib_V3.3.0/Libraries/STM32F10x_StdPeriph_Driver/src/stm32f10x_i2c.c ****     }
 264:firmware/STM32F10x_StdPeriph_Lib_V3.3.0/Libraries/STM32F10x_StdPeriph_Driver/src/stm32f10x_i2c.c ****     /* Set speed value and set F/S bit for fast mode */
 265:firmware/STM32F10x_StdPeriph_Lib_V3.3.0/Libraries/STM32F10x_StdPeriph_Driver/src/stm32f10x_i2c.c ****     tmpreg |= (uint16_t)(result | CCR_FS_Set);
 266:firmware/STM32F10x_StdPeriph_Lib_V3.3.0/Libraries/STM32F10x_StdPeriph_Driver/src/stm32f10x_i2c.c ****     /* Set Maximum Rise Time for fast mode */
 267:firmware/STM32F10x_StdPeriph_Lib_V3.3.0/Libraries/STM32F10x_StdPeriph_Driver/src/stm32f10x_i2c.c ****     I2Cx->TRISE = (uint16_t)(((freqrange * (uint16_t)300) / (uint16_t)1000) + (uint16_t)1);  
 206              		.loc 1 267 0
 207 0080 4FF49672 		mov	r2, #300
 208 0084 5743     		muls	r7, r2, r7
 209              	.LVL23:
 210 0086 4FF47A72 		mov	r2, #1000
 211 008a 97FBF2F7 		sdiv	r7, r7, r2
 212 008e 0137     		adds	r7, r7, #1
 213 0090 BFB2     		uxth	r7, r7
 265:firmware/STM32F10x_StdPeriph_Lib_V3.3.0/Libraries/STM32F10x_StdPeriph_Driver/src/stm32f10x_i2c.c ****     tmpreg |= (uint16_t)(result | CCR_FS_Set);
 214              		.loc 1 265 0
 215 0092 43F40043 		orr	r3, r3, #32768
 216              	.LVL24:
 217              		.loc 1 267 0
 218 0096 2784     		strh	r7, [r4, #32]	@ movhi
 219              	.LVL25:
 220              	.L9:
 268:firmware/STM32F10x_StdPeriph_Lib_V3.3.0/Libraries/STM32F10x_StdPeriph_Driver/src/stm32f10x_i2c.c ****   }
 269:firmware/STM32F10x_StdPeriph_Lib_V3.3.0/Libraries/STM32F10x_StdPeriph_Driver/src/stm32f10x_i2c.c **** 
 270:firmware/STM32F10x_StdPeriph_Lib_V3.3.0/Libraries/STM32F10x_StdPeriph_Driver/src/stm32f10x_i2c.c ****   /* Write to I2Cx CCR */
 271:firmware/STM32F10x_StdPeriph_Lib_V3.3.0/Libraries/STM32F10x_StdPeriph_Driver/src/stm32f10x_i2c.c ****   I2Cx->CCR = tmpreg;
 221              		.loc 1 271 0
 222 0098 A383     		strh	r3, [r4, #28]	@ movhi
 272:firmware/STM32F10x_StdPeriph_Lib_V3.3.0/Libraries/STM32F10x_StdPeriph_Driver/src/stm32f10x_i2c.c ****   /* Enable the selected I2C peripheral */
 273:firmware/STM32F10x_StdPeriph_Lib_V3.3.0/Libraries/STM32F10x_StdPeriph_Driver/src/stm32f10x_i2c.c ****   I2Cx->CR1 |= CR1_PE_Set;
 223              		.loc 1 273 0
 224 009a 2388     		ldrh	r3, [r4, #0]
 225              	.LVL26:
 274:firmware/STM32F10x_StdPeriph_Lib_V3.3.0/Libraries/STM32F10x_StdPeriph_Driver/src/stm32f10x_i2c.c **** 
 275:firmware/STM32F10x_StdPeriph_Lib_V3.3.0/Libraries/STM32F10x_StdPeriph_Driver/src/stm32f10x_i2c.c **** /*---------------------------- I2Cx CR1 Configuration ------------------------*/
 276:firmware/STM32F10x_StdPeriph_Lib_V3.3.0/Libraries/STM32F10x_StdPeriph_Driver/src/stm32f10x_i2c.c ****   /* Get the I2Cx CR1 value */
 277:firmware/STM32F10x_StdPeriph_Lib_V3.3.0/Libraries/STM32F10x_StdPeriph_Driver/src/stm32f10x_i2c.c ****   tmpreg = I2Cx->CR1;
 278:firmware/STM32F10x_StdPeriph_Lib_V3.3.0/Libraries/STM32F10x_StdPeriph_Driver/src/stm32f10x_i2c.c ****   /* Clear ACK, SMBTYPE and  SMBUS bits */
 279:firmware/STM32F10x_StdPeriph_Lib_V3.3.0/Libraries/STM32F10x_StdPeriph_Driver/src/stm32f10x_i2c.c ****   tmpreg &= CR1_CLEAR_Mask;
 280:firmware/STM32F10x_StdPeriph_Lib_V3.3.0/Libraries/STM32F10x_StdPeriph_Driver/src/stm32f10x_i2c.c ****   /* Configure I2Cx: mode and acknowledgement */
 281:firmware/STM32F10x_StdPeriph_Lib_V3.3.0/Libraries/STM32F10x_StdPeriph_Driver/src/stm32f10x_i2c.c ****   /* Set SMBTYPE and SMBUS bits according to I2C_Mode value */
 282:firmware/STM32F10x_StdPeriph_Lib_V3.3.0/Libraries/STM32F10x_StdPeriph_Driver/src/stm32f10x_i2c.c ****   /* Set ACK bit according to I2C_Ack value */
 283:firmware/STM32F10x_StdPeriph_Lib_V3.3.0/Libraries/STM32F10x_StdPeriph_Driver/src/stm32f10x_i2c.c ****   tmpreg |= (uint16_t)((uint32_t)I2C_InitStruct->I2C_Mode | I2C_InitStruct->I2C_Ack);
 226              		.loc 1 283 0
 227 009c 6989     		ldrh	r1, [r5, #10]
 273:firmware/STM32F10x_StdPeriph_Lib_V3.3.0/Libraries/STM32F10x_StdPeriph_Driver/src/stm32f10x_i2c.c ****   I2Cx->CR1 |= CR1_PE_Set;
 228              		.loc 1 273 0
 229 009e 9BB2     		uxth	r3, r3
 230 00a0 43F00103 		orr	r3, r3, #1
 231 00a4 2380     		strh	r3, [r4, #0]	@ movhi
 277:firmware/STM32F10x_StdPeriph_Lib_V3.3.0/Libraries/STM32F10x_StdPeriph_Driver/src/stm32f10x_i2c.c ****   tmpreg = I2Cx->CR1;
 232              		.loc 1 277 0
 233 00a6 2388     		ldrh	r3, [r4, #0]
 234              	.LVL27:
 235              		.loc 1 283 0
 236 00a8 AA88     		ldrh	r2, [r5, #4]
 279:firmware/STM32F10x_StdPeriph_Lib_V3.3.0/Libraries/STM32F10x_StdPeriph_Driver/src/stm32f10x_i2c.c ****   tmpreg &= CR1_CLEAR_Mask;
 237              		.loc 1 279 0
 238 00aa 23F48063 		bic	r3, r3, #1024
 239              	.LVL28:
 240 00ae 23F00A03 		bic	r3, r3, #10
 241 00b2 1B04     		lsls	r3, r3, #16
 242              		.loc 1 283 0
 243 00b4 41EA0202 		orr	r2, r1, r2
 279:firmware/STM32F10x_StdPeriph_Lib_V3.3.0/Libraries/STM32F10x_StdPeriph_Driver/src/stm32f10x_i2c.c ****   tmpreg &= CR1_CLEAR_Mask;
 244              		.loc 1 279 0
 245 00b8 1B0C     		lsrs	r3, r3, #16
 246              	.LVL29:
 247              		.loc 1 283 0
 248 00ba 1343     		orrs	r3, r3, r2
 249              	.LVL30:
 250 00bc 9BB2     		uxth	r3, r3
 251              	.LVL31:
 284:firmware/STM32F10x_StdPeriph_Lib_V3.3.0/Libraries/STM32F10x_StdPeriph_Driver/src/stm32f10x_i2c.c ****   /* Write to I2Cx CR1 */
 285:firmware/STM32F10x_StdPeriph_Lib_V3.3.0/Libraries/STM32F10x_StdPeriph_Driver/src/stm32f10x_i2c.c ****   I2Cx->CR1 = tmpreg;
 252              		.loc 1 285 0
 253 00be 2380     		strh	r3, [r4, #0]	@ movhi
 286:firmware/STM32F10x_StdPeriph_Lib_V3.3.0/Libraries/STM32F10x_StdPeriph_Driver/src/stm32f10x_i2c.c **** 
 287:firmware/STM32F10x_StdPeriph_Lib_V3.3.0/Libraries/STM32F10x_StdPeriph_Driver/src/stm32f10x_i2c.c **** /*---------------------------- I2Cx OAR1 Configuration -----------------------*/
 288:firmware/STM32F10x_StdPeriph_Lib_V3.3.0/Libraries/STM32F10x_StdPeriph_Driver/src/stm32f10x_i2c.c ****   /* Set I2Cx Own Address1 and acknowledged address */
 289:firmware/STM32F10x_StdPeriph_Lib_V3.3.0/Libraries/STM32F10x_StdPeriph_Driver/src/stm32f10x_i2c.c ****   I2Cx->OAR1 = (I2C_InitStruct->I2C_AcknowledgedAddress | I2C_InitStruct->I2C_OwnAddress1);
 254              		.loc 1 289 0
 255 00c0 2A89     		ldrh	r2, [r5, #8]
 256 00c2 AB89     		ldrh	r3, [r5, #12]
 257              	.LVL32:
 258 00c4 42EA0303 		orr	r3, r2, r3
 259 00c8 9BB2     		uxth	r3, r3
 260 00ca 2381     		strh	r3, [r4, #8]	@ movhi
 290:firmware/STM32F10x_StdPeriph_Lib_V3.3.0/Libraries/STM32F10x_StdPeriph_Driver/src/stm32f10x_i2c.c **** }
 261              		.loc 1 290 0
 262 00cc 07B0     		add	sp, sp, #28
 263 00ce F0BD     		pop	{r4, r5, r6, r7, pc}
 264              	.L15:
 265              		.align	2
 266              	.L14:
 267 00d0 40420F00 		.word	1000000
 268 00d4 A0860100 		.word	100000
 269              		.cfi_endproc
 270              	.LFE30:
 272              		.section	.text.I2C_StructInit,"ax",%progbits
 273              		.align	1
 274              		.global	I2C_StructInit
 275              		.thumb
 276              		.thumb_func
 278              	I2C_StructInit:
 279              	.LFB31:
 291:firmware/STM32F10x_StdPeriph_Lib_V3.3.0/Libraries/STM32F10x_StdPeriph_Driver/src/stm32f10x_i2c.c **** 
 292:firmware/STM32F10x_StdPeriph_Lib_V3.3.0/Libraries/STM32F10x_StdPeriph_Driver/src/stm32f10x_i2c.c **** /**
 293:firmware/STM32F10x_StdPeriph_Lib_V3.3.0/Libraries/STM32F10x_StdPeriph_Driver/src/stm32f10x_i2c.c ****   * @brief  Fills each I2C_InitStruct member with its default value.
 294:firmware/STM32F10x_StdPeriph_Lib_V3.3.0/Libraries/STM32F10x_StdPeriph_Driver/src/stm32f10x_i2c.c ****   * @param  I2C_InitStruct: pointer to an I2C_InitTypeDef structure which will be initialized.
 295:firmware/STM32F10x_StdPeriph_Lib_V3.3.0/Libraries/STM32F10x_StdPeriph_Driver/src/stm32f10x_i2c.c ****   * @retval None
 296:firmware/STM32F10x_StdPeriph_Lib_V3.3.0/Libraries/STM32F10x_StdPeriph_Driver/src/stm32f10x_i2c.c ****   */
 297:firmware/STM32F10x_StdPeriph_Lib_V3.3.0/Libraries/STM32F10x_StdPeriph_Driver/src/stm32f10x_i2c.c **** void I2C_StructInit(I2C_InitTypeDef* I2C_InitStruct)
 298:firmware/STM32F10x_StdPeriph_Lib_V3.3.0/Libraries/STM32F10x_StdPeriph_Driver/src/stm32f10x_i2c.c **** {
 280              		.loc 1 298 0
 281              		.cfi_startproc
 282              		@ args = 0, pretend = 0, frame = 0
 283              		@ frame_needed = 0, uses_anonymous_args = 0
 284              		@ link register save eliminated.
 285              	.LVL33:
 299:firmware/STM32F10x_StdPeriph_Lib_V3.3.0/Libraries/STM32F10x_StdPeriph_Driver/src/stm32f10x_i2c.c **** /*---------------- Reset I2C init structure parameters values ----------------*/
 300:firmware/STM32F10x_StdPeriph_Lib_V3.3.0/Libraries/STM32F10x_StdPeriph_Driver/src/stm32f10x_i2c.c ****   /* initialize the I2C_ClockSpeed member */
 301:firmware/STM32F10x_StdPeriph_Lib_V3.3.0/Libraries/STM32F10x_StdPeriph_Driver/src/stm32f10x_i2c.c ****   I2C_InitStruct->I2C_ClockSpeed = 5000;
 286              		.loc 1 301 0
 287 0000 41F28833 		movw	r3, #5000
 288 0004 0360     		str	r3, [r0, #0]
 302:firmware/STM32F10x_StdPeriph_Lib_V3.3.0/Libraries/STM32F10x_StdPeriph_Driver/src/stm32f10x_i2c.c ****   /* Initialize the I2C_Mode member */
 303:firmware/STM32F10x_StdPeriph_Lib_V3.3.0/Libraries/STM32F10x_StdPeriph_Driver/src/stm32f10x_i2c.c ****   I2C_InitStruct->I2C_Mode = I2C_Mode_I2C;
 289              		.loc 1 303 0
 290 0006 0023     		movs	r3, #0
 291 0008 8380     		strh	r3, [r0, #4]	@ movhi
 304:firmware/STM32F10x_StdPeriph_Lib_V3.3.0/Libraries/STM32F10x_StdPeriph_Driver/src/stm32f10x_i2c.c ****   /* Initialize the I2C_DutyCycle member */
 305:firmware/STM32F10x_StdPeriph_Lib_V3.3.0/Libraries/STM32F10x_StdPeriph_Driver/src/stm32f10x_i2c.c ****   I2C_InitStruct->I2C_DutyCycle = I2C_DutyCycle_2;
 292              		.loc 1 305 0
 293 000a 4BF6FF72 		movw	r2, 49151	@ movhi
 306:firmware/STM32F10x_StdPeriph_Lib_V3.3.0/Libraries/STM32F10x_StdPeriph_Driver/src/stm32f10x_i2c.c ****   /* Initialize the I2C_OwnAddress1 member */
 307:firmware/STM32F10x_StdPeriph_Lib_V3.3.0/Libraries/STM32F10x_StdPeriph_Driver/src/stm32f10x_i2c.c ****   I2C_InitStruct->I2C_OwnAddress1 = 0;
 294              		.loc 1 307 0
 295 000e 0381     		strh	r3, [r0, #8]	@ movhi
 308:firmware/STM32F10x_StdPeriph_Lib_V3.3.0/Libraries/STM32F10x_StdPeriph_Driver/src/stm32f10x_i2c.c ****   /* Initialize the I2C_Ack member */
 309:firmware/STM32F10x_StdPeriph_Lib_V3.3.0/Libraries/STM32F10x_StdPeriph_Driver/src/stm32f10x_i2c.c ****   I2C_InitStruct->I2C_Ack = I2C_Ack_Disable;
 296              		.loc 1 309 0
 297 0010 4381     		strh	r3, [r0, #10]	@ movhi
 310:firmware/STM32F10x_StdPeriph_Lib_V3.3.0/Libraries/STM32F10x_StdPeriph_Driver/src/stm32f10x_i2c.c ****   /* Initialize the I2C_AcknowledgedAddress member */
 311:firmware/STM32F10x_StdPeriph_Lib_V3.3.0/Libraries/STM32F10x_StdPeriph_Driver/src/stm32f10x_i2c.c ****   I2C_InitStruct->I2C_AcknowledgedAddress = I2C_AcknowledgedAddress_7bit;
 298              		.loc 1 311 0
 299 0012 4FF48043 		mov	r3, #16384	@ movhi
 305:firmware/STM32F10x_StdPeriph_Lib_V3.3.0/Libraries/STM32F10x_StdPeriph_Driver/src/stm32f10x_i2c.c ****   I2C_InitStruct->I2C_DutyCycle = I2C_DutyCycle_2;
 300              		.loc 1 305 0
 301 0016 C280     		strh	r2, [r0, #6]	@ movhi
 302              		.loc 1 311 0
 303 0018 8381     		strh	r3, [r0, #12]	@ movhi
 312:firmware/STM32F10x_StdPeriph_Lib_V3.3.0/Libraries/STM32F10x_StdPeriph_Driver/src/stm32f10x_i2c.c **** }
 304              		.loc 1 312 0
 305 001a 7047     		bx	lr
 306              		.cfi_endproc
 307              	.LFE31:
 309              		.section	.text.I2C_Cmd,"ax",%progbits
 310              		.align	1
 311              		.global	I2C_Cmd
 312              		.thumb
 313              		.thumb_func
 315              	I2C_Cmd:
 316              	.LFB32:
 313:firmware/STM32F10x_StdPeriph_Lib_V3.3.0/Libraries/STM32F10x_StdPeriph_Driver/src/stm32f10x_i2c.c **** 
 314:firmware/STM32F10x_StdPeriph_Lib_V3.3.0/Libraries/STM32F10x_StdPeriph_Driver/src/stm32f10x_i2c.c **** /**
 315:firmware/STM32F10x_StdPeriph_Lib_V3.3.0/Libraries/STM32F10x_StdPeriph_Driver/src/stm32f10x_i2c.c ****   * @brief  Enables or disables the specified I2C peripheral.
 316:firmware/STM32F10x_StdPeriph_Lib_V3.3.0/Libraries/STM32F10x_StdPeriph_Driver/src/stm32f10x_i2c.c ****   * @param  I2Cx: where x can be 1 or 2 to select the I2C peripheral.
 317:firmware/STM32F10x_StdPeriph_Lib_V3.3.0/Libraries/STM32F10x_StdPeriph_Driver/src/stm32f10x_i2c.c ****   * @param  NewState: new state of the I2Cx peripheral. 
 318:firmware/STM32F10x_StdPeriph_Lib_V3.3.0/Libraries/STM32F10x_StdPeriph_Driver/src/stm32f10x_i2c.c ****   *   This parameter can be: ENABLE or DISABLE.
 319:firmware/STM32F10x_StdPeriph_Lib_V3.3.0/Libraries/STM32F10x_StdPeriph_Driver/src/stm32f10x_i2c.c ****   * @retval None
 320:firmware/STM32F10x_StdPeriph_Lib_V3.3.0/Libraries/STM32F10x_StdPeriph_Driver/src/stm32f10x_i2c.c ****   */
 321:firmware/STM32F10x_StdPeriph_Lib_V3.3.0/Libraries/STM32F10x_StdPeriph_Driver/src/stm32f10x_i2c.c **** void I2C_Cmd(I2C_TypeDef* I2Cx, FunctionalState NewState)
 322:firmware/STM32F10x_StdPeriph_Lib_V3.3.0/Libraries/STM32F10x_StdPeriph_Driver/src/stm32f10x_i2c.c **** {
 317              		.loc 1 322 0
 318              		.cfi_startproc
 319              		@ args = 0, pretend = 0, frame = 0
 320              		@ frame_needed = 0, uses_anonymous_args = 0
 321              		@ link register save eliminated.
 322              	.LVL34:
 323:firmware/STM32F10x_StdPeriph_Lib_V3.3.0/Libraries/STM32F10x_StdPeriph_Driver/src/stm32f10x_i2c.c ****   /* Check the parameters */
 324:firmware/STM32F10x_StdPeriph_Lib_V3.3.0/Libraries/STM32F10x_StdPeriph_Driver/src/stm32f10x_i2c.c ****   assert_param(IS_I2C_ALL_PERIPH(I2Cx));
 325:firmware/STM32F10x_StdPeriph_Lib_V3.3.0/Libraries/STM32F10x_StdPeriph_Driver/src/stm32f10x_i2c.c ****   assert_param(IS_FUNCTIONAL_STATE(NewState));
 326:firmware/STM32F10x_StdPeriph_Lib_V3.3.0/Libraries/STM32F10x_StdPeriph_Driver/src/stm32f10x_i2c.c ****   if (NewState != DISABLE)
 323              		.loc 1 326 0
 324 0000 21B1     		cbz	r1, .L18
 327:firmware/STM32F10x_StdPeriph_Lib_V3.3.0/Libraries/STM32F10x_StdPeriph_Driver/src/stm32f10x_i2c.c ****   {
 328:firmware/STM32F10x_StdPeriph_Lib_V3.3.0/Libraries/STM32F10x_StdPeriph_Driver/src/stm32f10x_i2c.c ****     /* Enable the selected I2C peripheral */
 329:firmware/STM32F10x_StdPeriph_Lib_V3.3.0/Libraries/STM32F10x_StdPeriph_Driver/src/stm32f10x_i2c.c ****     I2Cx->CR1 |= CR1_PE_Set;
 325              		.loc 1 329 0
 326 0002 0388     		ldrh	r3, [r0, #0]
 327 0004 9BB2     		uxth	r3, r3
 328 0006 43F00103 		orr	r3, r3, #1
 329 000a 04E0     		b	.L20
 330              	.L18:
 330:firmware/STM32F10x_StdPeriph_Lib_V3.3.0/Libraries/STM32F10x_StdPeriph_Driver/src/stm32f10x_i2c.c ****   }
 331:firmware/STM32F10x_StdPeriph_Lib_V3.3.0/Libraries/STM32F10x_StdPeriph_Driver/src/stm32f10x_i2c.c ****   else
 332:firmware/STM32F10x_StdPeriph_Lib_V3.3.0/Libraries/STM32F10x_StdPeriph_Driver/src/stm32f10x_i2c.c ****   {
 333:firmware/STM32F10x_StdPeriph_Lib_V3.3.0/Libraries/STM32F10x_StdPeriph_Driver/src/stm32f10x_i2c.c ****     /* Disable the selected I2C peripheral */
 334:firmware/STM32F10x_StdPeriph_Lib_V3.3.0/Libraries/STM32F10x_StdPeriph_Driver/src/stm32f10x_i2c.c ****     I2Cx->CR1 &= CR1_PE_Reset;
 331              		.loc 1 334 0
 332 000c 0388     		ldrh	r3, [r0, #0]
 333 000e 23F00103 		bic	r3, r3, #1
 334 0012 1B04     		lsls	r3, r3, #16
 335 0014 1B0C     		lsrs	r3, r3, #16
 336              	.L20:
 337 0016 0380     		strh	r3, [r0, #0]	@ movhi
 338 0018 7047     		bx	lr
 339              		.cfi_endproc
 340              	.LFE32:
 342              		.section	.text.I2C_DMACmd,"ax",%progbits
 343              		.align	1
 344              		.global	I2C_DMACmd
 345              		.thumb
 346              		.thumb_func
 348              	I2C_DMACmd:
 349              	.LFB33:
 335:firmware/STM32F10x_StdPeriph_Lib_V3.3.0/Libraries/STM32F10x_StdPeriph_Driver/src/stm32f10x_i2c.c ****   }
 336:firmware/STM32F10x_StdPeriph_Lib_V3.3.0/Libraries/STM32F10x_StdPeriph_Driver/src/stm32f10x_i2c.c **** }
 337:firmware/STM32F10x_StdPeriph_Lib_V3.3.0/Libraries/STM32F10x_StdPeriph_Driver/src/stm32f10x_i2c.c **** 
 338:firmware/STM32F10x_StdPeriph_Lib_V3.3.0/Libraries/STM32F10x_StdPeriph_Driver/src/stm32f10x_i2c.c **** /**
 339:firmware/STM32F10x_StdPeriph_Lib_V3.3.0/Libraries/STM32F10x_StdPeriph_Driver/src/stm32f10x_i2c.c ****   * @brief  Enables or disables the specified I2C DMA requests.
 340:firmware/STM32F10x_StdPeriph_Lib_V3.3.0/Libraries/STM32F10x_StdPeriph_Driver/src/stm32f10x_i2c.c ****   * @param  I2Cx: where x can be 1 or 2 to select the I2C peripheral.
 341:firmware/STM32F10x_StdPeriph_Lib_V3.3.0/Libraries/STM32F10x_StdPeriph_Driver/src/stm32f10x_i2c.c ****   * @param  NewState: new state of the I2C DMA transfer.
 342:firmware/STM32F10x_StdPeriph_Lib_V3.3.0/Libraries/STM32F10x_StdPeriph_Driver/src/stm32f10x_i2c.c ****   *   This parameter can be: ENABLE or DISABLE.
 343:firmware/STM32F10x_StdPeriph_Lib_V3.3.0/Libraries/STM32F10x_StdPeriph_Driver/src/stm32f10x_i2c.c ****   * @retval None
 344:firmware/STM32F10x_StdPeriph_Lib_V3.3.0/Libraries/STM32F10x_StdPeriph_Driver/src/stm32f10x_i2c.c ****   */
 345:firmware/STM32F10x_StdPeriph_Lib_V3.3.0/Libraries/STM32F10x_StdPeriph_Driver/src/stm32f10x_i2c.c **** void I2C_DMACmd(I2C_TypeDef* I2Cx, FunctionalState NewState)
 346:firmware/STM32F10x_StdPeriph_Lib_V3.3.0/Libraries/STM32F10x_StdPeriph_Driver/src/stm32f10x_i2c.c **** {
 350              		.loc 1 346 0
 351              		.cfi_startproc
 352              		@ args = 0, pretend = 0, frame = 0
 353              		@ frame_needed = 0, uses_anonymous_args = 0
 354              		@ link register save eliminated.
 355              	.LVL35:
 347:firmware/STM32F10x_StdPeriph_Lib_V3.3.0/Libraries/STM32F10x_StdPeriph_Driver/src/stm32f10x_i2c.c ****   /* Check the parameters */
 348:firmware/STM32F10x_StdPeriph_Lib_V3.3.0/Libraries/STM32F10x_StdPeriph_Driver/src/stm32f10x_i2c.c ****   assert_param(IS_I2C_ALL_PERIPH(I2Cx));
 349:firmware/STM32F10x_StdPeriph_Lib_V3.3.0/Libraries/STM32F10x_StdPeriph_Driver/src/stm32f10x_i2c.c ****   assert_param(IS_FUNCTIONAL_STATE(NewState));
 350:firmware/STM32F10x_StdPeriph_Lib_V3.3.0/Libraries/STM32F10x_StdPeriph_Driver/src/stm32f10x_i2c.c ****   if (NewState != DISABLE)
 356              		.loc 1 350 0
 357 0000 21B1     		cbz	r1, .L22
 351:firmware/STM32F10x_StdPeriph_Lib_V3.3.0/Libraries/STM32F10x_StdPeriph_Driver/src/stm32f10x_i2c.c ****   {
 352:firmware/STM32F10x_StdPeriph_Lib_V3.3.0/Libraries/STM32F10x_StdPeriph_Driver/src/stm32f10x_i2c.c ****     /* Enable the selected I2C DMA requests */
 353:firmware/STM32F10x_StdPeriph_Lib_V3.3.0/Libraries/STM32F10x_StdPeriph_Driver/src/stm32f10x_i2c.c ****     I2Cx->CR2 |= CR2_DMAEN_Set;
 358              		.loc 1 353 0
 359 0002 8388     		ldrh	r3, [r0, #4]
 360 0004 9BB2     		uxth	r3, r3
 361 0006 43F40063 		orr	r3, r3, #2048
 362 000a 04E0     		b	.L24
 363              	.L22:
 354:firmware/STM32F10x_StdPeriph_Lib_V3.3.0/Libraries/STM32F10x_StdPeriph_Driver/src/stm32f10x_i2c.c ****   }
 355:firmware/STM32F10x_StdPeriph_Lib_V3.3.0/Libraries/STM32F10x_StdPeriph_Driver/src/stm32f10x_i2c.c ****   else
 356:firmware/STM32F10x_StdPeriph_Lib_V3.3.0/Libraries/STM32F10x_StdPeriph_Driver/src/stm32f10x_i2c.c ****   {
 357:firmware/STM32F10x_StdPeriph_Lib_V3.3.0/Libraries/STM32F10x_StdPeriph_Driver/src/stm32f10x_i2c.c ****     /* Disable the selected I2C DMA requests */
 358:firmware/STM32F10x_StdPeriph_Lib_V3.3.0/Libraries/STM32F10x_StdPeriph_Driver/src/stm32f10x_i2c.c ****     I2Cx->CR2 &= CR2_DMAEN_Reset;
 364              		.loc 1 358 0
 365 000c 8388     		ldrh	r3, [r0, #4]
 366 000e 23F40063 		bic	r3, r3, #2048
 367 0012 1B04     		lsls	r3, r3, #16
 368 0014 1B0C     		lsrs	r3, r3, #16
 369              	.L24:
 370 0016 8380     		strh	r3, [r0, #4]	@ movhi
 371 0018 7047     		bx	lr
 372              		.cfi_endproc
 373              	.LFE33:
 375              		.section	.text.I2C_DMALastTransferCmd,"ax",%progbits
 376              		.align	1
 377              		.global	I2C_DMALastTransferCmd
 378              		.thumb
 379              		.thumb_func
 381              	I2C_DMALastTransferCmd:
 382              	.LFB34:
 359:firmware/STM32F10x_StdPeriph_Lib_V3.3.0/Libraries/STM32F10x_StdPeriph_Driver/src/stm32f10x_i2c.c ****   }
 360:firmware/STM32F10x_StdPeriph_Lib_V3.3.0/Libraries/STM32F10x_StdPeriph_Driver/src/stm32f10x_i2c.c **** }
 361:firmware/STM32F10x_StdPeriph_Lib_V3.3.0/Libraries/STM32F10x_StdPeriph_Driver/src/stm32f10x_i2c.c **** 
 362:firmware/STM32F10x_StdPeriph_Lib_V3.3.0/Libraries/STM32F10x_StdPeriph_Driver/src/stm32f10x_i2c.c **** /**
 363:firmware/STM32F10x_StdPeriph_Lib_V3.3.0/Libraries/STM32F10x_StdPeriph_Driver/src/stm32f10x_i2c.c ****   * @brief  Specifies if the next DMA transfer will be the last one.
 364:firmware/STM32F10x_StdPeriph_Lib_V3.3.0/Libraries/STM32F10x_StdPeriph_Driver/src/stm32f10x_i2c.c ****   * @param  I2Cx: where x can be 1 or 2 to select the I2C peripheral.
 365:firmware/STM32F10x_StdPeriph_Lib_V3.3.0/Libraries/STM32F10x_StdPeriph_Driver/src/stm32f10x_i2c.c ****   * @param  NewState: new state of the I2C DMA last transfer.
 366:firmware/STM32F10x_StdPeriph_Lib_V3.3.0/Libraries/STM32F10x_StdPeriph_Driver/src/stm32f10x_i2c.c ****   *   This parameter can be: ENABLE or DISABLE.
 367:firmware/STM32F10x_StdPeriph_Lib_V3.3.0/Libraries/STM32F10x_StdPeriph_Driver/src/stm32f10x_i2c.c ****   * @retval None
 368:firmware/STM32F10x_StdPeriph_Lib_V3.3.0/Libraries/STM32F10x_StdPeriph_Driver/src/stm32f10x_i2c.c ****   */
 369:firmware/STM32F10x_StdPeriph_Lib_V3.3.0/Libraries/STM32F10x_StdPeriph_Driver/src/stm32f10x_i2c.c **** void I2C_DMALastTransferCmd(I2C_TypeDef* I2Cx, FunctionalState NewState)
 370:firmware/STM32F10x_StdPeriph_Lib_V3.3.0/Libraries/STM32F10x_StdPeriph_Driver/src/stm32f10x_i2c.c **** {
 383              		.loc 1 370 0
 384              		.cfi_startproc
 385              		@ args = 0, pretend = 0, frame = 0
 386              		@ frame_needed = 0, uses_anonymous_args = 0
 387              		@ link register save eliminated.
 388              	.LVL36:
 371:firmware/STM32F10x_StdPeriph_Lib_V3.3.0/Libraries/STM32F10x_StdPeriph_Driver/src/stm32f10x_i2c.c ****   /* Check the parameters */
 372:firmware/STM32F10x_StdPeriph_Lib_V3.3.0/Libraries/STM32F10x_StdPeriph_Driver/src/stm32f10x_i2c.c ****   assert_param(IS_I2C_ALL_PERIPH(I2Cx));
 373:firmware/STM32F10x_StdPeriph_Lib_V3.3.0/Libraries/STM32F10x_StdPeriph_Driver/src/stm32f10x_i2c.c ****   assert_param(IS_FUNCTIONAL_STATE(NewState));
 374:firmware/STM32F10x_StdPeriph_Lib_V3.3.0/Libraries/STM32F10x_StdPeriph_Driver/src/stm32f10x_i2c.c ****   if (NewState != DISABLE)
 389              		.loc 1 374 0
 390 0000 21B1     		cbz	r1, .L26
 375:firmware/STM32F10x_StdPeriph_Lib_V3.3.0/Libraries/STM32F10x_StdPeriph_Driver/src/stm32f10x_i2c.c ****   {
 376:firmware/STM32F10x_StdPeriph_Lib_V3.3.0/Libraries/STM32F10x_StdPeriph_Driver/src/stm32f10x_i2c.c ****     /* Next DMA transfer is the last transfer */
 377:firmware/STM32F10x_StdPeriph_Lib_V3.3.0/Libraries/STM32F10x_StdPeriph_Driver/src/stm32f10x_i2c.c ****     I2Cx->CR2 |= CR2_LAST_Set;
 391              		.loc 1 377 0
 392 0002 8388     		ldrh	r3, [r0, #4]
 393 0004 9BB2     		uxth	r3, r3
 394 0006 43F48053 		orr	r3, r3, #4096
 395 000a 04E0     		b	.L28
 396              	.L26:
 378:firmware/STM32F10x_StdPeriph_Lib_V3.3.0/Libraries/STM32F10x_StdPeriph_Driver/src/stm32f10x_i2c.c ****   }
 379:firmware/STM32F10x_StdPeriph_Lib_V3.3.0/Libraries/STM32F10x_StdPeriph_Driver/src/stm32f10x_i2c.c ****   else
 380:firmware/STM32F10x_StdPeriph_Lib_V3.3.0/Libraries/STM32F10x_StdPeriph_Driver/src/stm32f10x_i2c.c ****   {
 381:firmware/STM32F10x_StdPeriph_Lib_V3.3.0/Libraries/STM32F10x_StdPeriph_Driver/src/stm32f10x_i2c.c ****     /* Next DMA transfer is not the last transfer */
 382:firmware/STM32F10x_StdPeriph_Lib_V3.3.0/Libraries/STM32F10x_StdPeriph_Driver/src/stm32f10x_i2c.c ****     I2Cx->CR2 &= CR2_LAST_Reset;
 397              		.loc 1 382 0
 398 000c 8388     		ldrh	r3, [r0, #4]
 399 000e 23F48053 		bic	r3, r3, #4096
 400 0012 1B04     		lsls	r3, r3, #16
 401 0014 1B0C     		lsrs	r3, r3, #16
 402              	.L28:
 403 0016 8380     		strh	r3, [r0, #4]	@ movhi
 404 0018 7047     		bx	lr
 405              		.cfi_endproc
 406              	.LFE34:
 408              		.section	.text.I2C_GenerateSTART,"ax",%progbits
 409              		.align	1
 410              		.global	I2C_GenerateSTART
 411              		.thumb
 412              		.thumb_func
 414              	I2C_GenerateSTART:
 415              	.LFB35:
 383:firmware/STM32F10x_StdPeriph_Lib_V3.3.0/Libraries/STM32F10x_StdPeriph_Driver/src/stm32f10x_i2c.c ****   }
 384:firmware/STM32F10x_StdPeriph_Lib_V3.3.0/Libraries/STM32F10x_StdPeriph_Driver/src/stm32f10x_i2c.c **** }
 385:firmware/STM32F10x_StdPeriph_Lib_V3.3.0/Libraries/STM32F10x_StdPeriph_Driver/src/stm32f10x_i2c.c **** 
 386:firmware/STM32F10x_StdPeriph_Lib_V3.3.0/Libraries/STM32F10x_StdPeriph_Driver/src/stm32f10x_i2c.c **** /**
 387:firmware/STM32F10x_StdPeriph_Lib_V3.3.0/Libraries/STM32F10x_StdPeriph_Driver/src/stm32f10x_i2c.c ****   * @brief  Generates I2Cx communication START condition.
 388:firmware/STM32F10x_StdPeriph_Lib_V3.3.0/Libraries/STM32F10x_StdPeriph_Driver/src/stm32f10x_i2c.c ****   * @param  I2Cx: where x can be 1 or 2 to select the I2C peripheral.
 389:firmware/STM32F10x_StdPeriph_Lib_V3.3.0/Libraries/STM32F10x_StdPeriph_Driver/src/stm32f10x_i2c.c ****   * @param  NewState: new state of the I2C START condition generation.
 390:firmware/STM32F10x_StdPeriph_Lib_V3.3.0/Libraries/STM32F10x_StdPeriph_Driver/src/stm32f10x_i2c.c ****   *   This parameter can be: ENABLE or DISABLE.
 391:firmware/STM32F10x_StdPeriph_Lib_V3.3.0/Libraries/STM32F10x_StdPeriph_Driver/src/stm32f10x_i2c.c ****   * @retval None.
 392:firmware/STM32F10x_StdPeriph_Lib_V3.3.0/Libraries/STM32F10x_StdPeriph_Driver/src/stm32f10x_i2c.c ****   */
 393:firmware/STM32F10x_StdPeriph_Lib_V3.3.0/Libraries/STM32F10x_StdPeriph_Driver/src/stm32f10x_i2c.c **** void I2C_GenerateSTART(I2C_TypeDef* I2Cx, FunctionalState NewState)
 394:firmware/STM32F10x_StdPeriph_Lib_V3.3.0/Libraries/STM32F10x_StdPeriph_Driver/src/stm32f10x_i2c.c **** {
 416              		.loc 1 394 0
 417              		.cfi_startproc
 418              		@ args = 0, pretend = 0, frame = 0
 419              		@ frame_needed = 0, uses_anonymous_args = 0
 420              		@ link register save eliminated.
 421              	.LVL37:
 395:firmware/STM32F10x_StdPeriph_Lib_V3.3.0/Libraries/STM32F10x_StdPeriph_Driver/src/stm32f10x_i2c.c ****   /* Check the parameters */
 396:firmware/STM32F10x_StdPeriph_Lib_V3.3.0/Libraries/STM32F10x_StdPeriph_Driver/src/stm32f10x_i2c.c ****   assert_param(IS_I2C_ALL_PERIPH(I2Cx));
 397:firmware/STM32F10x_StdPeriph_Lib_V3.3.0/Libraries/STM32F10x_StdPeriph_Driver/src/stm32f10x_i2c.c ****   assert_param(IS_FUNCTIONAL_STATE(NewState));
 398:firmware/STM32F10x_StdPeriph_Lib_V3.3.0/Libraries/STM32F10x_StdPeriph_Driver/src/stm32f10x_i2c.c ****   if (NewState != DISABLE)
 422              		.loc 1 398 0
 423 0000 21B1     		cbz	r1, .L30
 399:firmware/STM32F10x_StdPeriph_Lib_V3.3.0/Libraries/STM32F10x_StdPeriph_Driver/src/stm32f10x_i2c.c ****   {
 400:firmware/STM32F10x_StdPeriph_Lib_V3.3.0/Libraries/STM32F10x_StdPeriph_Driver/src/stm32f10x_i2c.c ****     /* Generate a START condition */
 401:firmware/STM32F10x_StdPeriph_Lib_V3.3.0/Libraries/STM32F10x_StdPeriph_Driver/src/stm32f10x_i2c.c ****     I2Cx->CR1 |= CR1_START_Set;
 424              		.loc 1 401 0
 425 0002 0388     		ldrh	r3, [r0, #0]
 426 0004 9BB2     		uxth	r3, r3
 427 0006 43F48073 		orr	r3, r3, #256
 428 000a 04E0     		b	.L32
 429              	.L30:
 402:firmware/STM32F10x_StdPeriph_Lib_V3.3.0/Libraries/STM32F10x_StdPeriph_Driver/src/stm32f10x_i2c.c ****   }
 403:firmware/STM32F10x_StdPeriph_Lib_V3.3.0/Libraries/STM32F10x_StdPeriph_Driver/src/stm32f10x_i2c.c ****   else
 404:firmware/STM32F10x_StdPeriph_Lib_V3.3.0/Libraries/STM32F10x_StdPeriph_Driver/src/stm32f10x_i2c.c ****   {
 405:firmware/STM32F10x_StdPeriph_Lib_V3.3.0/Libraries/STM32F10x_StdPeriph_Driver/src/stm32f10x_i2c.c ****     /* Disable the START condition generation */
 406:firmware/STM32F10x_StdPeriph_Lib_V3.3.0/Libraries/STM32F10x_StdPeriph_Driver/src/stm32f10x_i2c.c ****     I2Cx->CR1 &= CR1_START_Reset;
 430              		.loc 1 406 0
 431 000c 0388     		ldrh	r3, [r0, #0]
 432 000e 23F48073 		bic	r3, r3, #256
 433 0012 1B04     		lsls	r3, r3, #16
 434 0014 1B0C     		lsrs	r3, r3, #16
 435              	.L32:
 436 0016 0380     		strh	r3, [r0, #0]	@ movhi
 437 0018 7047     		bx	lr
 438              		.cfi_endproc
 439              	.LFE35:
 441              		.section	.text.I2C_GenerateSTOP,"ax",%progbits
 442              		.align	1
 443              		.global	I2C_GenerateSTOP
 444              		.thumb
 445              		.thumb_func
 447              	I2C_GenerateSTOP:
 448              	.LFB36:
 407:firmware/STM32F10x_StdPeriph_Lib_V3.3.0/Libraries/STM32F10x_StdPeriph_Driver/src/stm32f10x_i2c.c ****   }
 408:firmware/STM32F10x_StdPeriph_Lib_V3.3.0/Libraries/STM32F10x_StdPeriph_Driver/src/stm32f10x_i2c.c **** }
 409:firmware/STM32F10x_StdPeriph_Lib_V3.3.0/Libraries/STM32F10x_StdPeriph_Driver/src/stm32f10x_i2c.c **** 
 410:firmware/STM32F10x_StdPeriph_Lib_V3.3.0/Libraries/STM32F10x_StdPeriph_Driver/src/stm32f10x_i2c.c **** /**
 411:firmware/STM32F10x_StdPeriph_Lib_V3.3.0/Libraries/STM32F10x_StdPeriph_Driver/src/stm32f10x_i2c.c ****   * @brief  Generates I2Cx communication STOP condition.
 412:firmware/STM32F10x_StdPeriph_Lib_V3.3.0/Libraries/STM32F10x_StdPeriph_Driver/src/stm32f10x_i2c.c ****   * @param  I2Cx: where x can be 1 or 2 to select the I2C peripheral.
 413:firmware/STM32F10x_StdPeriph_Lib_V3.3.0/Libraries/STM32F10x_StdPeriph_Driver/src/stm32f10x_i2c.c ****   * @param  NewState: new state of the I2C STOP condition generation.
 414:firmware/STM32F10x_StdPeriph_Lib_V3.3.0/Libraries/STM32F10x_StdPeriph_Driver/src/stm32f10x_i2c.c ****   *   This parameter can be: ENABLE or DISABLE.
 415:firmware/STM32F10x_StdPeriph_Lib_V3.3.0/Libraries/STM32F10x_StdPeriph_Driver/src/stm32f10x_i2c.c ****   * @retval None.
 416:firmware/STM32F10x_StdPeriph_Lib_V3.3.0/Libraries/STM32F10x_StdPeriph_Driver/src/stm32f10x_i2c.c ****   */
 417:firmware/STM32F10x_StdPeriph_Lib_V3.3.0/Libraries/STM32F10x_StdPeriph_Driver/src/stm32f10x_i2c.c **** void I2C_GenerateSTOP(I2C_TypeDef* I2Cx, FunctionalState NewState)
 418:firmware/STM32F10x_StdPeriph_Lib_V3.3.0/Libraries/STM32F10x_StdPeriph_Driver/src/stm32f10x_i2c.c **** {
 449              		.loc 1 418 0
 450              		.cfi_startproc
 451              		@ args = 0, pretend = 0, frame = 0
 452              		@ frame_needed = 0, uses_anonymous_args = 0
 453              		@ link register save eliminated.
 454              	.LVL38:
 419:firmware/STM32F10x_StdPeriph_Lib_V3.3.0/Libraries/STM32F10x_StdPeriph_Driver/src/stm32f10x_i2c.c ****   /* Check the parameters */
 420:firmware/STM32F10x_StdPeriph_Lib_V3.3.0/Libraries/STM32F10x_StdPeriph_Driver/src/stm32f10x_i2c.c ****   assert_param(IS_I2C_ALL_PERIPH(I2Cx));
 421:firmware/STM32F10x_StdPeriph_Lib_V3.3.0/Libraries/STM32F10x_StdPeriph_Driver/src/stm32f10x_i2c.c ****   assert_param(IS_FUNCTIONAL_STATE(NewState));
 422:firmware/STM32F10x_StdPeriph_Lib_V3.3.0/Libraries/STM32F10x_StdPeriph_Driver/src/stm32f10x_i2c.c ****   if (NewState != DISABLE)
 455              		.loc 1 422 0
 456 0000 21B1     		cbz	r1, .L34
 423:firmware/STM32F10x_StdPeriph_Lib_V3.3.0/Libraries/STM32F10x_StdPeriph_Driver/src/stm32f10x_i2c.c ****   {
 424:firmware/STM32F10x_StdPeriph_Lib_V3.3.0/Libraries/STM32F10x_StdPeriph_Driver/src/stm32f10x_i2c.c ****     /* Generate a STOP condition */
 425:firmware/STM32F10x_StdPeriph_Lib_V3.3.0/Libraries/STM32F10x_StdPeriph_Driver/src/stm32f10x_i2c.c ****     I2Cx->CR1 |= CR1_STOP_Set;
 457              		.loc 1 425 0
 458 0002 0388     		ldrh	r3, [r0, #0]
 459 0004 9BB2     		uxth	r3, r3
 460 0006 43F40073 		orr	r3, r3, #512
 461 000a 04E0     		b	.L36
 462              	.L34:
 426:firmware/STM32F10x_StdPeriph_Lib_V3.3.0/Libraries/STM32F10x_StdPeriph_Driver/src/stm32f10x_i2c.c ****   }
 427:firmware/STM32F10x_StdPeriph_Lib_V3.3.0/Libraries/STM32F10x_StdPeriph_Driver/src/stm32f10x_i2c.c ****   else
 428:firmware/STM32F10x_StdPeriph_Lib_V3.3.0/Libraries/STM32F10x_StdPeriph_Driver/src/stm32f10x_i2c.c ****   {
 429:firmware/STM32F10x_StdPeriph_Lib_V3.3.0/Libraries/STM32F10x_StdPeriph_Driver/src/stm32f10x_i2c.c ****     /* Disable the STOP condition generation */
 430:firmware/STM32F10x_StdPeriph_Lib_V3.3.0/Libraries/STM32F10x_StdPeriph_Driver/src/stm32f10x_i2c.c ****     I2Cx->CR1 &= CR1_STOP_Reset;
 463              		.loc 1 430 0
 464 000c 0388     		ldrh	r3, [r0, #0]
 465 000e 23F40073 		bic	r3, r3, #512
 466 0012 1B04     		lsls	r3, r3, #16
 467 0014 1B0C     		lsrs	r3, r3, #16
 468              	.L36:
 469 0016 0380     		strh	r3, [r0, #0]	@ movhi
 470 0018 7047     		bx	lr
 471              		.cfi_endproc
 472              	.LFE36:
 474              		.section	.text.I2C_AcknowledgeConfig,"ax",%progbits
 475              		.align	1
 476              		.global	I2C_AcknowledgeConfig
 477              		.thumb
 478              		.thumb_func
 480              	I2C_AcknowledgeConfig:
 481              	.LFB37:
 431:firmware/STM32F10x_StdPeriph_Lib_V3.3.0/Libraries/STM32F10x_StdPeriph_Driver/src/stm32f10x_i2c.c ****   }
 432:firmware/STM32F10x_StdPeriph_Lib_V3.3.0/Libraries/STM32F10x_StdPeriph_Driver/src/stm32f10x_i2c.c **** }
 433:firmware/STM32F10x_StdPeriph_Lib_V3.3.0/Libraries/STM32F10x_StdPeriph_Driver/src/stm32f10x_i2c.c **** 
 434:firmware/STM32F10x_StdPeriph_Lib_V3.3.0/Libraries/STM32F10x_StdPeriph_Driver/src/stm32f10x_i2c.c **** /**
 435:firmware/STM32F10x_StdPeriph_Lib_V3.3.0/Libraries/STM32F10x_StdPeriph_Driver/src/stm32f10x_i2c.c ****   * @brief  Enables or disables the specified I2C acknowledge feature.
 436:firmware/STM32F10x_StdPeriph_Lib_V3.3.0/Libraries/STM32F10x_StdPeriph_Driver/src/stm32f10x_i2c.c ****   * @param  I2Cx: where x can be 1 or 2 to select the I2C peripheral.
 437:firmware/STM32F10x_StdPeriph_Lib_V3.3.0/Libraries/STM32F10x_StdPeriph_Driver/src/stm32f10x_i2c.c ****   * @param  NewState: new state of the I2C Acknowledgement.
 438:firmware/STM32F10x_StdPeriph_Lib_V3.3.0/Libraries/STM32F10x_StdPeriph_Driver/src/stm32f10x_i2c.c ****   *   This parameter can be: ENABLE or DISABLE.
 439:firmware/STM32F10x_StdPeriph_Lib_V3.3.0/Libraries/STM32F10x_StdPeriph_Driver/src/stm32f10x_i2c.c ****   * @retval None.
 440:firmware/STM32F10x_StdPeriph_Lib_V3.3.0/Libraries/STM32F10x_StdPeriph_Driver/src/stm32f10x_i2c.c ****   */
 441:firmware/STM32F10x_StdPeriph_Lib_V3.3.0/Libraries/STM32F10x_StdPeriph_Driver/src/stm32f10x_i2c.c **** void I2C_AcknowledgeConfig(I2C_TypeDef* I2Cx, FunctionalState NewState)
 442:firmware/STM32F10x_StdPeriph_Lib_V3.3.0/Libraries/STM32F10x_StdPeriph_Driver/src/stm32f10x_i2c.c **** {
 482              		.loc 1 442 0
 483              		.cfi_startproc
 484              		@ args = 0, pretend = 0, frame = 0
 485              		@ frame_needed = 0, uses_anonymous_args = 0
 486              		@ link register save eliminated.
 487              	.LVL39:
 443:firmware/STM32F10x_StdPeriph_Lib_V3.3.0/Libraries/STM32F10x_StdPeriph_Driver/src/stm32f10x_i2c.c ****   /* Check the parameters */
 444:firmware/STM32F10x_StdPeriph_Lib_V3.3.0/Libraries/STM32F10x_StdPeriph_Driver/src/stm32f10x_i2c.c ****   assert_param(IS_I2C_ALL_PERIPH(I2Cx));
 445:firmware/STM32F10x_StdPeriph_Lib_V3.3.0/Libraries/STM32F10x_StdPeriph_Driver/src/stm32f10x_i2c.c ****   assert_param(IS_FUNCTIONAL_STATE(NewState));
 446:firmware/STM32F10x_StdPeriph_Lib_V3.3.0/Libraries/STM32F10x_StdPeriph_Driver/src/stm32f10x_i2c.c ****   if (NewState != DISABLE)
 488              		.loc 1 446 0
 489 0000 21B1     		cbz	r1, .L38
 447:firmware/STM32F10x_StdPeriph_Lib_V3.3.0/Libraries/STM32F10x_StdPeriph_Driver/src/stm32f10x_i2c.c ****   {
 448:firmware/STM32F10x_StdPeriph_Lib_V3.3.0/Libraries/STM32F10x_StdPeriph_Driver/src/stm32f10x_i2c.c ****     /* Enable the acknowledgement */
 449:firmware/STM32F10x_StdPeriph_Lib_V3.3.0/Libraries/STM32F10x_StdPeriph_Driver/src/stm32f10x_i2c.c ****     I2Cx->CR1 |= CR1_ACK_Set;
 490              		.loc 1 449 0
 491 0002 0388     		ldrh	r3, [r0, #0]
 492 0004 9BB2     		uxth	r3, r3
 493 0006 43F48063 		orr	r3, r3, #1024
 494 000a 04E0     		b	.L40
 495              	.L38:
 450:firmware/STM32F10x_StdPeriph_Lib_V3.3.0/Libraries/STM32F10x_StdPeriph_Driver/src/stm32f10x_i2c.c ****   }
 451:firmware/STM32F10x_StdPeriph_Lib_V3.3.0/Libraries/STM32F10x_StdPeriph_Driver/src/stm32f10x_i2c.c ****   else
 452:firmware/STM32F10x_StdPeriph_Lib_V3.3.0/Libraries/STM32F10x_StdPeriph_Driver/src/stm32f10x_i2c.c ****   {
 453:firmware/STM32F10x_StdPeriph_Lib_V3.3.0/Libraries/STM32F10x_StdPeriph_Driver/src/stm32f10x_i2c.c ****     /* Disable the acknowledgement */
 454:firmware/STM32F10x_StdPeriph_Lib_V3.3.0/Libraries/STM32F10x_StdPeriph_Driver/src/stm32f10x_i2c.c ****     I2Cx->CR1 &= CR1_ACK_Reset;
 496              		.loc 1 454 0
 497 000c 0388     		ldrh	r3, [r0, #0]
 498 000e 23F48063 		bic	r3, r3, #1024
 499 0012 1B04     		lsls	r3, r3, #16
 500 0014 1B0C     		lsrs	r3, r3, #16
 501              	.L40:
 502 0016 0380     		strh	r3, [r0, #0]	@ movhi
 503 0018 7047     		bx	lr
 504              		.cfi_endproc
 505              	.LFE37:
 507              		.section	.text.I2C_OwnAddress2Config,"ax",%progbits
 508              		.align	1
 509              		.global	I2C_OwnAddress2Config
 510              		.thumb
 511              		.thumb_func
 513              	I2C_OwnAddress2Config:
 514              	.LFB38:
 455:firmware/STM32F10x_StdPeriph_Lib_V3.3.0/Libraries/STM32F10x_StdPeriph_Driver/src/stm32f10x_i2c.c ****   }
 456:firmware/STM32F10x_StdPeriph_Lib_V3.3.0/Libraries/STM32F10x_StdPeriph_Driver/src/stm32f10x_i2c.c **** }
 457:firmware/STM32F10x_StdPeriph_Lib_V3.3.0/Libraries/STM32F10x_StdPeriph_Driver/src/stm32f10x_i2c.c **** 
 458:firmware/STM32F10x_StdPeriph_Lib_V3.3.0/Libraries/STM32F10x_StdPeriph_Driver/src/stm32f10x_i2c.c **** /**
 459:firmware/STM32F10x_StdPeriph_Lib_V3.3.0/Libraries/STM32F10x_StdPeriph_Driver/src/stm32f10x_i2c.c ****   * @brief  Configures the specified I2C own address2.
 460:firmware/STM32F10x_StdPeriph_Lib_V3.3.0/Libraries/STM32F10x_StdPeriph_Driver/src/stm32f10x_i2c.c ****   * @param  I2Cx: where x can be 1 or 2 to select the I2C peripheral.
 461:firmware/STM32F10x_StdPeriph_Lib_V3.3.0/Libraries/STM32F10x_StdPeriph_Driver/src/stm32f10x_i2c.c ****   * @param  Address: specifies the 7bit I2C own address2.
 462:firmware/STM32F10x_StdPeriph_Lib_V3.3.0/Libraries/STM32F10x_StdPeriph_Driver/src/stm32f10x_i2c.c ****   * @retval None.
 463:firmware/STM32F10x_StdPeriph_Lib_V3.3.0/Libraries/STM32F10x_StdPeriph_Driver/src/stm32f10x_i2c.c ****   */
 464:firmware/STM32F10x_StdPeriph_Lib_V3.3.0/Libraries/STM32F10x_StdPeriph_Driver/src/stm32f10x_i2c.c **** void I2C_OwnAddress2Config(I2C_TypeDef* I2Cx, uint8_t Address)
 465:firmware/STM32F10x_StdPeriph_Lib_V3.3.0/Libraries/STM32F10x_StdPeriph_Driver/src/stm32f10x_i2c.c **** {
 515              		.loc 1 465 0
 516              		.cfi_startproc
 517              		@ args = 0, pretend = 0, frame = 0
 518              		@ frame_needed = 0, uses_anonymous_args = 0
 519              		@ link register save eliminated.
 520              	.LVL40:
 466:firmware/STM32F10x_StdPeriph_Lib_V3.3.0/Libraries/STM32F10x_StdPeriph_Driver/src/stm32f10x_i2c.c ****   uint16_t tmpreg = 0;
 467:firmware/STM32F10x_StdPeriph_Lib_V3.3.0/Libraries/STM32F10x_StdPeriph_Driver/src/stm32f10x_i2c.c **** 
 468:firmware/STM32F10x_StdPeriph_Lib_V3.3.0/Libraries/STM32F10x_StdPeriph_Driver/src/stm32f10x_i2c.c ****   /* Check the parameters */
 469:firmware/STM32F10x_StdPeriph_Lib_V3.3.0/Libraries/STM32F10x_StdPeriph_Driver/src/stm32f10x_i2c.c ****   assert_param(IS_I2C_ALL_PERIPH(I2Cx));
 470:firmware/STM32F10x_StdPeriph_Lib_V3.3.0/Libraries/STM32F10x_StdPeriph_Driver/src/stm32f10x_i2c.c **** 
 471:firmware/STM32F10x_StdPeriph_Lib_V3.3.0/Libraries/STM32F10x_StdPeriph_Driver/src/stm32f10x_i2c.c ****   /* Get the old register value */
 472:firmware/STM32F10x_StdPeriph_Lib_V3.3.0/Libraries/STM32F10x_StdPeriph_Driver/src/stm32f10x_i2c.c ****   tmpreg = I2Cx->OAR2;
 521              		.loc 1 472 0
 522 0000 8389     		ldrh	r3, [r0, #12]
 523              	.LVL41:
 473:firmware/STM32F10x_StdPeriph_Lib_V3.3.0/Libraries/STM32F10x_StdPeriph_Driver/src/stm32f10x_i2c.c **** 
 474:firmware/STM32F10x_StdPeriph_Lib_V3.3.0/Libraries/STM32F10x_StdPeriph_Driver/src/stm32f10x_i2c.c ****   /* Reset I2Cx Own address2 bit [7:1] */
 475:firmware/STM32F10x_StdPeriph_Lib_V3.3.0/Libraries/STM32F10x_StdPeriph_Driver/src/stm32f10x_i2c.c ****   tmpreg &= OAR2_ADD2_Reset;
 476:firmware/STM32F10x_StdPeriph_Lib_V3.3.0/Libraries/STM32F10x_StdPeriph_Driver/src/stm32f10x_i2c.c **** 
 477:firmware/STM32F10x_StdPeriph_Lib_V3.3.0/Libraries/STM32F10x_StdPeriph_Driver/src/stm32f10x_i2c.c ****   /* Set I2Cx Own address2 */
 478:firmware/STM32F10x_StdPeriph_Lib_V3.3.0/Libraries/STM32F10x_StdPeriph_Driver/src/stm32f10x_i2c.c ****   tmpreg |= (uint16_t)((uint16_t)Address & (uint16_t)0x00FE);
 524              		.loc 1 478 0
 525 0002 01F0FE01 		and	r1, r1, #254
 526              	.LVL42:
 475:firmware/STM32F10x_StdPeriph_Lib_V3.3.0/Libraries/STM32F10x_StdPeriph_Driver/src/stm32f10x_i2c.c ****   tmpreg &= OAR2_ADD2_Reset;
 527              		.loc 1 475 0
 528 0006 23F0FE03 		bic	r3, r3, #254
 529              	.LVL43:
 530 000a 1B04     		lsls	r3, r3, #16
 531 000c 1B0C     		lsrs	r3, r3, #16
 532              		.loc 1 478 0
 533 000e 41EA0303 		orr	r3, r1, r3
 534              	.LVL44:
 479:firmware/STM32F10x_StdPeriph_Lib_V3.3.0/Libraries/STM32F10x_StdPeriph_Driver/src/stm32f10x_i2c.c **** 
 480:firmware/STM32F10x_StdPeriph_Lib_V3.3.0/Libraries/STM32F10x_StdPeriph_Driver/src/stm32f10x_i2c.c ****   /* Store the new register value */
 481:firmware/STM32F10x_StdPeriph_Lib_V3.3.0/Libraries/STM32F10x_StdPeriph_Driver/src/stm32f10x_i2c.c ****   I2Cx->OAR2 = tmpreg;
 535              		.loc 1 481 0
 536 0012 8381     		strh	r3, [r0, #12]	@ movhi
 482:firmware/STM32F10x_StdPeriph_Lib_V3.3.0/Libraries/STM32F10x_StdPeriph_Driver/src/stm32f10x_i2c.c **** }
 537              		.loc 1 482 0
 538 0014 7047     		bx	lr
 539              		.cfi_endproc
 540              	.LFE38:
 542              		.section	.text.I2C_DualAddressCmd,"ax",%progbits
 543              		.align	1
 544              		.global	I2C_DualAddressCmd
 545              		.thumb
 546              		.thumb_func
 548              	I2C_DualAddressCmd:
 549              	.LFB39:
 483:firmware/STM32F10x_StdPeriph_Lib_V3.3.0/Libraries/STM32F10x_StdPeriph_Driver/src/stm32f10x_i2c.c **** 
 484:firmware/STM32F10x_StdPeriph_Lib_V3.3.0/Libraries/STM32F10x_StdPeriph_Driver/src/stm32f10x_i2c.c **** /**
 485:firmware/STM32F10x_StdPeriph_Lib_V3.3.0/Libraries/STM32F10x_StdPeriph_Driver/src/stm32f10x_i2c.c ****   * @brief  Enables or disables the specified I2C dual addressing mode.
 486:firmware/STM32F10x_StdPeriph_Lib_V3.3.0/Libraries/STM32F10x_StdPeriph_Driver/src/stm32f10x_i2c.c ****   * @param  I2Cx: where x can be 1 or 2 to select the I2C peripheral.
 487:firmware/STM32F10x_StdPeriph_Lib_V3.3.0/Libraries/STM32F10x_StdPeriph_Driver/src/stm32f10x_i2c.c ****   * @param  NewState: new state of the I2C dual addressing mode.
 488:firmware/STM32F10x_StdPeriph_Lib_V3.3.0/Libraries/STM32F10x_StdPeriph_Driver/src/stm32f10x_i2c.c ****   *   This parameter can be: ENABLE or DISABLE.
 489:firmware/STM32F10x_StdPeriph_Lib_V3.3.0/Libraries/STM32F10x_StdPeriph_Driver/src/stm32f10x_i2c.c ****   * @retval None
 490:firmware/STM32F10x_StdPeriph_Lib_V3.3.0/Libraries/STM32F10x_StdPeriph_Driver/src/stm32f10x_i2c.c ****   */
 491:firmware/STM32F10x_StdPeriph_Lib_V3.3.0/Libraries/STM32F10x_StdPeriph_Driver/src/stm32f10x_i2c.c **** void I2C_DualAddressCmd(I2C_TypeDef* I2Cx, FunctionalState NewState)
 492:firmware/STM32F10x_StdPeriph_Lib_V3.3.0/Libraries/STM32F10x_StdPeriph_Driver/src/stm32f10x_i2c.c **** {
 550              		.loc 1 492 0
 551              		.cfi_startproc
 552              		@ args = 0, pretend = 0, frame = 0
 553              		@ frame_needed = 0, uses_anonymous_args = 0
 554              		@ link register save eliminated.
 555              	.LVL45:
 493:firmware/STM32F10x_StdPeriph_Lib_V3.3.0/Libraries/STM32F10x_StdPeriph_Driver/src/stm32f10x_i2c.c ****   /* Check the parameters */
 494:firmware/STM32F10x_StdPeriph_Lib_V3.3.0/Libraries/STM32F10x_StdPeriph_Driver/src/stm32f10x_i2c.c ****   assert_param(IS_I2C_ALL_PERIPH(I2Cx));
 495:firmware/STM32F10x_StdPeriph_Lib_V3.3.0/Libraries/STM32F10x_StdPeriph_Driver/src/stm32f10x_i2c.c ****   assert_param(IS_FUNCTIONAL_STATE(NewState));
 496:firmware/STM32F10x_StdPeriph_Lib_V3.3.0/Libraries/STM32F10x_StdPeriph_Driver/src/stm32f10x_i2c.c ****   if (NewState != DISABLE)
 556              		.loc 1 496 0
 557 0000 21B1     		cbz	r1, .L43
 497:firmware/STM32F10x_StdPeriph_Lib_V3.3.0/Libraries/STM32F10x_StdPeriph_Driver/src/stm32f10x_i2c.c ****   {
 498:firmware/STM32F10x_StdPeriph_Lib_V3.3.0/Libraries/STM32F10x_StdPeriph_Driver/src/stm32f10x_i2c.c ****     /* Enable dual addressing mode */
 499:firmware/STM32F10x_StdPeriph_Lib_V3.3.0/Libraries/STM32F10x_StdPeriph_Driver/src/stm32f10x_i2c.c ****     I2Cx->OAR2 |= OAR2_ENDUAL_Set;
 558              		.loc 1 499 0
 559 0002 8389     		ldrh	r3, [r0, #12]
 560 0004 9BB2     		uxth	r3, r3
 561 0006 43F00103 		orr	r3, r3, #1
 562 000a 04E0     		b	.L45
 563              	.L43:
 500:firmware/STM32F10x_StdPeriph_Lib_V3.3.0/Libraries/STM32F10x_StdPeriph_Driver/src/stm32f10x_i2c.c ****   }
 501:firmware/STM32F10x_StdPeriph_Lib_V3.3.0/Libraries/STM32F10x_StdPeriph_Driver/src/stm32f10x_i2c.c ****   else
 502:firmware/STM32F10x_StdPeriph_Lib_V3.3.0/Libraries/STM32F10x_StdPeriph_Driver/src/stm32f10x_i2c.c ****   {
 503:firmware/STM32F10x_StdPeriph_Lib_V3.3.0/Libraries/STM32F10x_StdPeriph_Driver/src/stm32f10x_i2c.c ****     /* Disable dual addressing mode */
 504:firmware/STM32F10x_StdPeriph_Lib_V3.3.0/Libraries/STM32F10x_StdPeriph_Driver/src/stm32f10x_i2c.c ****     I2Cx->OAR2 &= OAR2_ENDUAL_Reset;
 564              		.loc 1 504 0
 565 000c 8389     		ldrh	r3, [r0, #12]
 566 000e 23F00103 		bic	r3, r3, #1
 567 0012 1B04     		lsls	r3, r3, #16
 568 0014 1B0C     		lsrs	r3, r3, #16
 569              	.L45:
 570 0016 8381     		strh	r3, [r0, #12]	@ movhi
 571 0018 7047     		bx	lr
 572              		.cfi_endproc
 573              	.LFE39:
 575              		.section	.text.I2C_GeneralCallCmd,"ax",%progbits
 576              		.align	1
 577              		.global	I2C_GeneralCallCmd
 578              		.thumb
 579              		.thumb_func
 581              	I2C_GeneralCallCmd:
 582              	.LFB40:
 505:firmware/STM32F10x_StdPeriph_Lib_V3.3.0/Libraries/STM32F10x_StdPeriph_Driver/src/stm32f10x_i2c.c ****   }
 506:firmware/STM32F10x_StdPeriph_Lib_V3.3.0/Libraries/STM32F10x_StdPeriph_Driver/src/stm32f10x_i2c.c **** }
 507:firmware/STM32F10x_StdPeriph_Lib_V3.3.0/Libraries/STM32F10x_StdPeriph_Driver/src/stm32f10x_i2c.c **** 
 508:firmware/STM32F10x_StdPeriph_Lib_V3.3.0/Libraries/STM32F10x_StdPeriph_Driver/src/stm32f10x_i2c.c **** /**
 509:firmware/STM32F10x_StdPeriph_Lib_V3.3.0/Libraries/STM32F10x_StdPeriph_Driver/src/stm32f10x_i2c.c ****   * @brief  Enables or disables the specified I2C general call feature.
 510:firmware/STM32F10x_StdPeriph_Lib_V3.3.0/Libraries/STM32F10x_StdPeriph_Driver/src/stm32f10x_i2c.c ****   * @param  I2Cx: where x can be 1 or 2 to select the I2C peripheral.
 511:firmware/STM32F10x_StdPeriph_Lib_V3.3.0/Libraries/STM32F10x_StdPeriph_Driver/src/stm32f10x_i2c.c ****   * @param  NewState: new state of the I2C General call.
 512:firmware/STM32F10x_StdPeriph_Lib_V3.3.0/Libraries/STM32F10x_StdPeriph_Driver/src/stm32f10x_i2c.c ****   *   This parameter can be: ENABLE or DISABLE.
 513:firmware/STM32F10x_StdPeriph_Lib_V3.3.0/Libraries/STM32F10x_StdPeriph_Driver/src/stm32f10x_i2c.c ****   * @retval None
 514:firmware/STM32F10x_StdPeriph_Lib_V3.3.0/Libraries/STM32F10x_StdPeriph_Driver/src/stm32f10x_i2c.c ****   */
 515:firmware/STM32F10x_StdPeriph_Lib_V3.3.0/Libraries/STM32F10x_StdPeriph_Driver/src/stm32f10x_i2c.c **** void I2C_GeneralCallCmd(I2C_TypeDef* I2Cx, FunctionalState NewState)
 516:firmware/STM32F10x_StdPeriph_Lib_V3.3.0/Libraries/STM32F10x_StdPeriph_Driver/src/stm32f10x_i2c.c **** {
 583              		.loc 1 516 0
 584              		.cfi_startproc
 585              		@ args = 0, pretend = 0, frame = 0
 586              		@ frame_needed = 0, uses_anonymous_args = 0
 587              		@ link register save eliminated.
 588              	.LVL46:
 517:firmware/STM32F10x_StdPeriph_Lib_V3.3.0/Libraries/STM32F10x_StdPeriph_Driver/src/stm32f10x_i2c.c ****   /* Check the parameters */
 518:firmware/STM32F10x_StdPeriph_Lib_V3.3.0/Libraries/STM32F10x_StdPeriph_Driver/src/stm32f10x_i2c.c ****   assert_param(IS_I2C_ALL_PERIPH(I2Cx));
 519:firmware/STM32F10x_StdPeriph_Lib_V3.3.0/Libraries/STM32F10x_StdPeriph_Driver/src/stm32f10x_i2c.c ****   assert_param(IS_FUNCTIONAL_STATE(NewState));
 520:firmware/STM32F10x_StdPeriph_Lib_V3.3.0/Libraries/STM32F10x_StdPeriph_Driver/src/stm32f10x_i2c.c ****   if (NewState != DISABLE)
 589              		.loc 1 520 0
 590 0000 21B1     		cbz	r1, .L47
 521:firmware/STM32F10x_StdPeriph_Lib_V3.3.0/Libraries/STM32F10x_StdPeriph_Driver/src/stm32f10x_i2c.c ****   {
 522:firmware/STM32F10x_StdPeriph_Lib_V3.3.0/Libraries/STM32F10x_StdPeriph_Driver/src/stm32f10x_i2c.c ****     /* Enable generall call */
 523:firmware/STM32F10x_StdPeriph_Lib_V3.3.0/Libraries/STM32F10x_StdPeriph_Driver/src/stm32f10x_i2c.c ****     I2Cx->CR1 |= CR1_ENGC_Set;
 591              		.loc 1 523 0
 592 0002 0388     		ldrh	r3, [r0, #0]
 593 0004 9BB2     		uxth	r3, r3
 594 0006 43F04003 		orr	r3, r3, #64
 595 000a 04E0     		b	.L49
 596              	.L47:
 524:firmware/STM32F10x_StdPeriph_Lib_V3.3.0/Libraries/STM32F10x_StdPeriph_Driver/src/stm32f10x_i2c.c ****   }
 525:firmware/STM32F10x_StdPeriph_Lib_V3.3.0/Libraries/STM32F10x_StdPeriph_Driver/src/stm32f10x_i2c.c ****   else
 526:firmware/STM32F10x_StdPeriph_Lib_V3.3.0/Libraries/STM32F10x_StdPeriph_Driver/src/stm32f10x_i2c.c ****   {
 527:firmware/STM32F10x_StdPeriph_Lib_V3.3.0/Libraries/STM32F10x_StdPeriph_Driver/src/stm32f10x_i2c.c ****     /* Disable generall call */
 528:firmware/STM32F10x_StdPeriph_Lib_V3.3.0/Libraries/STM32F10x_StdPeriph_Driver/src/stm32f10x_i2c.c ****     I2Cx->CR1 &= CR1_ENGC_Reset;
 597              		.loc 1 528 0
 598 000c 0388     		ldrh	r3, [r0, #0]
 599 000e 23F04003 		bic	r3, r3, #64
 600 0012 1B04     		lsls	r3, r3, #16
 601 0014 1B0C     		lsrs	r3, r3, #16
 602              	.L49:
 603 0016 0380     		strh	r3, [r0, #0]	@ movhi
 604 0018 7047     		bx	lr
 605              		.cfi_endproc
 606              	.LFE40:
 608              		.section	.text.I2C_ITConfig,"ax",%progbits
 609              		.align	1
 610              		.global	I2C_ITConfig
 611              		.thumb
 612              		.thumb_func
 614              	I2C_ITConfig:
 615              	.LFB41:
 529:firmware/STM32F10x_StdPeriph_Lib_V3.3.0/Libraries/STM32F10x_StdPeriph_Driver/src/stm32f10x_i2c.c ****   }
 530:firmware/STM32F10x_StdPeriph_Lib_V3.3.0/Libraries/STM32F10x_StdPeriph_Driver/src/stm32f10x_i2c.c **** }
 531:firmware/STM32F10x_StdPeriph_Lib_V3.3.0/Libraries/STM32F10x_StdPeriph_Driver/src/stm32f10x_i2c.c **** 
 532:firmware/STM32F10x_StdPeriph_Lib_V3.3.0/Libraries/STM32F10x_StdPeriph_Driver/src/stm32f10x_i2c.c **** /**
 533:firmware/STM32F10x_StdPeriph_Lib_V3.3.0/Libraries/STM32F10x_StdPeriph_Driver/src/stm32f10x_i2c.c ****   * @brief  Enables or disables the specified I2C interrupts.
 534:firmware/STM32F10x_StdPeriph_Lib_V3.3.0/Libraries/STM32F10x_StdPeriph_Driver/src/stm32f10x_i2c.c ****   * @param  I2Cx: where x can be 1 or 2 to select the I2C peripheral.
 535:firmware/STM32F10x_StdPeriph_Lib_V3.3.0/Libraries/STM32F10x_StdPeriph_Driver/src/stm32f10x_i2c.c ****   * @param  I2C_IT: specifies the I2C interrupts sources to be enabled or disabled. 
 536:firmware/STM32F10x_StdPeriph_Lib_V3.3.0/Libraries/STM32F10x_StdPeriph_Driver/src/stm32f10x_i2c.c ****   *   This parameter can be any combination of the following values:
 537:firmware/STM32F10x_StdPeriph_Lib_V3.3.0/Libraries/STM32F10x_StdPeriph_Driver/src/stm32f10x_i2c.c ****   *     @arg I2C_IT_BUF: Buffer interrupt mask
 538:firmware/STM32F10x_StdPeriph_Lib_V3.3.0/Libraries/STM32F10x_StdPeriph_Driver/src/stm32f10x_i2c.c ****   *     @arg I2C_IT_EVT: Event interrupt mask
 539:firmware/STM32F10x_StdPeriph_Lib_V3.3.0/Libraries/STM32F10x_StdPeriph_Driver/src/stm32f10x_i2c.c ****   *     @arg I2C_IT_ERR: Error interrupt mask
 540:firmware/STM32F10x_StdPeriph_Lib_V3.3.0/Libraries/STM32F10x_StdPeriph_Driver/src/stm32f10x_i2c.c ****   * @param  NewState: new state of the specified I2C interrupts.
 541:firmware/STM32F10x_StdPeriph_Lib_V3.3.0/Libraries/STM32F10x_StdPeriph_Driver/src/stm32f10x_i2c.c ****   *   This parameter can be: ENABLE or DISABLE.
 542:firmware/STM32F10x_StdPeriph_Lib_V3.3.0/Libraries/STM32F10x_StdPeriph_Driver/src/stm32f10x_i2c.c ****   * @retval None
 543:firmware/STM32F10x_StdPeriph_Lib_V3.3.0/Libraries/STM32F10x_StdPeriph_Driver/src/stm32f10x_i2c.c ****   */
 544:firmware/STM32F10x_StdPeriph_Lib_V3.3.0/Libraries/STM32F10x_StdPeriph_Driver/src/stm32f10x_i2c.c **** void I2C_ITConfig(I2C_TypeDef* I2Cx, uint16_t I2C_IT, FunctionalState NewState)
 545:firmware/STM32F10x_StdPeriph_Lib_V3.3.0/Libraries/STM32F10x_StdPeriph_Driver/src/stm32f10x_i2c.c **** {
 616              		.loc 1 545 0
 617              		.cfi_startproc
 618              		@ args = 0, pretend = 0, frame = 0
 619              		@ frame_needed = 0, uses_anonymous_args = 0
 620              		@ link register save eliminated.
 621              	.LVL47:
 546:firmware/STM32F10x_StdPeriph_Lib_V3.3.0/Libraries/STM32F10x_StdPeriph_Driver/src/stm32f10x_i2c.c ****   /* Check the parameters */
 547:firmware/STM32F10x_StdPeriph_Lib_V3.3.0/Libraries/STM32F10x_StdPeriph_Driver/src/stm32f10x_i2c.c ****   assert_param(IS_I2C_ALL_PERIPH(I2Cx));
 548:firmware/STM32F10x_StdPeriph_Lib_V3.3.0/Libraries/STM32F10x_StdPeriph_Driver/src/stm32f10x_i2c.c ****   assert_param(IS_FUNCTIONAL_STATE(NewState));
 549:firmware/STM32F10x_StdPeriph_Lib_V3.3.0/Libraries/STM32F10x_StdPeriph_Driver/src/stm32f10x_i2c.c ****   assert_param(IS_I2C_CONFIG_IT(I2C_IT));
 550:firmware/STM32F10x_StdPeriph_Lib_V3.3.0/Libraries/STM32F10x_StdPeriph_Driver/src/stm32f10x_i2c.c ****   
 551:firmware/STM32F10x_StdPeriph_Lib_V3.3.0/Libraries/STM32F10x_StdPeriph_Driver/src/stm32f10x_i2c.c ****   if (NewState != DISABLE)
 622              		.loc 1 551 0
 623 0000 1AB1     		cbz	r2, .L51
 552:firmware/STM32F10x_StdPeriph_Lib_V3.3.0/Libraries/STM32F10x_StdPeriph_Driver/src/stm32f10x_i2c.c ****   {
 553:firmware/STM32F10x_StdPeriph_Lib_V3.3.0/Libraries/STM32F10x_StdPeriph_Driver/src/stm32f10x_i2c.c ****     /* Enable the selected I2C interrupts */
 554:firmware/STM32F10x_StdPeriph_Lib_V3.3.0/Libraries/STM32F10x_StdPeriph_Driver/src/stm32f10x_i2c.c ****     I2Cx->CR2 |= I2C_IT;
 624              		.loc 1 554 0
 625 0002 8388     		ldrh	r3, [r0, #4]
 626 0004 9BB2     		uxth	r3, r3
 627 0006 1943     		orrs	r1, r1, r3
 628              	.LVL48:
 629 0008 03E0     		b	.L53
 630              	.LVL49:
 631              	.L51:
 555:firmware/STM32F10x_StdPeriph_Lib_V3.3.0/Libraries/STM32F10x_StdPeriph_Driver/src/stm32f10x_i2c.c ****   }
 556:firmware/STM32F10x_StdPeriph_Lib_V3.3.0/Libraries/STM32F10x_StdPeriph_Driver/src/stm32f10x_i2c.c ****   else
 557:firmware/STM32F10x_StdPeriph_Lib_V3.3.0/Libraries/STM32F10x_StdPeriph_Driver/src/stm32f10x_i2c.c ****   {
 558:firmware/STM32F10x_StdPeriph_Lib_V3.3.0/Libraries/STM32F10x_StdPeriph_Driver/src/stm32f10x_i2c.c ****     /* Disable the selected I2C interrupts */
 559:firmware/STM32F10x_StdPeriph_Lib_V3.3.0/Libraries/STM32F10x_StdPeriph_Driver/src/stm32f10x_i2c.c ****     I2Cx->CR2 &= (uint16_t)~I2C_IT;
 632              		.loc 1 559 0
 633 000a 8388     		ldrh	r3, [r0, #4]
 634 000c 9BB2     		uxth	r3, r3
 635 000e 23EA0101 		bic	r1, r3, r1
 636              	.LVL50:
 637              	.L53:
 638 0012 8180     		strh	r1, [r0, #4]	@ movhi
 639 0014 7047     		bx	lr
 640              		.cfi_endproc
 641              	.LFE41:
 643              		.section	.text.I2C_SendData,"ax",%progbits
 644              		.align	1
 645              		.global	I2C_SendData
 646              		.thumb
 647              		.thumb_func
 649              	I2C_SendData:
 650              	.LFB42:
 560:firmware/STM32F10x_StdPeriph_Lib_V3.3.0/Libraries/STM32F10x_StdPeriph_Driver/src/stm32f10x_i2c.c ****   }
 561:firmware/STM32F10x_StdPeriph_Lib_V3.3.0/Libraries/STM32F10x_StdPeriph_Driver/src/stm32f10x_i2c.c **** }
 562:firmware/STM32F10x_StdPeriph_Lib_V3.3.0/Libraries/STM32F10x_StdPeriph_Driver/src/stm32f10x_i2c.c **** 
 563:firmware/STM32F10x_StdPeriph_Lib_V3.3.0/Libraries/STM32F10x_StdPeriph_Driver/src/stm32f10x_i2c.c **** /**
 564:firmware/STM32F10x_StdPeriph_Lib_V3.3.0/Libraries/STM32F10x_StdPeriph_Driver/src/stm32f10x_i2c.c ****   * @brief  Sends a data byte through the I2Cx peripheral.
 565:firmware/STM32F10x_StdPeriph_Lib_V3.3.0/Libraries/STM32F10x_StdPeriph_Driver/src/stm32f10x_i2c.c ****   * @param  I2Cx: where x can be 1 or 2 to select the I2C peripheral.
 566:firmware/STM32F10x_StdPeriph_Lib_V3.3.0/Libraries/STM32F10x_StdPeriph_Driver/src/stm32f10x_i2c.c ****   * @param  Data: Byte to be transmitted..
 567:firmware/STM32F10x_StdPeriph_Lib_V3.3.0/Libraries/STM32F10x_StdPeriph_Driver/src/stm32f10x_i2c.c ****   * @retval None
 568:firmware/STM32F10x_StdPeriph_Lib_V3.3.0/Libraries/STM32F10x_StdPeriph_Driver/src/stm32f10x_i2c.c ****   */
 569:firmware/STM32F10x_StdPeriph_Lib_V3.3.0/Libraries/STM32F10x_StdPeriph_Driver/src/stm32f10x_i2c.c **** void I2C_SendData(I2C_TypeDef* I2Cx, uint8_t Data)
 570:firmware/STM32F10x_StdPeriph_Lib_V3.3.0/Libraries/STM32F10x_StdPeriph_Driver/src/stm32f10x_i2c.c **** {
 651              		.loc 1 570 0
 652              		.cfi_startproc
 653              		@ args = 0, pretend = 0, frame = 0
 654              		@ frame_needed = 0, uses_anonymous_args = 0
 655              		@ link register save eliminated.
 656              	.LVL51:
 571:firmware/STM32F10x_StdPeriph_Lib_V3.3.0/Libraries/STM32F10x_StdPeriph_Driver/src/stm32f10x_i2c.c ****   /* Check the parameters */
 572:firmware/STM32F10x_StdPeriph_Lib_V3.3.0/Libraries/STM32F10x_StdPeriph_Driver/src/stm32f10x_i2c.c ****   assert_param(IS_I2C_ALL_PERIPH(I2Cx));
 573:firmware/STM32F10x_StdPeriph_Lib_V3.3.0/Libraries/STM32F10x_StdPeriph_Driver/src/stm32f10x_i2c.c ****   /* Write in the DR register the data to be sent */
 574:firmware/STM32F10x_StdPeriph_Lib_V3.3.0/Libraries/STM32F10x_StdPeriph_Driver/src/stm32f10x_i2c.c ****   I2Cx->DR = Data;
 657              		.loc 1 574 0
 658 0000 0182     		strh	r1, [r0, #16]	@ movhi
 575:firmware/STM32F10x_StdPeriph_Lib_V3.3.0/Libraries/STM32F10x_StdPeriph_Driver/src/stm32f10x_i2c.c **** }
 659              		.loc 1 575 0
 660 0002 7047     		bx	lr
 661              		.cfi_endproc
 662              	.LFE42:
 664              		.section	.text.I2C_ReceiveData,"ax",%progbits
 665              		.align	1
 666              		.global	I2C_ReceiveData
 667              		.thumb
 668              		.thumb_func
 670              	I2C_ReceiveData:
 671              	.LFB43:
 576:firmware/STM32F10x_StdPeriph_Lib_V3.3.0/Libraries/STM32F10x_StdPeriph_Driver/src/stm32f10x_i2c.c **** 
 577:firmware/STM32F10x_StdPeriph_Lib_V3.3.0/Libraries/STM32F10x_StdPeriph_Driver/src/stm32f10x_i2c.c **** /**
 578:firmware/STM32F10x_StdPeriph_Lib_V3.3.0/Libraries/STM32F10x_StdPeriph_Driver/src/stm32f10x_i2c.c ****   * @brief  Returns the most recent received data by the I2Cx peripheral.
 579:firmware/STM32F10x_StdPeriph_Lib_V3.3.0/Libraries/STM32F10x_StdPeriph_Driver/src/stm32f10x_i2c.c ****   * @param  I2Cx: where x can be 1 or 2 to select the I2C peripheral.
 580:firmware/STM32F10x_StdPeriph_Lib_V3.3.0/Libraries/STM32F10x_StdPeriph_Driver/src/stm32f10x_i2c.c ****   * @retval The value of the received data.
 581:firmware/STM32F10x_StdPeriph_Lib_V3.3.0/Libraries/STM32F10x_StdPeriph_Driver/src/stm32f10x_i2c.c ****   */
 582:firmware/STM32F10x_StdPeriph_Lib_V3.3.0/Libraries/STM32F10x_StdPeriph_Driver/src/stm32f10x_i2c.c **** uint8_t I2C_ReceiveData(I2C_TypeDef* I2Cx)
 583:firmware/STM32F10x_StdPeriph_Lib_V3.3.0/Libraries/STM32F10x_StdPeriph_Driver/src/stm32f10x_i2c.c **** {
 672              		.loc 1 583 0
 673              		.cfi_startproc
 674              		@ args = 0, pretend = 0, frame = 0
 675              		@ frame_needed = 0, uses_anonymous_args = 0
 676              		@ link register save eliminated.
 677              	.LVL52:
 584:firmware/STM32F10x_StdPeriph_Lib_V3.3.0/Libraries/STM32F10x_StdPeriph_Driver/src/stm32f10x_i2c.c ****   /* Check the parameters */
 585:firmware/STM32F10x_StdPeriph_Lib_V3.3.0/Libraries/STM32F10x_StdPeriph_Driver/src/stm32f10x_i2c.c ****   assert_param(IS_I2C_ALL_PERIPH(I2Cx));
 586:firmware/STM32F10x_StdPeriph_Lib_V3.3.0/Libraries/STM32F10x_StdPeriph_Driver/src/stm32f10x_i2c.c ****   /* Return the data in the DR register */
 587:firmware/STM32F10x_StdPeriph_Lib_V3.3.0/Libraries/STM32F10x_StdPeriph_Driver/src/stm32f10x_i2c.c ****   return (uint8_t)I2Cx->DR;
 678              		.loc 1 587 0
 679 0000 008A     		ldrh	r0, [r0, #16]
 680              	.LVL53:
 588:firmware/STM32F10x_StdPeriph_Lib_V3.3.0/Libraries/STM32F10x_StdPeriph_Driver/src/stm32f10x_i2c.c **** }
 681              		.loc 1 588 0
 682 0002 C0B2     		uxtb	r0, r0
 683 0004 7047     		bx	lr
 684              		.cfi_endproc
 685              	.LFE43:
 687              		.section	.text.I2C_Send7bitAddress,"ax",%progbits
 688              		.align	1
 689              		.global	I2C_Send7bitAddress
 690              		.thumb
 691              		.thumb_func
 693              	I2C_Send7bitAddress:
 694              	.LFB44:
 589:firmware/STM32F10x_StdPeriph_Lib_V3.3.0/Libraries/STM32F10x_StdPeriph_Driver/src/stm32f10x_i2c.c **** 
 590:firmware/STM32F10x_StdPeriph_Lib_V3.3.0/Libraries/STM32F10x_StdPeriph_Driver/src/stm32f10x_i2c.c **** /**
 591:firmware/STM32F10x_StdPeriph_Lib_V3.3.0/Libraries/STM32F10x_StdPeriph_Driver/src/stm32f10x_i2c.c ****   * @brief  Transmits the address byte to select the slave device.
 592:firmware/STM32F10x_StdPeriph_Lib_V3.3.0/Libraries/STM32F10x_StdPeriph_Driver/src/stm32f10x_i2c.c ****   * @param  I2Cx: where x can be 1 or 2 to select the I2C peripheral.
 593:firmware/STM32F10x_StdPeriph_Lib_V3.3.0/Libraries/STM32F10x_StdPeriph_Driver/src/stm32f10x_i2c.c ****   * @param  Address: specifies the slave address which will be transmitted
 594:firmware/STM32F10x_StdPeriph_Lib_V3.3.0/Libraries/STM32F10x_StdPeriph_Driver/src/stm32f10x_i2c.c ****   * @param  I2C_Direction: specifies whether the I2C device will be a
 595:firmware/STM32F10x_StdPeriph_Lib_V3.3.0/Libraries/STM32F10x_StdPeriph_Driver/src/stm32f10x_i2c.c ****   *   Transmitter or a Receiver. This parameter can be one of the following values
 596:firmware/STM32F10x_StdPeriph_Lib_V3.3.0/Libraries/STM32F10x_StdPeriph_Driver/src/stm32f10x_i2c.c ****   *     @arg I2C_Direction_Transmitter: Transmitter mode
 597:firmware/STM32F10x_StdPeriph_Lib_V3.3.0/Libraries/STM32F10x_StdPeriph_Driver/src/stm32f10x_i2c.c ****   *     @arg I2C_Direction_Receiver: Receiver mode
 598:firmware/STM32F10x_StdPeriph_Lib_V3.3.0/Libraries/STM32F10x_StdPeriph_Driver/src/stm32f10x_i2c.c ****   * @retval None.
 599:firmware/STM32F10x_StdPeriph_Lib_V3.3.0/Libraries/STM32F10x_StdPeriph_Driver/src/stm32f10x_i2c.c ****   */
 600:firmware/STM32F10x_StdPeriph_Lib_V3.3.0/Libraries/STM32F10x_StdPeriph_Driver/src/stm32f10x_i2c.c **** void I2C_Send7bitAddress(I2C_TypeDef* I2Cx, uint8_t Address, uint8_t I2C_Direction)
 601:firmware/STM32F10x_StdPeriph_Lib_V3.3.0/Libraries/STM32F10x_StdPeriph_Driver/src/stm32f10x_i2c.c **** {
 695              		.loc 1 601 0
 696              		.cfi_startproc
 697              		@ args = 0, pretend = 0, frame = 0
 698              		@ frame_needed = 0, uses_anonymous_args = 0
 699              		@ link register save eliminated.
 700              	.LVL54:
 602:firmware/STM32F10x_StdPeriph_Lib_V3.3.0/Libraries/STM32F10x_StdPeriph_Driver/src/stm32f10x_i2c.c ****   /* Check the parameters */
 603:firmware/STM32F10x_StdPeriph_Lib_V3.3.0/Libraries/STM32F10x_StdPeriph_Driver/src/stm32f10x_i2c.c ****   assert_param(IS_I2C_ALL_PERIPH(I2Cx));
 604:firmware/STM32F10x_StdPeriph_Lib_V3.3.0/Libraries/STM32F10x_StdPeriph_Driver/src/stm32f10x_i2c.c ****   assert_param(IS_I2C_DIRECTION(I2C_Direction));
 605:firmware/STM32F10x_StdPeriph_Lib_V3.3.0/Libraries/STM32F10x_StdPeriph_Driver/src/stm32f10x_i2c.c ****   /* Test on the direction to set/reset the read/write bit */
 606:firmware/STM32F10x_StdPeriph_Lib_V3.3.0/Libraries/STM32F10x_StdPeriph_Driver/src/stm32f10x_i2c.c ****   if (I2C_Direction != I2C_Direction_Transmitter)
 701              		.loc 1 606 0
 702 0000 12B1     		cbz	r2, .L57
 607:firmware/STM32F10x_StdPeriph_Lib_V3.3.0/Libraries/STM32F10x_StdPeriph_Driver/src/stm32f10x_i2c.c ****   {
 608:firmware/STM32F10x_StdPeriph_Lib_V3.3.0/Libraries/STM32F10x_StdPeriph_Driver/src/stm32f10x_i2c.c ****     /* Set the address bit0 for read */
 609:firmware/STM32F10x_StdPeriph_Lib_V3.3.0/Libraries/STM32F10x_StdPeriph_Driver/src/stm32f10x_i2c.c ****     Address |= OAR1_ADD0_Set;
 703              		.loc 1 609 0
 704 0002 41F00101 		orr	r1, r1, #1
 705              	.LVL55:
 706 0006 01E0     		b	.L58
 707              	.L57:
 610:firmware/STM32F10x_StdPeriph_Lib_V3.3.0/Libraries/STM32F10x_StdPeriph_Driver/src/stm32f10x_i2c.c ****   }
 611:firmware/STM32F10x_StdPeriph_Lib_V3.3.0/Libraries/STM32F10x_StdPeriph_Driver/src/stm32f10x_i2c.c ****   else
 612:firmware/STM32F10x_StdPeriph_Lib_V3.3.0/Libraries/STM32F10x_StdPeriph_Driver/src/stm32f10x_i2c.c ****   {
 613:firmware/STM32F10x_StdPeriph_Lib_V3.3.0/Libraries/STM32F10x_StdPeriph_Driver/src/stm32f10x_i2c.c ****     /* Reset the address bit0 for write */
 614:firmware/STM32F10x_StdPeriph_Lib_V3.3.0/Libraries/STM32F10x_StdPeriph_Driver/src/stm32f10x_i2c.c ****     Address &= OAR1_ADD0_Reset;
 708              		.loc 1 614 0
 709 0008 01F0FE01 		and	r1, r1, #254
 710              	.LVL56:
 711              	.L58:
 615:firmware/STM32F10x_StdPeriph_Lib_V3.3.0/Libraries/STM32F10x_StdPeriph_Driver/src/stm32f10x_i2c.c ****   }
 616:firmware/STM32F10x_StdPeriph_Lib_V3.3.0/Libraries/STM32F10x_StdPeriph_Driver/src/stm32f10x_i2c.c ****   /* Send the address */
 617:firmware/STM32F10x_StdPeriph_Lib_V3.3.0/Libraries/STM32F10x_StdPeriph_Driver/src/stm32f10x_i2c.c ****   I2Cx->DR = Address;
 712              		.loc 1 617 0
 713 000c 0182     		strh	r1, [r0, #16]	@ movhi
 618:firmware/STM32F10x_StdPeriph_Lib_V3.3.0/Libraries/STM32F10x_StdPeriph_Driver/src/stm32f10x_i2c.c **** }
 714              		.loc 1 618 0
 715 000e 7047     		bx	lr
 716              		.cfi_endproc
 717              	.LFE44:
 719              		.section	.text.I2C_ReadRegister,"ax",%progbits
 720              		.align	1
 721              		.global	I2C_ReadRegister
 722              		.thumb
 723              		.thumb_func
 725              	I2C_ReadRegister:
 726              	.LFB45:
 619:firmware/STM32F10x_StdPeriph_Lib_V3.3.0/Libraries/STM32F10x_StdPeriph_Driver/src/stm32f10x_i2c.c **** 
 620:firmware/STM32F10x_StdPeriph_Lib_V3.3.0/Libraries/STM32F10x_StdPeriph_Driver/src/stm32f10x_i2c.c **** /**
 621:firmware/STM32F10x_StdPeriph_Lib_V3.3.0/Libraries/STM32F10x_StdPeriph_Driver/src/stm32f10x_i2c.c ****   * @brief  Reads the specified I2C register and returns its value.
 622:firmware/STM32F10x_StdPeriph_Lib_V3.3.0/Libraries/STM32F10x_StdPeriph_Driver/src/stm32f10x_i2c.c ****   * @param  I2C_Register: specifies the register to read.
 623:firmware/STM32F10x_StdPeriph_Lib_V3.3.0/Libraries/STM32F10x_StdPeriph_Driver/src/stm32f10x_i2c.c ****   *   This parameter can be one of the following values:
 624:firmware/STM32F10x_StdPeriph_Lib_V3.3.0/Libraries/STM32F10x_StdPeriph_Driver/src/stm32f10x_i2c.c ****   *     @arg I2C_Register_CR1:  CR1 register.
 625:firmware/STM32F10x_StdPeriph_Lib_V3.3.0/Libraries/STM32F10x_StdPeriph_Driver/src/stm32f10x_i2c.c ****   *     @arg I2C_Register_CR2:   CR2 register.
 626:firmware/STM32F10x_StdPeriph_Lib_V3.3.0/Libraries/STM32F10x_StdPeriph_Driver/src/stm32f10x_i2c.c ****   *     @arg I2C_Register_OAR1:  OAR1 register.
 627:firmware/STM32F10x_StdPeriph_Lib_V3.3.0/Libraries/STM32F10x_StdPeriph_Driver/src/stm32f10x_i2c.c ****   *     @arg I2C_Register_OAR2:  OAR2 register.
 628:firmware/STM32F10x_StdPeriph_Lib_V3.3.0/Libraries/STM32F10x_StdPeriph_Driver/src/stm32f10x_i2c.c ****   *     @arg I2C_Register_DR:    DR register.
 629:firmware/STM32F10x_StdPeriph_Lib_V3.3.0/Libraries/STM32F10x_StdPeriph_Driver/src/stm32f10x_i2c.c ****   *     @arg I2C_Register_SR1:   SR1 register.
 630:firmware/STM32F10x_StdPeriph_Lib_V3.3.0/Libraries/STM32F10x_StdPeriph_Driver/src/stm32f10x_i2c.c ****   *     @arg I2C_Register_SR2:   SR2 register.
 631:firmware/STM32F10x_StdPeriph_Lib_V3.3.0/Libraries/STM32F10x_StdPeriph_Driver/src/stm32f10x_i2c.c ****   *     @arg I2C_Register_CCR:   CCR register.
 632:firmware/STM32F10x_StdPeriph_Lib_V3.3.0/Libraries/STM32F10x_StdPeriph_Driver/src/stm32f10x_i2c.c ****   *     @arg I2C_Register_TRISE: TRISE register.
 633:firmware/STM32F10x_StdPeriph_Lib_V3.3.0/Libraries/STM32F10x_StdPeriph_Driver/src/stm32f10x_i2c.c ****   * @retval The value of the read register.
 634:firmware/STM32F10x_StdPeriph_Lib_V3.3.0/Libraries/STM32F10x_StdPeriph_Driver/src/stm32f10x_i2c.c ****   */
 635:firmware/STM32F10x_StdPeriph_Lib_V3.3.0/Libraries/STM32F10x_StdPeriph_Driver/src/stm32f10x_i2c.c **** uint16_t I2C_ReadRegister(I2C_TypeDef* I2Cx, uint8_t I2C_Register)
 636:firmware/STM32F10x_StdPeriph_Lib_V3.3.0/Libraries/STM32F10x_StdPeriph_Driver/src/stm32f10x_i2c.c **** {
 727              		.loc 1 636 0
 728              		.cfi_startproc
 729              		@ args = 0, pretend = 0, frame = 8
 730              		@ frame_needed = 0, uses_anonymous_args = 0
 731              		@ link register save eliminated.
 732              	.LVL57:
 733 0000 82B0     		sub	sp, sp, #8
 734              	.LCFI3:
 735              		.cfi_def_cfa_offset 8
 637:firmware/STM32F10x_StdPeriph_Lib_V3.3.0/Libraries/STM32F10x_StdPeriph_Driver/src/stm32f10x_i2c.c ****   __IO uint32_t tmp = 0;
 736              		.loc 1 637 0
 737 0002 0023     		movs	r3, #0
 738 0004 0193     		str	r3, [sp, #4]
 739              	.LVL58:
 638:firmware/STM32F10x_StdPeriph_Lib_V3.3.0/Libraries/STM32F10x_StdPeriph_Driver/src/stm32f10x_i2c.c **** 
 639:firmware/STM32F10x_StdPeriph_Lib_V3.3.0/Libraries/STM32F10x_StdPeriph_Driver/src/stm32f10x_i2c.c ****   /* Check the parameters */
 640:firmware/STM32F10x_StdPeriph_Lib_V3.3.0/Libraries/STM32F10x_StdPeriph_Driver/src/stm32f10x_i2c.c ****   assert_param(IS_I2C_ALL_PERIPH(I2Cx));
 641:firmware/STM32F10x_StdPeriph_Lib_V3.3.0/Libraries/STM32F10x_StdPeriph_Driver/src/stm32f10x_i2c.c ****   assert_param(IS_I2C_REGISTER(I2C_Register));
 642:firmware/STM32F10x_StdPeriph_Lib_V3.3.0/Libraries/STM32F10x_StdPeriph_Driver/src/stm32f10x_i2c.c **** 
 643:firmware/STM32F10x_StdPeriph_Lib_V3.3.0/Libraries/STM32F10x_StdPeriph_Driver/src/stm32f10x_i2c.c ****   tmp = (uint32_t) I2Cx;
 740              		.loc 1 643 0
 741 0006 0190     		str	r0, [sp, #4]
 644:firmware/STM32F10x_StdPeriph_Lib_V3.3.0/Libraries/STM32F10x_StdPeriph_Driver/src/stm32f10x_i2c.c ****   tmp += I2C_Register;
 742              		.loc 1 644 0
 743 0008 019B     		ldr	r3, [sp, #4]
 744 000a CB18     		adds	r3, r1, r3
 745              	.LVL59:
 746 000c 0193     		str	r3, [sp, #4]
 747              	.LVL60:
 645:firmware/STM32F10x_StdPeriph_Lib_V3.3.0/Libraries/STM32F10x_StdPeriph_Driver/src/stm32f10x_i2c.c **** 
 646:firmware/STM32F10x_StdPeriph_Lib_V3.3.0/Libraries/STM32F10x_StdPeriph_Driver/src/stm32f10x_i2c.c ****   /* Return the selected register value */
 647:firmware/STM32F10x_StdPeriph_Lib_V3.3.0/Libraries/STM32F10x_StdPeriph_Driver/src/stm32f10x_i2c.c ****   return (*(__IO uint16_t *) tmp);
 748              		.loc 1 647 0
 749 000e 019B     		ldr	r3, [sp, #4]
 750              	.LVL61:
 751 0010 1888     		ldrh	r0, [r3, #0]
 752              	.LVL62:
 648:firmware/STM32F10x_StdPeriph_Lib_V3.3.0/Libraries/STM32F10x_StdPeriph_Driver/src/stm32f10x_i2c.c **** }
 753              		.loc 1 648 0
 754 0012 80B2     		uxth	r0, r0
 755 0014 02B0     		add	sp, sp, #8
 756 0016 7047     		bx	lr
 757              		.cfi_endproc
 758              	.LFE45:
 760              		.section	.text.I2C_SoftwareResetCmd,"ax",%progbits
 761              		.align	1
 762              		.global	I2C_SoftwareResetCmd
 763              		.thumb
 764              		.thumb_func
 766              	I2C_SoftwareResetCmd:
 767              	.LFB46:
 649:firmware/STM32F10x_StdPeriph_Lib_V3.3.0/Libraries/STM32F10x_StdPeriph_Driver/src/stm32f10x_i2c.c **** 
 650:firmware/STM32F10x_StdPeriph_Lib_V3.3.0/Libraries/STM32F10x_StdPeriph_Driver/src/stm32f10x_i2c.c **** /**
 651:firmware/STM32F10x_StdPeriph_Lib_V3.3.0/Libraries/STM32F10x_StdPeriph_Driver/src/stm32f10x_i2c.c ****   * @brief  Enables or disables the specified I2C software reset.
 652:firmware/STM32F10x_StdPeriph_Lib_V3.3.0/Libraries/STM32F10x_StdPeriph_Driver/src/stm32f10x_i2c.c ****   * @param  I2Cx: where x can be 1 or 2 to select the I2C peripheral.
 653:firmware/STM32F10x_StdPeriph_Lib_V3.3.0/Libraries/STM32F10x_StdPeriph_Driver/src/stm32f10x_i2c.c ****   * @param  NewState: new state of the I2C software reset.
 654:firmware/STM32F10x_StdPeriph_Lib_V3.3.0/Libraries/STM32F10x_StdPeriph_Driver/src/stm32f10x_i2c.c ****   *   This parameter can be: ENABLE or DISABLE.
 655:firmware/STM32F10x_StdPeriph_Lib_V3.3.0/Libraries/STM32F10x_StdPeriph_Driver/src/stm32f10x_i2c.c ****   * @retval None
 656:firmware/STM32F10x_StdPeriph_Lib_V3.3.0/Libraries/STM32F10x_StdPeriph_Driver/src/stm32f10x_i2c.c ****   */
 657:firmware/STM32F10x_StdPeriph_Lib_V3.3.0/Libraries/STM32F10x_StdPeriph_Driver/src/stm32f10x_i2c.c **** void I2C_SoftwareResetCmd(I2C_TypeDef* I2Cx, FunctionalState NewState)
 658:firmware/STM32F10x_StdPeriph_Lib_V3.3.0/Libraries/STM32F10x_StdPeriph_Driver/src/stm32f10x_i2c.c **** {
 768              		.loc 1 658 0
 769              		.cfi_startproc
 770              		@ args = 0, pretend = 0, frame = 0
 771              		@ frame_needed = 0, uses_anonymous_args = 0
 772              		@ link register save eliminated.
 773              	.LVL63:
 659:firmware/STM32F10x_StdPeriph_Lib_V3.3.0/Libraries/STM32F10x_StdPeriph_Driver/src/stm32f10x_i2c.c ****   /* Check the parameters */
 660:firmware/STM32F10x_StdPeriph_Lib_V3.3.0/Libraries/STM32F10x_StdPeriph_Driver/src/stm32f10x_i2c.c ****   assert_param(IS_I2C_ALL_PERIPH(I2Cx));
 661:firmware/STM32F10x_StdPeriph_Lib_V3.3.0/Libraries/STM32F10x_StdPeriph_Driver/src/stm32f10x_i2c.c ****   assert_param(IS_FUNCTIONAL_STATE(NewState));
 662:firmware/STM32F10x_StdPeriph_Lib_V3.3.0/Libraries/STM32F10x_StdPeriph_Driver/src/stm32f10x_i2c.c ****   if (NewState != DISABLE)
 774              		.loc 1 662 0
 775 0000 31B1     		cbz	r1, .L61
 663:firmware/STM32F10x_StdPeriph_Lib_V3.3.0/Libraries/STM32F10x_StdPeriph_Driver/src/stm32f10x_i2c.c ****   {
 664:firmware/STM32F10x_StdPeriph_Lib_V3.3.0/Libraries/STM32F10x_StdPeriph_Driver/src/stm32f10x_i2c.c ****     /* Peripheral under reset */
 665:firmware/STM32F10x_StdPeriph_Lib_V3.3.0/Libraries/STM32F10x_StdPeriph_Driver/src/stm32f10x_i2c.c ****     I2Cx->CR1 |= CR1_SWRST_Set;
 776              		.loc 1 665 0
 777 0002 0388     		ldrh	r3, [r0, #0]
 778 0004 6FEA4343 		mvn	r3, r3, lsl #17
 779 0008 6FEA5343 		mvn	r3, r3, lsr #17
 780 000c 9BB2     		uxth	r3, r3
 781 000e 02E0     		b	.L63
 782              	.L61:
 666:firmware/STM32F10x_StdPeriph_Lib_V3.3.0/Libraries/STM32F10x_StdPeriph_Driver/src/stm32f10x_i2c.c ****   }
 667:firmware/STM32F10x_StdPeriph_Lib_V3.3.0/Libraries/STM32F10x_StdPeriph_Driver/src/stm32f10x_i2c.c ****   else
 668:firmware/STM32F10x_StdPeriph_Lib_V3.3.0/Libraries/STM32F10x_StdPeriph_Driver/src/stm32f10x_i2c.c ****   {
 669:firmware/STM32F10x_StdPeriph_Lib_V3.3.0/Libraries/STM32F10x_StdPeriph_Driver/src/stm32f10x_i2c.c ****     /* Peripheral not under reset */
 670:firmware/STM32F10x_StdPeriph_Lib_V3.3.0/Libraries/STM32F10x_StdPeriph_Driver/src/stm32f10x_i2c.c ****     I2Cx->CR1 &= CR1_SWRST_Reset;
 783              		.loc 1 670 0
 784 0010 0388     		ldrh	r3, [r0, #0]
 785 0012 5B04     		lsls	r3, r3, #17
 786 0014 5B0C     		lsrs	r3, r3, #17
 787              	.L63:
 788 0016 0380     		strh	r3, [r0, #0]	@ movhi
 789 0018 7047     		bx	lr
 790              		.cfi_endproc
 791              	.LFE46:
 793              		.section	.text.I2C_SMBusAlertConfig,"ax",%progbits
 794              		.align	1
 795              		.global	I2C_SMBusAlertConfig
 796              		.thumb
 797              		.thumb_func
 799              	I2C_SMBusAlertConfig:
 800              	.LFB47:
 671:firmware/STM32F10x_StdPeriph_Lib_V3.3.0/Libraries/STM32F10x_StdPeriph_Driver/src/stm32f10x_i2c.c ****   }
 672:firmware/STM32F10x_StdPeriph_Lib_V3.3.0/Libraries/STM32F10x_StdPeriph_Driver/src/stm32f10x_i2c.c **** }
 673:firmware/STM32F10x_StdPeriph_Lib_V3.3.0/Libraries/STM32F10x_StdPeriph_Driver/src/stm32f10x_i2c.c **** 
 674:firmware/STM32F10x_StdPeriph_Lib_V3.3.0/Libraries/STM32F10x_StdPeriph_Driver/src/stm32f10x_i2c.c **** /**
 675:firmware/STM32F10x_StdPeriph_Lib_V3.3.0/Libraries/STM32F10x_StdPeriph_Driver/src/stm32f10x_i2c.c ****   * @brief  Drives the SMBusAlert pin high or low for the specified I2C.
 676:firmware/STM32F10x_StdPeriph_Lib_V3.3.0/Libraries/STM32F10x_StdPeriph_Driver/src/stm32f10x_i2c.c ****   * @param  I2Cx: where x can be 1 or 2 to select the I2C peripheral.
 677:firmware/STM32F10x_StdPeriph_Lib_V3.3.0/Libraries/STM32F10x_StdPeriph_Driver/src/stm32f10x_i2c.c ****   * @param  I2C_SMBusAlert: specifies SMBAlert pin level. 
 678:firmware/STM32F10x_StdPeriph_Lib_V3.3.0/Libraries/STM32F10x_StdPeriph_Driver/src/stm32f10x_i2c.c ****   *   This parameter can be one of the following values:
 679:firmware/STM32F10x_StdPeriph_Lib_V3.3.0/Libraries/STM32F10x_StdPeriph_Driver/src/stm32f10x_i2c.c ****   *     @arg I2C_SMBusAlert_Low: SMBAlert pin driven low
 680:firmware/STM32F10x_StdPeriph_Lib_V3.3.0/Libraries/STM32F10x_StdPeriph_Driver/src/stm32f10x_i2c.c ****   *     @arg I2C_SMBusAlert_High: SMBAlert pin driven high
 681:firmware/STM32F10x_StdPeriph_Lib_V3.3.0/Libraries/STM32F10x_StdPeriph_Driver/src/stm32f10x_i2c.c ****   * @retval None
 682:firmware/STM32F10x_StdPeriph_Lib_V3.3.0/Libraries/STM32F10x_StdPeriph_Driver/src/stm32f10x_i2c.c ****   */
 683:firmware/STM32F10x_StdPeriph_Lib_V3.3.0/Libraries/STM32F10x_StdPeriph_Driver/src/stm32f10x_i2c.c **** void I2C_SMBusAlertConfig(I2C_TypeDef* I2Cx, uint16_t I2C_SMBusAlert)
 684:firmware/STM32F10x_StdPeriph_Lib_V3.3.0/Libraries/STM32F10x_StdPeriph_Driver/src/stm32f10x_i2c.c **** {
 801              		.loc 1 684 0
 802              		.cfi_startproc
 803              		@ args = 0, pretend = 0, frame = 0
 804              		@ frame_needed = 0, uses_anonymous_args = 0
 805              		@ link register save eliminated.
 806              	.LVL64:
 685:firmware/STM32F10x_StdPeriph_Lib_V3.3.0/Libraries/STM32F10x_StdPeriph_Driver/src/stm32f10x_i2c.c ****   /* Check the parameters */
 686:firmware/STM32F10x_StdPeriph_Lib_V3.3.0/Libraries/STM32F10x_StdPeriph_Driver/src/stm32f10x_i2c.c ****   assert_param(IS_I2C_ALL_PERIPH(I2Cx));
 687:firmware/STM32F10x_StdPeriph_Lib_V3.3.0/Libraries/STM32F10x_StdPeriph_Driver/src/stm32f10x_i2c.c ****   assert_param(IS_I2C_SMBUS_ALERT(I2C_SMBusAlert));
 688:firmware/STM32F10x_StdPeriph_Lib_V3.3.0/Libraries/STM32F10x_StdPeriph_Driver/src/stm32f10x_i2c.c ****   if (I2C_SMBusAlert == I2C_SMBusAlert_Low)
 807              		.loc 1 688 0
 808 0000 B1F5005F 		cmp	r1, #8192
 809 0004 04D1     		bne	.L65
 689:firmware/STM32F10x_StdPeriph_Lib_V3.3.0/Libraries/STM32F10x_StdPeriph_Driver/src/stm32f10x_i2c.c ****   {
 690:firmware/STM32F10x_StdPeriph_Lib_V3.3.0/Libraries/STM32F10x_StdPeriph_Driver/src/stm32f10x_i2c.c ****     /* Drive the SMBusAlert pin Low */
 691:firmware/STM32F10x_StdPeriph_Lib_V3.3.0/Libraries/STM32F10x_StdPeriph_Driver/src/stm32f10x_i2c.c ****     I2Cx->CR1 |= I2C_SMBusAlert_Low;
 810              		.loc 1 691 0
 811 0006 0388     		ldrh	r3, [r0, #0]
 812 0008 9BB2     		uxth	r3, r3
 813 000a 43F40053 		orr	r3, r3, #8192
 814 000e 04E0     		b	.L67
 815              	.L65:
 692:firmware/STM32F10x_StdPeriph_Lib_V3.3.0/Libraries/STM32F10x_StdPeriph_Driver/src/stm32f10x_i2c.c ****   }
 693:firmware/STM32F10x_StdPeriph_Lib_V3.3.0/Libraries/STM32F10x_StdPeriph_Driver/src/stm32f10x_i2c.c ****   else
 694:firmware/STM32F10x_StdPeriph_Lib_V3.3.0/Libraries/STM32F10x_StdPeriph_Driver/src/stm32f10x_i2c.c ****   {
 695:firmware/STM32F10x_StdPeriph_Lib_V3.3.0/Libraries/STM32F10x_StdPeriph_Driver/src/stm32f10x_i2c.c ****     /* Drive the SMBusAlert pin High  */
 696:firmware/STM32F10x_StdPeriph_Lib_V3.3.0/Libraries/STM32F10x_StdPeriph_Driver/src/stm32f10x_i2c.c ****     I2Cx->CR1 &= I2C_SMBusAlert_High;
 816              		.loc 1 696 0
 817 0010 0388     		ldrh	r3, [r0, #0]
 818 0012 23F40053 		bic	r3, r3, #8192
 819 0016 1B04     		lsls	r3, r3, #16
 820 0018 1B0C     		lsrs	r3, r3, #16
 821              	.L67:
 822 001a 0380     		strh	r3, [r0, #0]	@ movhi
 823 001c 7047     		bx	lr
 824              		.cfi_endproc
 825              	.LFE47:
 827              		.section	.text.I2C_TransmitPEC,"ax",%progbits
 828              		.align	1
 829              		.global	I2C_TransmitPEC
 830              		.thumb
 831              		.thumb_func
 833              	I2C_TransmitPEC:
 834              	.LFB48:
 697:firmware/STM32F10x_StdPeriph_Lib_V3.3.0/Libraries/STM32F10x_StdPeriph_Driver/src/stm32f10x_i2c.c ****   }
 698:firmware/STM32F10x_StdPeriph_Lib_V3.3.0/Libraries/STM32F10x_StdPeriph_Driver/src/stm32f10x_i2c.c **** }
 699:firmware/STM32F10x_StdPeriph_Lib_V3.3.0/Libraries/STM32F10x_StdPeriph_Driver/src/stm32f10x_i2c.c **** 
 700:firmware/STM32F10x_StdPeriph_Lib_V3.3.0/Libraries/STM32F10x_StdPeriph_Driver/src/stm32f10x_i2c.c **** /**
 701:firmware/STM32F10x_StdPeriph_Lib_V3.3.0/Libraries/STM32F10x_StdPeriph_Driver/src/stm32f10x_i2c.c ****   * @brief  Enables or disables the specified I2C PEC transfer.
 702:firmware/STM32F10x_StdPeriph_Lib_V3.3.0/Libraries/STM32F10x_StdPeriph_Driver/src/stm32f10x_i2c.c ****   * @param  I2Cx: where x can be 1 or 2 to select the I2C peripheral.
 703:firmware/STM32F10x_StdPeriph_Lib_V3.3.0/Libraries/STM32F10x_StdPeriph_Driver/src/stm32f10x_i2c.c ****   * @param  NewState: new state of the I2C PEC transmission.
 704:firmware/STM32F10x_StdPeriph_Lib_V3.3.0/Libraries/STM32F10x_StdPeriph_Driver/src/stm32f10x_i2c.c ****   *   This parameter can be: ENABLE or DISABLE.
 705:firmware/STM32F10x_StdPeriph_Lib_V3.3.0/Libraries/STM32F10x_StdPeriph_Driver/src/stm32f10x_i2c.c ****   * @retval None
 706:firmware/STM32F10x_StdPeriph_Lib_V3.3.0/Libraries/STM32F10x_StdPeriph_Driver/src/stm32f10x_i2c.c ****   */
 707:firmware/STM32F10x_StdPeriph_Lib_V3.3.0/Libraries/STM32F10x_StdPeriph_Driver/src/stm32f10x_i2c.c **** void I2C_TransmitPEC(I2C_TypeDef* I2Cx, FunctionalState NewState)
 708:firmware/STM32F10x_StdPeriph_Lib_V3.3.0/Libraries/STM32F10x_StdPeriph_Driver/src/stm32f10x_i2c.c **** {
 835              		.loc 1 708 0
 836              		.cfi_startproc
 837              		@ args = 0, pretend = 0, frame = 0
 838              		@ frame_needed = 0, uses_anonymous_args = 0
 839              		@ link register save eliminated.
 840              	.LVL65:
 709:firmware/STM32F10x_StdPeriph_Lib_V3.3.0/Libraries/STM32F10x_StdPeriph_Driver/src/stm32f10x_i2c.c ****   /* Check the parameters */
 710:firmware/STM32F10x_StdPeriph_Lib_V3.3.0/Libraries/STM32F10x_StdPeriph_Driver/src/stm32f10x_i2c.c ****   assert_param(IS_I2C_ALL_PERIPH(I2Cx));
 711:firmware/STM32F10x_StdPeriph_Lib_V3.3.0/Libraries/STM32F10x_StdPeriph_Driver/src/stm32f10x_i2c.c ****   assert_param(IS_FUNCTIONAL_STATE(NewState));
 712:firmware/STM32F10x_StdPeriph_Lib_V3.3.0/Libraries/STM32F10x_StdPeriph_Driver/src/stm32f10x_i2c.c ****   if (NewState != DISABLE)
 841              		.loc 1 712 0
 842 0000 21B1     		cbz	r1, .L69
 713:firmware/STM32F10x_StdPeriph_Lib_V3.3.0/Libraries/STM32F10x_StdPeriph_Driver/src/stm32f10x_i2c.c ****   {
 714:firmware/STM32F10x_StdPeriph_Lib_V3.3.0/Libraries/STM32F10x_StdPeriph_Driver/src/stm32f10x_i2c.c ****     /* Enable the selected I2C PEC transmission */
 715:firmware/STM32F10x_StdPeriph_Lib_V3.3.0/Libraries/STM32F10x_StdPeriph_Driver/src/stm32f10x_i2c.c ****     I2Cx->CR1 |= CR1_PEC_Set;
 843              		.loc 1 715 0
 844 0002 0388     		ldrh	r3, [r0, #0]
 845 0004 9BB2     		uxth	r3, r3
 846 0006 43F48053 		orr	r3, r3, #4096
 847 000a 04E0     		b	.L71
 848              	.L69:
 716:firmware/STM32F10x_StdPeriph_Lib_V3.3.0/Libraries/STM32F10x_StdPeriph_Driver/src/stm32f10x_i2c.c ****   }
 717:firmware/STM32F10x_StdPeriph_Lib_V3.3.0/Libraries/STM32F10x_StdPeriph_Driver/src/stm32f10x_i2c.c ****   else
 718:firmware/STM32F10x_StdPeriph_Lib_V3.3.0/Libraries/STM32F10x_StdPeriph_Driver/src/stm32f10x_i2c.c ****   {
 719:firmware/STM32F10x_StdPeriph_Lib_V3.3.0/Libraries/STM32F10x_StdPeriph_Driver/src/stm32f10x_i2c.c ****     /* Disable the selected I2C PEC transmission */
 720:firmware/STM32F10x_StdPeriph_Lib_V3.3.0/Libraries/STM32F10x_StdPeriph_Driver/src/stm32f10x_i2c.c ****     I2Cx->CR1 &= CR1_PEC_Reset;
 849              		.loc 1 720 0
 850 000c 0388     		ldrh	r3, [r0, #0]
 851 000e 23F48053 		bic	r3, r3, #4096
 852 0012 1B04     		lsls	r3, r3, #16
 853 0014 1B0C     		lsrs	r3, r3, #16
 854              	.L71:
 855 0016 0380     		strh	r3, [r0, #0]	@ movhi
 856 0018 7047     		bx	lr
 857              		.cfi_endproc
 858              	.LFE48:
 860              		.section	.text.I2C_PECPositionConfig,"ax",%progbits
 861              		.align	1
 862              		.global	I2C_PECPositionConfig
 863              		.thumb
 864              		.thumb_func
 866              	I2C_PECPositionConfig:
 867              	.LFB49:
 721:firmware/STM32F10x_StdPeriph_Lib_V3.3.0/Libraries/STM32F10x_StdPeriph_Driver/src/stm32f10x_i2c.c ****   }
 722:firmware/STM32F10x_StdPeriph_Lib_V3.3.0/Libraries/STM32F10x_StdPeriph_Driver/src/stm32f10x_i2c.c **** }
 723:firmware/STM32F10x_StdPeriph_Lib_V3.3.0/Libraries/STM32F10x_StdPeriph_Driver/src/stm32f10x_i2c.c **** 
 724:firmware/STM32F10x_StdPeriph_Lib_V3.3.0/Libraries/STM32F10x_StdPeriph_Driver/src/stm32f10x_i2c.c **** /**
 725:firmware/STM32F10x_StdPeriph_Lib_V3.3.0/Libraries/STM32F10x_StdPeriph_Driver/src/stm32f10x_i2c.c ****   * @brief  Selects the specified I2C PEC position.
 726:firmware/STM32F10x_StdPeriph_Lib_V3.3.0/Libraries/STM32F10x_StdPeriph_Driver/src/stm32f10x_i2c.c ****   * @param  I2Cx: where x can be 1 or 2 to select the I2C peripheral.
 727:firmware/STM32F10x_StdPeriph_Lib_V3.3.0/Libraries/STM32F10x_StdPeriph_Driver/src/stm32f10x_i2c.c ****   * @param  I2C_PECPosition: specifies the PEC position. 
 728:firmware/STM32F10x_StdPeriph_Lib_V3.3.0/Libraries/STM32F10x_StdPeriph_Driver/src/stm32f10x_i2c.c ****   *   This parameter can be one of the following values:
 729:firmware/STM32F10x_StdPeriph_Lib_V3.3.0/Libraries/STM32F10x_StdPeriph_Driver/src/stm32f10x_i2c.c ****   *     @arg I2C_PECPosition_Next: indicates that the next byte is PEC
 730:firmware/STM32F10x_StdPeriph_Lib_V3.3.0/Libraries/STM32F10x_StdPeriph_Driver/src/stm32f10x_i2c.c ****   *     @arg I2C_PECPosition_Current: indicates that current byte is PEC
 731:firmware/STM32F10x_StdPeriph_Lib_V3.3.0/Libraries/STM32F10x_StdPeriph_Driver/src/stm32f10x_i2c.c ****   * @retval None
 732:firmware/STM32F10x_StdPeriph_Lib_V3.3.0/Libraries/STM32F10x_StdPeriph_Driver/src/stm32f10x_i2c.c ****   */
 733:firmware/STM32F10x_StdPeriph_Lib_V3.3.0/Libraries/STM32F10x_StdPeriph_Driver/src/stm32f10x_i2c.c **** void I2C_PECPositionConfig(I2C_TypeDef* I2Cx, uint16_t I2C_PECPosition)
 734:firmware/STM32F10x_StdPeriph_Lib_V3.3.0/Libraries/STM32F10x_StdPeriph_Driver/src/stm32f10x_i2c.c **** {
 868              		.loc 1 734 0
 869              		.cfi_startproc
 870              		@ args = 0, pretend = 0, frame = 0
 871              		@ frame_needed = 0, uses_anonymous_args = 0
 872              		@ link register save eliminated.
 873              	.LVL66:
 735:firmware/STM32F10x_StdPeriph_Lib_V3.3.0/Libraries/STM32F10x_StdPeriph_Driver/src/stm32f10x_i2c.c ****   /* Check the parameters */
 736:firmware/STM32F10x_StdPeriph_Lib_V3.3.0/Libraries/STM32F10x_StdPeriph_Driver/src/stm32f10x_i2c.c ****   assert_param(IS_I2C_ALL_PERIPH(I2Cx));
 737:firmware/STM32F10x_StdPeriph_Lib_V3.3.0/Libraries/STM32F10x_StdPeriph_Driver/src/stm32f10x_i2c.c ****   assert_param(IS_I2C_PEC_POSITION(I2C_PECPosition));
 738:firmware/STM32F10x_StdPeriph_Lib_V3.3.0/Libraries/STM32F10x_StdPeriph_Driver/src/stm32f10x_i2c.c ****   if (I2C_PECPosition == I2C_PECPosition_Next)
 874              		.loc 1 738 0
 875 0000 B1F5006F 		cmp	r1, #2048
 876 0004 04D1     		bne	.L73
 739:firmware/STM32F10x_StdPeriph_Lib_V3.3.0/Libraries/STM32F10x_StdPeriph_Driver/src/stm32f10x_i2c.c ****   {
 740:firmware/STM32F10x_StdPeriph_Lib_V3.3.0/Libraries/STM32F10x_StdPeriph_Driver/src/stm32f10x_i2c.c ****     /* Next byte in shift register is PEC */
 741:firmware/STM32F10x_StdPeriph_Lib_V3.3.0/Libraries/STM32F10x_StdPeriph_Driver/src/stm32f10x_i2c.c ****     I2Cx->CR1 |= I2C_PECPosition_Next;
 877              		.loc 1 741 0
 878 0006 0388     		ldrh	r3, [r0, #0]
 879 0008 9BB2     		uxth	r3, r3
 880 000a 43F40063 		orr	r3, r3, #2048
 881 000e 04E0     		b	.L75
 882              	.L73:
 742:firmware/STM32F10x_StdPeriph_Lib_V3.3.0/Libraries/STM32F10x_StdPeriph_Driver/src/stm32f10x_i2c.c ****   }
 743:firmware/STM32F10x_StdPeriph_Lib_V3.3.0/Libraries/STM32F10x_StdPeriph_Driver/src/stm32f10x_i2c.c ****   else
 744:firmware/STM32F10x_StdPeriph_Lib_V3.3.0/Libraries/STM32F10x_StdPeriph_Driver/src/stm32f10x_i2c.c ****   {
 745:firmware/STM32F10x_StdPeriph_Lib_V3.3.0/Libraries/STM32F10x_StdPeriph_Driver/src/stm32f10x_i2c.c ****     /* Current byte in shift register is PEC */
 746:firmware/STM32F10x_StdPeriph_Lib_V3.3.0/Libraries/STM32F10x_StdPeriph_Driver/src/stm32f10x_i2c.c ****     I2Cx->CR1 &= I2C_PECPosition_Current;
 883              		.loc 1 746 0
 884 0010 0388     		ldrh	r3, [r0, #0]
 885 0012 23F40063 		bic	r3, r3, #2048
 886 0016 1B04     		lsls	r3, r3, #16
 887 0018 1B0C     		lsrs	r3, r3, #16
 888              	.L75:
 889 001a 0380     		strh	r3, [r0, #0]	@ movhi
 890 001c 7047     		bx	lr
 891              		.cfi_endproc
 892              	.LFE49:
 894              		.section	.text.I2C_CalculatePEC,"ax",%progbits
 895              		.align	1
 896              		.global	I2C_CalculatePEC
 897              		.thumb
 898              		.thumb_func
 900              	I2C_CalculatePEC:
 901              	.LFB50:
 747:firmware/STM32F10x_StdPeriph_Lib_V3.3.0/Libraries/STM32F10x_StdPeriph_Driver/src/stm32f10x_i2c.c ****   }
 748:firmware/STM32F10x_StdPeriph_Lib_V3.3.0/Libraries/STM32F10x_StdPeriph_Driver/src/stm32f10x_i2c.c **** }
 749:firmware/STM32F10x_StdPeriph_Lib_V3.3.0/Libraries/STM32F10x_StdPeriph_Driver/src/stm32f10x_i2c.c **** 
 750:firmware/STM32F10x_StdPeriph_Lib_V3.3.0/Libraries/STM32F10x_StdPeriph_Driver/src/stm32f10x_i2c.c **** /**
 751:firmware/STM32F10x_StdPeriph_Lib_V3.3.0/Libraries/STM32F10x_StdPeriph_Driver/src/stm32f10x_i2c.c ****   * @brief  Enables or disables the PEC value calculation of the transfered bytes.
 752:firmware/STM32F10x_StdPeriph_Lib_V3.3.0/Libraries/STM32F10x_StdPeriph_Driver/src/stm32f10x_i2c.c ****   * @param  I2Cx: where x can be 1 or 2 to select the I2C peripheral.
 753:firmware/STM32F10x_StdPeriph_Lib_V3.3.0/Libraries/STM32F10x_StdPeriph_Driver/src/stm32f10x_i2c.c ****   * @param  NewState: new state of the I2Cx PEC value calculation.
 754:firmware/STM32F10x_StdPeriph_Lib_V3.3.0/Libraries/STM32F10x_StdPeriph_Driver/src/stm32f10x_i2c.c ****   *   This parameter can be: ENABLE or DISABLE.
 755:firmware/STM32F10x_StdPeriph_Lib_V3.3.0/Libraries/STM32F10x_StdPeriph_Driver/src/stm32f10x_i2c.c ****   * @retval None
 756:firmware/STM32F10x_StdPeriph_Lib_V3.3.0/Libraries/STM32F10x_StdPeriph_Driver/src/stm32f10x_i2c.c ****   */
 757:firmware/STM32F10x_StdPeriph_Lib_V3.3.0/Libraries/STM32F10x_StdPeriph_Driver/src/stm32f10x_i2c.c **** void I2C_CalculatePEC(I2C_TypeDef* I2Cx, FunctionalState NewState)
 758:firmware/STM32F10x_StdPeriph_Lib_V3.3.0/Libraries/STM32F10x_StdPeriph_Driver/src/stm32f10x_i2c.c **** {
 902              		.loc 1 758 0
 903              		.cfi_startproc
 904              		@ args = 0, pretend = 0, frame = 0
 905              		@ frame_needed = 0, uses_anonymous_args = 0
 906              		@ link register save eliminated.
 907              	.LVL67:
 759:firmware/STM32F10x_StdPeriph_Lib_V3.3.0/Libraries/STM32F10x_StdPeriph_Driver/src/stm32f10x_i2c.c ****   /* Check the parameters */
 760:firmware/STM32F10x_StdPeriph_Lib_V3.3.0/Libraries/STM32F10x_StdPeriph_Driver/src/stm32f10x_i2c.c ****   assert_param(IS_I2C_ALL_PERIPH(I2Cx));
 761:firmware/STM32F10x_StdPeriph_Lib_V3.3.0/Libraries/STM32F10x_StdPeriph_Driver/src/stm32f10x_i2c.c ****   assert_param(IS_FUNCTIONAL_STATE(NewState));
 762:firmware/STM32F10x_StdPeriph_Lib_V3.3.0/Libraries/STM32F10x_StdPeriph_Driver/src/stm32f10x_i2c.c ****   if (NewState != DISABLE)
 908              		.loc 1 762 0
 909 0000 21B1     		cbz	r1, .L77
 763:firmware/STM32F10x_StdPeriph_Lib_V3.3.0/Libraries/STM32F10x_StdPeriph_Driver/src/stm32f10x_i2c.c ****   {
 764:firmware/STM32F10x_StdPeriph_Lib_V3.3.0/Libraries/STM32F10x_StdPeriph_Driver/src/stm32f10x_i2c.c ****     /* Enable the selected I2C PEC calculation */
 765:firmware/STM32F10x_StdPeriph_Lib_V3.3.0/Libraries/STM32F10x_StdPeriph_Driver/src/stm32f10x_i2c.c ****     I2Cx->CR1 |= CR1_ENPEC_Set;
 910              		.loc 1 765 0
 911 0002 0388     		ldrh	r3, [r0, #0]
 912 0004 9BB2     		uxth	r3, r3
 913 0006 43F02003 		orr	r3, r3, #32
 914 000a 04E0     		b	.L79
 915              	.L77:
 766:firmware/STM32F10x_StdPeriph_Lib_V3.3.0/Libraries/STM32F10x_StdPeriph_Driver/src/stm32f10x_i2c.c ****   }
 767:firmware/STM32F10x_StdPeriph_Lib_V3.3.0/Libraries/STM32F10x_StdPeriph_Driver/src/stm32f10x_i2c.c ****   else
 768:firmware/STM32F10x_StdPeriph_Lib_V3.3.0/Libraries/STM32F10x_StdPeriph_Driver/src/stm32f10x_i2c.c ****   {
 769:firmware/STM32F10x_StdPeriph_Lib_V3.3.0/Libraries/STM32F10x_StdPeriph_Driver/src/stm32f10x_i2c.c ****     /* Disable the selected I2C PEC calculation */
 770:firmware/STM32F10x_StdPeriph_Lib_V3.3.0/Libraries/STM32F10x_StdPeriph_Driver/src/stm32f10x_i2c.c ****     I2Cx->CR1 &= CR1_ENPEC_Reset;
 916              		.loc 1 770 0
 917 000c 0388     		ldrh	r3, [r0, #0]
 918 000e 23F02003 		bic	r3, r3, #32
 919 0012 1B04     		lsls	r3, r3, #16
 920 0014 1B0C     		lsrs	r3, r3, #16
 921              	.L79:
 922 0016 0380     		strh	r3, [r0, #0]	@ movhi
 923 0018 7047     		bx	lr
 924              		.cfi_endproc
 925              	.LFE50:
 927              		.section	.text.I2C_GetPEC,"ax",%progbits
 928              		.align	1
 929              		.global	I2C_GetPEC
 930              		.thumb
 931              		.thumb_func
 933              	I2C_GetPEC:
 934              	.LFB51:
 771:firmware/STM32F10x_StdPeriph_Lib_V3.3.0/Libraries/STM32F10x_StdPeriph_Driver/src/stm32f10x_i2c.c ****   }
 772:firmware/STM32F10x_StdPeriph_Lib_V3.3.0/Libraries/STM32F10x_StdPeriph_Driver/src/stm32f10x_i2c.c **** }
 773:firmware/STM32F10x_StdPeriph_Lib_V3.3.0/Libraries/STM32F10x_StdPeriph_Driver/src/stm32f10x_i2c.c **** 
 774:firmware/STM32F10x_StdPeriph_Lib_V3.3.0/Libraries/STM32F10x_StdPeriph_Driver/src/stm32f10x_i2c.c **** /**
 775:firmware/STM32F10x_StdPeriph_Lib_V3.3.0/Libraries/STM32F10x_StdPeriph_Driver/src/stm32f10x_i2c.c ****   * @brief  Returns the PEC value for the specified I2C.
 776:firmware/STM32F10x_StdPeriph_Lib_V3.3.0/Libraries/STM32F10x_StdPeriph_Driver/src/stm32f10x_i2c.c ****   * @param  I2Cx: where x can be 1 or 2 to select the I2C peripheral.
 777:firmware/STM32F10x_StdPeriph_Lib_V3.3.0/Libraries/STM32F10x_StdPeriph_Driver/src/stm32f10x_i2c.c ****   * @retval The PEC value.
 778:firmware/STM32F10x_StdPeriph_Lib_V3.3.0/Libraries/STM32F10x_StdPeriph_Driver/src/stm32f10x_i2c.c ****   */
 779:firmware/STM32F10x_StdPeriph_Lib_V3.3.0/Libraries/STM32F10x_StdPeriph_Driver/src/stm32f10x_i2c.c **** uint8_t I2C_GetPEC(I2C_TypeDef* I2Cx)
 780:firmware/STM32F10x_StdPeriph_Lib_V3.3.0/Libraries/STM32F10x_StdPeriph_Driver/src/stm32f10x_i2c.c **** {
 935              		.loc 1 780 0
 936              		.cfi_startproc
 937              		@ args = 0, pretend = 0, frame = 0
 938              		@ frame_needed = 0, uses_anonymous_args = 0
 939              		@ link register save eliminated.
 940              	.LVL68:
 781:firmware/STM32F10x_StdPeriph_Lib_V3.3.0/Libraries/STM32F10x_StdPeriph_Driver/src/stm32f10x_i2c.c ****   /* Check the parameters */
 782:firmware/STM32F10x_StdPeriph_Lib_V3.3.0/Libraries/STM32F10x_StdPeriph_Driver/src/stm32f10x_i2c.c ****   assert_param(IS_I2C_ALL_PERIPH(I2Cx));
 783:firmware/STM32F10x_StdPeriph_Lib_V3.3.0/Libraries/STM32F10x_StdPeriph_Driver/src/stm32f10x_i2c.c ****   /* Return the selected I2C PEC value */
 784:firmware/STM32F10x_StdPeriph_Lib_V3.3.0/Libraries/STM32F10x_StdPeriph_Driver/src/stm32f10x_i2c.c ****   return ((I2Cx->SR2) >> 8);
 941              		.loc 1 784 0
 942 0000 008B     		ldrh	r0, [r0, #24]
 943              	.LVL69:
 944 0002 80B2     		uxth	r0, r0
 785:firmware/STM32F10x_StdPeriph_Lib_V3.3.0/Libraries/STM32F10x_StdPeriph_Driver/src/stm32f10x_i2c.c **** }
 945              		.loc 1 785 0
 946 0004 000A     		lsrs	r0, r0, #8
 947 0006 7047     		bx	lr
 948              		.cfi_endproc
 949              	.LFE51:
 951              		.section	.text.I2C_ARPCmd,"ax",%progbits
 952              		.align	1
 953              		.global	I2C_ARPCmd
 954              		.thumb
 955              		.thumb_func
 957              	I2C_ARPCmd:
 958              	.LFB52:
 786:firmware/STM32F10x_StdPeriph_Lib_V3.3.0/Libraries/STM32F10x_StdPeriph_Driver/src/stm32f10x_i2c.c **** 
 787:firmware/STM32F10x_StdPeriph_Lib_V3.3.0/Libraries/STM32F10x_StdPeriph_Driver/src/stm32f10x_i2c.c **** /**
 788:firmware/STM32F10x_StdPeriph_Lib_V3.3.0/Libraries/STM32F10x_StdPeriph_Driver/src/stm32f10x_i2c.c ****   * @brief  Enables or disables the specified I2C ARP.
 789:firmware/STM32F10x_StdPeriph_Lib_V3.3.0/Libraries/STM32F10x_StdPeriph_Driver/src/stm32f10x_i2c.c ****   * @param  I2Cx: where x can be 1 or 2 to select the I2C peripheral.
 790:firmware/STM32F10x_StdPeriph_Lib_V3.3.0/Libraries/STM32F10x_StdPeriph_Driver/src/stm32f10x_i2c.c ****   * @param  NewState: new state of the I2Cx ARP. 
 791:firmware/STM32F10x_StdPeriph_Lib_V3.3.0/Libraries/STM32F10x_StdPeriph_Driver/src/stm32f10x_i2c.c ****   *   This parameter can be: ENABLE or DISABLE.
 792:firmware/STM32F10x_StdPeriph_Lib_V3.3.0/Libraries/STM32F10x_StdPeriph_Driver/src/stm32f10x_i2c.c ****   * @retval None
 793:firmware/STM32F10x_StdPeriph_Lib_V3.3.0/Libraries/STM32F10x_StdPeriph_Driver/src/stm32f10x_i2c.c ****   */
 794:firmware/STM32F10x_StdPeriph_Lib_V3.3.0/Libraries/STM32F10x_StdPeriph_Driver/src/stm32f10x_i2c.c **** void I2C_ARPCmd(I2C_TypeDef* I2Cx, FunctionalState NewState)
 795:firmware/STM32F10x_StdPeriph_Lib_V3.3.0/Libraries/STM32F10x_StdPeriph_Driver/src/stm32f10x_i2c.c **** {
 959              		.loc 1 795 0
 960              		.cfi_startproc
 961              		@ args = 0, pretend = 0, frame = 0
 962              		@ frame_needed = 0, uses_anonymous_args = 0
 963              		@ link register save eliminated.
 964              	.LVL70:
 796:firmware/STM32F10x_StdPeriph_Lib_V3.3.0/Libraries/STM32F10x_StdPeriph_Driver/src/stm32f10x_i2c.c ****   /* Check the parameters */
 797:firmware/STM32F10x_StdPeriph_Lib_V3.3.0/Libraries/STM32F10x_StdPeriph_Driver/src/stm32f10x_i2c.c ****   assert_param(IS_I2C_ALL_PERIPH(I2Cx));
 798:firmware/STM32F10x_StdPeriph_Lib_V3.3.0/Libraries/STM32F10x_StdPeriph_Driver/src/stm32f10x_i2c.c ****   assert_param(IS_FUNCTIONAL_STATE(NewState));
 799:firmware/STM32F10x_StdPeriph_Lib_V3.3.0/Libraries/STM32F10x_StdPeriph_Driver/src/stm32f10x_i2c.c ****   if (NewState != DISABLE)
 965              		.loc 1 799 0
 966 0000 21B1     		cbz	r1, .L82
 800:firmware/STM32F10x_StdPeriph_Lib_V3.3.0/Libraries/STM32F10x_StdPeriph_Driver/src/stm32f10x_i2c.c ****   {
 801:firmware/STM32F10x_StdPeriph_Lib_V3.3.0/Libraries/STM32F10x_StdPeriph_Driver/src/stm32f10x_i2c.c ****     /* Enable the selected I2C ARP */
 802:firmware/STM32F10x_StdPeriph_Lib_V3.3.0/Libraries/STM32F10x_StdPeriph_Driver/src/stm32f10x_i2c.c ****     I2Cx->CR1 |= CR1_ENARP_Set;
 967              		.loc 1 802 0
 968 0002 0388     		ldrh	r3, [r0, #0]
 969 0004 9BB2     		uxth	r3, r3
 970 0006 43F01003 		orr	r3, r3, #16
 971 000a 04E0     		b	.L84
 972              	.L82:
 803:firmware/STM32F10x_StdPeriph_Lib_V3.3.0/Libraries/STM32F10x_StdPeriph_Driver/src/stm32f10x_i2c.c ****   }
 804:firmware/STM32F10x_StdPeriph_Lib_V3.3.0/Libraries/STM32F10x_StdPeriph_Driver/src/stm32f10x_i2c.c ****   else
 805:firmware/STM32F10x_StdPeriph_Lib_V3.3.0/Libraries/STM32F10x_StdPeriph_Driver/src/stm32f10x_i2c.c ****   {
 806:firmware/STM32F10x_StdPeriph_Lib_V3.3.0/Libraries/STM32F10x_StdPeriph_Driver/src/stm32f10x_i2c.c ****     /* Disable the selected I2C ARP */
 807:firmware/STM32F10x_StdPeriph_Lib_V3.3.0/Libraries/STM32F10x_StdPeriph_Driver/src/stm32f10x_i2c.c ****     I2Cx->CR1 &= CR1_ENARP_Reset;
 973              		.loc 1 807 0
 974 000c 0388     		ldrh	r3, [r0, #0]
 975 000e 23F01003 		bic	r3, r3, #16
 976 0012 1B04     		lsls	r3, r3, #16
 977 0014 1B0C     		lsrs	r3, r3, #16
 978              	.L84:
 979 0016 0380     		strh	r3, [r0, #0]	@ movhi
 980 0018 7047     		bx	lr
 981              		.cfi_endproc
 982              	.LFE52:
 984              		.section	.text.I2C_StretchClockCmd,"ax",%progbits
 985              		.align	1
 986              		.global	I2C_StretchClockCmd
 987              		.thumb
 988              		.thumb_func
 990              	I2C_StretchClockCmd:
 991              	.LFB53:
 808:firmware/STM32F10x_StdPeriph_Lib_V3.3.0/Libraries/STM32F10x_StdPeriph_Driver/src/stm32f10x_i2c.c ****   }
 809:firmware/STM32F10x_StdPeriph_Lib_V3.3.0/Libraries/STM32F10x_StdPeriph_Driver/src/stm32f10x_i2c.c **** }
 810:firmware/STM32F10x_StdPeriph_Lib_V3.3.0/Libraries/STM32F10x_StdPeriph_Driver/src/stm32f10x_i2c.c **** 
 811:firmware/STM32F10x_StdPeriph_Lib_V3.3.0/Libraries/STM32F10x_StdPeriph_Driver/src/stm32f10x_i2c.c **** /**
 812:firmware/STM32F10x_StdPeriph_Lib_V3.3.0/Libraries/STM32F10x_StdPeriph_Driver/src/stm32f10x_i2c.c ****   * @brief  Enables or disables the specified I2C Clock stretching.
 813:firmware/STM32F10x_StdPeriph_Lib_V3.3.0/Libraries/STM32F10x_StdPeriph_Driver/src/stm32f10x_i2c.c ****   * @param  I2Cx: where x can be 1 or 2 to select the I2C peripheral.
 814:firmware/STM32F10x_StdPeriph_Lib_V3.3.0/Libraries/STM32F10x_StdPeriph_Driver/src/stm32f10x_i2c.c ****   * @param  NewState: new state of the I2Cx Clock stretching.
 815:firmware/STM32F10x_StdPeriph_Lib_V3.3.0/Libraries/STM32F10x_StdPeriph_Driver/src/stm32f10x_i2c.c ****   *   This parameter can be: ENABLE or DISABLE.
 816:firmware/STM32F10x_StdPeriph_Lib_V3.3.0/Libraries/STM32F10x_StdPeriph_Driver/src/stm32f10x_i2c.c ****   * @retval None
 817:firmware/STM32F10x_StdPeriph_Lib_V3.3.0/Libraries/STM32F10x_StdPeriph_Driver/src/stm32f10x_i2c.c ****   */
 818:firmware/STM32F10x_StdPeriph_Lib_V3.3.0/Libraries/STM32F10x_StdPeriph_Driver/src/stm32f10x_i2c.c **** void I2C_StretchClockCmd(I2C_TypeDef* I2Cx, FunctionalState NewState)
 819:firmware/STM32F10x_StdPeriph_Lib_V3.3.0/Libraries/STM32F10x_StdPeriph_Driver/src/stm32f10x_i2c.c **** {
 992              		.loc 1 819 0
 993              		.cfi_startproc
 994              		@ args = 0, pretend = 0, frame = 0
 995              		@ frame_needed = 0, uses_anonymous_args = 0
 996              		@ link register save eliminated.
 997              	.LVL71:
 820:firmware/STM32F10x_StdPeriph_Lib_V3.3.0/Libraries/STM32F10x_StdPeriph_Driver/src/stm32f10x_i2c.c ****   /* Check the parameters */
 821:firmware/STM32F10x_StdPeriph_Lib_V3.3.0/Libraries/STM32F10x_StdPeriph_Driver/src/stm32f10x_i2c.c ****   assert_param(IS_I2C_ALL_PERIPH(I2Cx));
 822:firmware/STM32F10x_StdPeriph_Lib_V3.3.0/Libraries/STM32F10x_StdPeriph_Driver/src/stm32f10x_i2c.c ****   assert_param(IS_FUNCTIONAL_STATE(NewState));
 823:firmware/STM32F10x_StdPeriph_Lib_V3.3.0/Libraries/STM32F10x_StdPeriph_Driver/src/stm32f10x_i2c.c ****   if (NewState == DISABLE)
 998              		.loc 1 823 0
 999 0000 21B9     		cbnz	r1, .L86
 824:firmware/STM32F10x_StdPeriph_Lib_V3.3.0/Libraries/STM32F10x_StdPeriph_Driver/src/stm32f10x_i2c.c ****   {
 825:firmware/STM32F10x_StdPeriph_Lib_V3.3.0/Libraries/STM32F10x_StdPeriph_Driver/src/stm32f10x_i2c.c ****     /* Enable the selected I2C Clock stretching */
 826:firmware/STM32F10x_StdPeriph_Lib_V3.3.0/Libraries/STM32F10x_StdPeriph_Driver/src/stm32f10x_i2c.c ****     I2Cx->CR1 |= CR1_NOSTRETCH_Set;
 1000              		.loc 1 826 0
 1001 0002 0388     		ldrh	r3, [r0, #0]
 1002 0004 9BB2     		uxth	r3, r3
 1003 0006 43F08003 		orr	r3, r3, #128
 1004 000a 04E0     		b	.L88
 1005              	.L86:
 827:firmware/STM32F10x_StdPeriph_Lib_V3.3.0/Libraries/STM32F10x_StdPeriph_Driver/src/stm32f10x_i2c.c ****   }
 828:firmware/STM32F10x_StdPeriph_Lib_V3.3.0/Libraries/STM32F10x_StdPeriph_Driver/src/stm32f10x_i2c.c ****   else
 829:firmware/STM32F10x_StdPeriph_Lib_V3.3.0/Libraries/STM32F10x_StdPeriph_Driver/src/stm32f10x_i2c.c ****   {
 830:firmware/STM32F10x_StdPeriph_Lib_V3.3.0/Libraries/STM32F10x_StdPeriph_Driver/src/stm32f10x_i2c.c ****     /* Disable the selected I2C Clock stretching */
 831:firmware/STM32F10x_StdPeriph_Lib_V3.3.0/Libraries/STM32F10x_StdPeriph_Driver/src/stm32f10x_i2c.c ****     I2Cx->CR1 &= CR1_NOSTRETCH_Reset;
 1006              		.loc 1 831 0
 1007 000c 0388     		ldrh	r3, [r0, #0]
 1008 000e 23F08003 		bic	r3, r3, #128
 1009 0012 1B04     		lsls	r3, r3, #16
 1010 0014 1B0C     		lsrs	r3, r3, #16
 1011              	.L88:
 1012 0016 0380     		strh	r3, [r0, #0]	@ movhi
 1013 0018 7047     		bx	lr
 1014              		.cfi_endproc
 1015              	.LFE53:
 1017              		.section	.text.I2C_FastModeDutyCycleConfig,"ax",%progbits
 1018              		.align	1
 1019              		.global	I2C_FastModeDutyCycleConfig
 1020              		.thumb
 1021              		.thumb_func
 1023              	I2C_FastModeDutyCycleConfig:
 1024              	.LFB54:
 832:firmware/STM32F10x_StdPeriph_Lib_V3.3.0/Libraries/STM32F10x_StdPeriph_Driver/src/stm32f10x_i2c.c ****   }
 833:firmware/STM32F10x_StdPeriph_Lib_V3.3.0/Libraries/STM32F10x_StdPeriph_Driver/src/stm32f10x_i2c.c **** }
 834:firmware/STM32F10x_StdPeriph_Lib_V3.3.0/Libraries/STM32F10x_StdPeriph_Driver/src/stm32f10x_i2c.c **** 
 835:firmware/STM32F10x_StdPeriph_Lib_V3.3.0/Libraries/STM32F10x_StdPeriph_Driver/src/stm32f10x_i2c.c **** /**
 836:firmware/STM32F10x_StdPeriph_Lib_V3.3.0/Libraries/STM32F10x_StdPeriph_Driver/src/stm32f10x_i2c.c ****   * @brief  Selects the specified I2C fast mode duty cycle.
 837:firmware/STM32F10x_StdPeriph_Lib_V3.3.0/Libraries/STM32F10x_StdPeriph_Driver/src/stm32f10x_i2c.c ****   * @param  I2Cx: where x can be 1 or 2 to select the I2C peripheral.
 838:firmware/STM32F10x_StdPeriph_Lib_V3.3.0/Libraries/STM32F10x_StdPeriph_Driver/src/stm32f10x_i2c.c ****   * @param  I2C_DutyCycle: specifies the fast mode duty cycle.
 839:firmware/STM32F10x_StdPeriph_Lib_V3.3.0/Libraries/STM32F10x_StdPeriph_Driver/src/stm32f10x_i2c.c ****   *   This parameter can be one of the following values:
 840:firmware/STM32F10x_StdPeriph_Lib_V3.3.0/Libraries/STM32F10x_StdPeriph_Driver/src/stm32f10x_i2c.c ****   *     @arg I2C_DutyCycle_2: I2C fast mode Tlow/Thigh = 2
 841:firmware/STM32F10x_StdPeriph_Lib_V3.3.0/Libraries/STM32F10x_StdPeriph_Driver/src/stm32f10x_i2c.c ****   *     @arg I2C_DutyCycle_16_9: I2C fast mode Tlow/Thigh = 16/9
 842:firmware/STM32F10x_StdPeriph_Lib_V3.3.0/Libraries/STM32F10x_StdPeriph_Driver/src/stm32f10x_i2c.c ****   * @retval None
 843:firmware/STM32F10x_StdPeriph_Lib_V3.3.0/Libraries/STM32F10x_StdPeriph_Driver/src/stm32f10x_i2c.c ****   */
 844:firmware/STM32F10x_StdPeriph_Lib_V3.3.0/Libraries/STM32F10x_StdPeriph_Driver/src/stm32f10x_i2c.c **** void I2C_FastModeDutyCycleConfig(I2C_TypeDef* I2Cx, uint16_t I2C_DutyCycle)
 845:firmware/STM32F10x_StdPeriph_Lib_V3.3.0/Libraries/STM32F10x_StdPeriph_Driver/src/stm32f10x_i2c.c **** {
 1025              		.loc 1 845 0
 1026              		.cfi_startproc
 1027              		@ args = 0, pretend = 0, frame = 0
 1028              		@ frame_needed = 0, uses_anonymous_args = 0
 1029              		@ link register save eliminated.
 1030              	.LVL72:
 846:firmware/STM32F10x_StdPeriph_Lib_V3.3.0/Libraries/STM32F10x_StdPeriph_Driver/src/stm32f10x_i2c.c ****   /* Check the parameters */
 847:firmware/STM32F10x_StdPeriph_Lib_V3.3.0/Libraries/STM32F10x_StdPeriph_Driver/src/stm32f10x_i2c.c ****   assert_param(IS_I2C_ALL_PERIPH(I2Cx));
 848:firmware/STM32F10x_StdPeriph_Lib_V3.3.0/Libraries/STM32F10x_StdPeriph_Driver/src/stm32f10x_i2c.c ****   assert_param(IS_I2C_DUTY_CYCLE(I2C_DutyCycle));
 849:firmware/STM32F10x_StdPeriph_Lib_V3.3.0/Libraries/STM32F10x_StdPeriph_Driver/src/stm32f10x_i2c.c ****   if (I2C_DutyCycle != I2C_DutyCycle_16_9)
 1031              		.loc 1 849 0
 1032 0000 B1F5804F 		cmp	r1, #16384
 1033 0004 05D0     		beq	.L90
 850:firmware/STM32F10x_StdPeriph_Lib_V3.3.0/Libraries/STM32F10x_StdPeriph_Driver/src/stm32f10x_i2c.c ****   {
 851:firmware/STM32F10x_StdPeriph_Lib_V3.3.0/Libraries/STM32F10x_StdPeriph_Driver/src/stm32f10x_i2c.c ****     /* I2C fast mode Tlow/Thigh=2 */
 852:firmware/STM32F10x_StdPeriph_Lib_V3.3.0/Libraries/STM32F10x_StdPeriph_Driver/src/stm32f10x_i2c.c ****     I2Cx->CCR &= I2C_DutyCycle_2;
 1034              		.loc 1 852 0
 1035 0006 838B     		ldrh	r3, [r0, #28]
 1036 0008 23F48043 		bic	r3, r3, #16384
 1037 000c 1B04     		lsls	r3, r3, #16
 1038 000e 1B0C     		lsrs	r3, r3, #16
 1039 0010 03E0     		b	.L92
 1040              	.L90:
 853:firmware/STM32F10x_StdPeriph_Lib_V3.3.0/Libraries/STM32F10x_StdPeriph_Driver/src/stm32f10x_i2c.c ****   }
 854:firmware/STM32F10x_StdPeriph_Lib_V3.3.0/Libraries/STM32F10x_StdPeriph_Driver/src/stm32f10x_i2c.c ****   else
 855:firmware/STM32F10x_StdPeriph_Lib_V3.3.0/Libraries/STM32F10x_StdPeriph_Driver/src/stm32f10x_i2c.c ****   {
 856:firmware/STM32F10x_StdPeriph_Lib_V3.3.0/Libraries/STM32F10x_StdPeriph_Driver/src/stm32f10x_i2c.c ****     /* I2C fast mode Tlow/Thigh=16/9 */
 857:firmware/STM32F10x_StdPeriph_Lib_V3.3.0/Libraries/STM32F10x_StdPeriph_Driver/src/stm32f10x_i2c.c ****     I2Cx->CCR |= I2C_DutyCycle_16_9;
 1041              		.loc 1 857 0
 1042 0012 838B     		ldrh	r3, [r0, #28]
 1043 0014 9BB2     		uxth	r3, r3
 1044 0016 43F48043 		orr	r3, r3, #16384
 1045              	.L92:
 1046 001a 8383     		strh	r3, [r0, #28]	@ movhi
 1047 001c 7047     		bx	lr
 1048              		.cfi_endproc
 1049              	.LFE54:
 1051              		.section	.text.I2C_CheckEvent,"ax",%progbits
 1052              		.align	1
 1053              		.global	I2C_CheckEvent
 1054              		.thumb
 1055              		.thumb_func
 1057              	I2C_CheckEvent:
 1058              	.LFB55:
 858:firmware/STM32F10x_StdPeriph_Lib_V3.3.0/Libraries/STM32F10x_StdPeriph_Driver/src/stm32f10x_i2c.c ****   }
 859:firmware/STM32F10x_StdPeriph_Lib_V3.3.0/Libraries/STM32F10x_StdPeriph_Driver/src/stm32f10x_i2c.c **** }
 860:firmware/STM32F10x_StdPeriph_Lib_V3.3.0/Libraries/STM32F10x_StdPeriph_Driver/src/stm32f10x_i2c.c **** 
 861:firmware/STM32F10x_StdPeriph_Lib_V3.3.0/Libraries/STM32F10x_StdPeriph_Driver/src/stm32f10x_i2c.c **** 
 862:firmware/STM32F10x_StdPeriph_Lib_V3.3.0/Libraries/STM32F10x_StdPeriph_Driver/src/stm32f10x_i2c.c **** 
 863:firmware/STM32F10x_StdPeriph_Lib_V3.3.0/Libraries/STM32F10x_StdPeriph_Driver/src/stm32f10x_i2c.c **** /**
 864:firmware/STM32F10x_StdPeriph_Lib_V3.3.0/Libraries/STM32F10x_StdPeriph_Driver/src/stm32f10x_i2c.c ****  * @brief
 865:firmware/STM32F10x_StdPeriph_Lib_V3.3.0/Libraries/STM32F10x_StdPeriph_Driver/src/stm32f10x_i2c.c ****  ****************************************************************************************
 866:firmware/STM32F10x_StdPeriph_Lib_V3.3.0/Libraries/STM32F10x_StdPeriph_Driver/src/stm32f10x_i2c.c ****  *
 867:firmware/STM32F10x_StdPeriph_Lib_V3.3.0/Libraries/STM32F10x_StdPeriph_Driver/src/stm32f10x_i2c.c ****  *                         I2C State Monitoring Functions
 868:firmware/STM32F10x_StdPeriph_Lib_V3.3.0/Libraries/STM32F10x_StdPeriph_Driver/src/stm32f10x_i2c.c ****  *                       
 869:firmware/STM32F10x_StdPeriph_Lib_V3.3.0/Libraries/STM32F10x_StdPeriph_Driver/src/stm32f10x_i2c.c ****  ****************************************************************************************   
 870:firmware/STM32F10x_StdPeriph_Lib_V3.3.0/Libraries/STM32F10x_StdPeriph_Driver/src/stm32f10x_i2c.c ****  * This I2C driver provides three different ways for I2C state monitoring
 871:firmware/STM32F10x_StdPeriph_Lib_V3.3.0/Libraries/STM32F10x_StdPeriph_Driver/src/stm32f10x_i2c.c ****  *  depending on the application requirements and constraints:
 872:firmware/STM32F10x_StdPeriph_Lib_V3.3.0/Libraries/STM32F10x_StdPeriph_Driver/src/stm32f10x_i2c.c ****  *        
 873:firmware/STM32F10x_StdPeriph_Lib_V3.3.0/Libraries/STM32F10x_StdPeriph_Driver/src/stm32f10x_i2c.c ****  *  
 874:firmware/STM32F10x_StdPeriph_Lib_V3.3.0/Libraries/STM32F10x_StdPeriph_Driver/src/stm32f10x_i2c.c ****  * 1) Basic state monitoring:
 875:firmware/STM32F10x_StdPeriph_Lib_V3.3.0/Libraries/STM32F10x_StdPeriph_Driver/src/stm32f10x_i2c.c ****  *    Using I2C_CheckEvent() function:
 876:firmware/STM32F10x_StdPeriph_Lib_V3.3.0/Libraries/STM32F10x_StdPeriph_Driver/src/stm32f10x_i2c.c ****  *    It compares the status registers (SR1 and SR2) content to a given event
 877:firmware/STM32F10x_StdPeriph_Lib_V3.3.0/Libraries/STM32F10x_StdPeriph_Driver/src/stm32f10x_i2c.c ****  *    (can be the combination of one or more flags).
 878:firmware/STM32F10x_StdPeriph_Lib_V3.3.0/Libraries/STM32F10x_StdPeriph_Driver/src/stm32f10x_i2c.c ****  *    It returns SUCCESS if the current status includes the given flags 
 879:firmware/STM32F10x_StdPeriph_Lib_V3.3.0/Libraries/STM32F10x_StdPeriph_Driver/src/stm32f10x_i2c.c ****  *    and returns ERROR if one or more flags are missing in the current status.
 880:firmware/STM32F10x_StdPeriph_Lib_V3.3.0/Libraries/STM32F10x_StdPeriph_Driver/src/stm32f10x_i2c.c ****  *    - When to use:
 881:firmware/STM32F10x_StdPeriph_Lib_V3.3.0/Libraries/STM32F10x_StdPeriph_Driver/src/stm32f10x_i2c.c ****  *      - This function is suitable for most applciations as well as for startup 
 882:firmware/STM32F10x_StdPeriph_Lib_V3.3.0/Libraries/STM32F10x_StdPeriph_Driver/src/stm32f10x_i2c.c ****  *      activity since the events are fully described in the product reference manual 
 883:firmware/STM32F10x_StdPeriph_Lib_V3.3.0/Libraries/STM32F10x_StdPeriph_Driver/src/stm32f10x_i2c.c ****  *      (RM0008).
 884:firmware/STM32F10x_StdPeriph_Lib_V3.3.0/Libraries/STM32F10x_StdPeriph_Driver/src/stm32f10x_i2c.c ****  *      - It is also suitable for users who need to define their own events.
 885:firmware/STM32F10x_StdPeriph_Lib_V3.3.0/Libraries/STM32F10x_StdPeriph_Driver/src/stm32f10x_i2c.c ****  *    - Limitations:
 886:firmware/STM32F10x_StdPeriph_Lib_V3.3.0/Libraries/STM32F10x_StdPeriph_Driver/src/stm32f10x_i2c.c ****  *      - If an error occurs (ie. error flags are set besides to the monitored flags),
 887:firmware/STM32F10x_StdPeriph_Lib_V3.3.0/Libraries/STM32F10x_StdPeriph_Driver/src/stm32f10x_i2c.c ****  *        the I2C_CheckEvent() function may return SUCCESS despite the communication
 888:firmware/STM32F10x_StdPeriph_Lib_V3.3.0/Libraries/STM32F10x_StdPeriph_Driver/src/stm32f10x_i2c.c ****  *        hold or corrupted real state. 
 889:firmware/STM32F10x_StdPeriph_Lib_V3.3.0/Libraries/STM32F10x_StdPeriph_Driver/src/stm32f10x_i2c.c ****  *        In this case, it is advised to use error interrupts to monitor the error
 890:firmware/STM32F10x_StdPeriph_Lib_V3.3.0/Libraries/STM32F10x_StdPeriph_Driver/src/stm32f10x_i2c.c ****  *        events and handle them in the interrupt IRQ handler.
 891:firmware/STM32F10x_StdPeriph_Lib_V3.3.0/Libraries/STM32F10x_StdPeriph_Driver/src/stm32f10x_i2c.c ****  *        
 892:firmware/STM32F10x_StdPeriph_Lib_V3.3.0/Libraries/STM32F10x_StdPeriph_Driver/src/stm32f10x_i2c.c ****  *        @note 
 893:firmware/STM32F10x_StdPeriph_Lib_V3.3.0/Libraries/STM32F10x_StdPeriph_Driver/src/stm32f10x_i2c.c ****  *        For error management, it is advised to use the following functions:
 894:firmware/STM32F10x_StdPeriph_Lib_V3.3.0/Libraries/STM32F10x_StdPeriph_Driver/src/stm32f10x_i2c.c ****  *          - I2C_ITConfig() to configure and enable the error interrupts (I2C_IT_ERR).
 895:firmware/STM32F10x_StdPeriph_Lib_V3.3.0/Libraries/STM32F10x_StdPeriph_Driver/src/stm32f10x_i2c.c ****  *          - I2Cx_ER_IRQHandler() which is called when the error interurpt occurs.
 896:firmware/STM32F10x_StdPeriph_Lib_V3.3.0/Libraries/STM32F10x_StdPeriph_Driver/src/stm32f10x_i2c.c ****  *            Where x is the peripheral instance (I2C1, I2C2 ...)
 897:firmware/STM32F10x_StdPeriph_Lib_V3.3.0/Libraries/STM32F10x_StdPeriph_Driver/src/stm32f10x_i2c.c ****  *          - I2C_GetFlagStatus() or I2C_GetITStatus() to be called into I2Cx_ER_IRQHandler() 
 898:firmware/STM32F10x_StdPeriph_Lib_V3.3.0/Libraries/STM32F10x_StdPeriph_Driver/src/stm32f10x_i2c.c ****  *            in order to determine which error occured.
 899:firmware/STM32F10x_StdPeriph_Lib_V3.3.0/Libraries/STM32F10x_StdPeriph_Driver/src/stm32f10x_i2c.c ****  *          - I2C_ClearFlag() or I2C_ClearITPendingBit() and/or I2C_SoftwareResetCmd()
 900:firmware/STM32F10x_StdPeriph_Lib_V3.3.0/Libraries/STM32F10x_StdPeriph_Driver/src/stm32f10x_i2c.c ****  *            and/or I2C_GenerateStop() in order to clear the error flag and source,
 901:firmware/STM32F10x_StdPeriph_Lib_V3.3.0/Libraries/STM32F10x_StdPeriph_Driver/src/stm32f10x_i2c.c ****  *            and return to correct communication status.
 902:firmware/STM32F10x_StdPeriph_Lib_V3.3.0/Libraries/STM32F10x_StdPeriph_Driver/src/stm32f10x_i2c.c ****  *            
 903:firmware/STM32F10x_StdPeriph_Lib_V3.3.0/Libraries/STM32F10x_StdPeriph_Driver/src/stm32f10x_i2c.c ****  *
 904:firmware/STM32F10x_StdPeriph_Lib_V3.3.0/Libraries/STM32F10x_StdPeriph_Driver/src/stm32f10x_i2c.c ****  *  2) Advanced state monitoring:
 905:firmware/STM32F10x_StdPeriph_Lib_V3.3.0/Libraries/STM32F10x_StdPeriph_Driver/src/stm32f10x_i2c.c ****  *     Using the function I2C_GetLastEvent() which returns the image of both status 
 906:firmware/STM32F10x_StdPeriph_Lib_V3.3.0/Libraries/STM32F10x_StdPeriph_Driver/src/stm32f10x_i2c.c ****  *     registers in a single word (uint32_t) (Status Register 2 value is shifted left 
 907:firmware/STM32F10x_StdPeriph_Lib_V3.3.0/Libraries/STM32F10x_StdPeriph_Driver/src/stm32f10x_i2c.c ****  *     by 16 bits and concatenated to Status Register 1).
 908:firmware/STM32F10x_StdPeriph_Lib_V3.3.0/Libraries/STM32F10x_StdPeriph_Driver/src/stm32f10x_i2c.c ****  *     - When to use:
 909:firmware/STM32F10x_StdPeriph_Lib_V3.3.0/Libraries/STM32F10x_StdPeriph_Driver/src/stm32f10x_i2c.c ****  *       - This function is suitable for the same applications above but it allows to
 910:firmware/STM32F10x_StdPeriph_Lib_V3.3.0/Libraries/STM32F10x_StdPeriph_Driver/src/stm32f10x_i2c.c ****  *         overcome the mentionned limitation of I2C_GetFlagStatus() function.
 911:firmware/STM32F10x_StdPeriph_Lib_V3.3.0/Libraries/STM32F10x_StdPeriph_Driver/src/stm32f10x_i2c.c ****  *         The returned value could be compared to events already defined in the 
 912:firmware/STM32F10x_StdPeriph_Lib_V3.3.0/Libraries/STM32F10x_StdPeriph_Driver/src/stm32f10x_i2c.c ****  *         library (stm32f10x_i2c.h) or to custom values defiend by user.
 913:firmware/STM32F10x_StdPeriph_Lib_V3.3.0/Libraries/STM32F10x_StdPeriph_Driver/src/stm32f10x_i2c.c ****  *       - This function is suitable when multiple flags are monitored at the same time.
 914:firmware/STM32F10x_StdPeriph_Lib_V3.3.0/Libraries/STM32F10x_StdPeriph_Driver/src/stm32f10x_i2c.c ****  *       - At the opposite of I2C_CheckEvent() function, this function allows user to
 915:firmware/STM32F10x_StdPeriph_Lib_V3.3.0/Libraries/STM32F10x_StdPeriph_Driver/src/stm32f10x_i2c.c ****  *         choose when an event is accepted (when all events flags are set and no 
 916:firmware/STM32F10x_StdPeriph_Lib_V3.3.0/Libraries/STM32F10x_StdPeriph_Driver/src/stm32f10x_i2c.c ****  *         other flags are set or just when the needed flags are set like 
 917:firmware/STM32F10x_StdPeriph_Lib_V3.3.0/Libraries/STM32F10x_StdPeriph_Driver/src/stm32f10x_i2c.c ****  *         I2C_CheckEvent() function).
 918:firmware/STM32F10x_StdPeriph_Lib_V3.3.0/Libraries/STM32F10x_StdPeriph_Driver/src/stm32f10x_i2c.c ****  *     - Limitations:
 919:firmware/STM32F10x_StdPeriph_Lib_V3.3.0/Libraries/STM32F10x_StdPeriph_Driver/src/stm32f10x_i2c.c ****  *       - User may need to define his own events.
 920:firmware/STM32F10x_StdPeriph_Lib_V3.3.0/Libraries/STM32F10x_StdPeriph_Driver/src/stm32f10x_i2c.c ****  *       - Same remark concerning the error management is applicable for this 
 921:firmware/STM32F10x_StdPeriph_Lib_V3.3.0/Libraries/STM32F10x_StdPeriph_Driver/src/stm32f10x_i2c.c ****  *         function if user decides to check only regular communication flags (and 
 922:firmware/STM32F10x_StdPeriph_Lib_V3.3.0/Libraries/STM32F10x_StdPeriph_Driver/src/stm32f10x_i2c.c ****  *         ignores error flags).
 923:firmware/STM32F10x_StdPeriph_Lib_V3.3.0/Libraries/STM32F10x_StdPeriph_Driver/src/stm32f10x_i2c.c ****  *     
 924:firmware/STM32F10x_StdPeriph_Lib_V3.3.0/Libraries/STM32F10x_StdPeriph_Driver/src/stm32f10x_i2c.c ****  *
 925:firmware/STM32F10x_StdPeriph_Lib_V3.3.0/Libraries/STM32F10x_StdPeriph_Driver/src/stm32f10x_i2c.c ****  *  3) Flag-based state monitoring:
 926:firmware/STM32F10x_StdPeriph_Lib_V3.3.0/Libraries/STM32F10x_StdPeriph_Driver/src/stm32f10x_i2c.c ****  *     Using the function I2C_GetFlagStatus() which simply returns the status of 
 927:firmware/STM32F10x_StdPeriph_Lib_V3.3.0/Libraries/STM32F10x_StdPeriph_Driver/src/stm32f10x_i2c.c ****  *     one single flag (ie. I2C_FLAG_RXNE ...). 
 928:firmware/STM32F10x_StdPeriph_Lib_V3.3.0/Libraries/STM32F10x_StdPeriph_Driver/src/stm32f10x_i2c.c ****  *     - When to use:
 929:firmware/STM32F10x_StdPeriph_Lib_V3.3.0/Libraries/STM32F10x_StdPeriph_Driver/src/stm32f10x_i2c.c ****  *        - This function could be used for specific applications or in debug phase.
 930:firmware/STM32F10x_StdPeriph_Lib_V3.3.0/Libraries/STM32F10x_StdPeriph_Driver/src/stm32f10x_i2c.c ****  *        - It is suitable when only one flag checking is needed (most I2C events 
 931:firmware/STM32F10x_StdPeriph_Lib_V3.3.0/Libraries/STM32F10x_StdPeriph_Driver/src/stm32f10x_i2c.c ****  *          are monitored through multiple flags).
 932:firmware/STM32F10x_StdPeriph_Lib_V3.3.0/Libraries/STM32F10x_StdPeriph_Driver/src/stm32f10x_i2c.c ****  *     - Limitations: 
 933:firmware/STM32F10x_StdPeriph_Lib_V3.3.0/Libraries/STM32F10x_StdPeriph_Driver/src/stm32f10x_i2c.c ****  *        - When calling this function, the Status register is accessed. Some flags are
 934:firmware/STM32F10x_StdPeriph_Lib_V3.3.0/Libraries/STM32F10x_StdPeriph_Driver/src/stm32f10x_i2c.c ****  *          cleared when the status register is accessed. So checking the status
 935:firmware/STM32F10x_StdPeriph_Lib_V3.3.0/Libraries/STM32F10x_StdPeriph_Driver/src/stm32f10x_i2c.c ****  *          of one Flag, may clear other ones.
 936:firmware/STM32F10x_StdPeriph_Lib_V3.3.0/Libraries/STM32F10x_StdPeriph_Driver/src/stm32f10x_i2c.c ****  *        - Function may need to be called twice or more in order to monitor one 
 937:firmware/STM32F10x_StdPeriph_Lib_V3.3.0/Libraries/STM32F10x_StdPeriph_Driver/src/stm32f10x_i2c.c ****  *          single event.
 938:firmware/STM32F10x_StdPeriph_Lib_V3.3.0/Libraries/STM32F10x_StdPeriph_Driver/src/stm32f10x_i2c.c ****  *
 939:firmware/STM32F10x_StdPeriph_Lib_V3.3.0/Libraries/STM32F10x_StdPeriph_Driver/src/stm32f10x_i2c.c ****  *  For detailed description of Events, please refer to section I2C_Events in 
 940:firmware/STM32F10x_StdPeriph_Lib_V3.3.0/Libraries/STM32F10x_StdPeriph_Driver/src/stm32f10x_i2c.c ****  *  stm32f10x_i2c.h file.
 941:firmware/STM32F10x_StdPeriph_Lib_V3.3.0/Libraries/STM32F10x_StdPeriph_Driver/src/stm32f10x_i2c.c ****  *  
 942:firmware/STM32F10x_StdPeriph_Lib_V3.3.0/Libraries/STM32F10x_StdPeriph_Driver/src/stm32f10x_i2c.c ****  */
 943:firmware/STM32F10x_StdPeriph_Lib_V3.3.0/Libraries/STM32F10x_StdPeriph_Driver/src/stm32f10x_i2c.c **** 
 944:firmware/STM32F10x_StdPeriph_Lib_V3.3.0/Libraries/STM32F10x_StdPeriph_Driver/src/stm32f10x_i2c.c **** /**
 945:firmware/STM32F10x_StdPeriph_Lib_V3.3.0/Libraries/STM32F10x_StdPeriph_Driver/src/stm32f10x_i2c.c ****  * 
 946:firmware/STM32F10x_StdPeriph_Lib_V3.3.0/Libraries/STM32F10x_StdPeriph_Driver/src/stm32f10x_i2c.c ****  *  1) Basic state monitoring
 947:firmware/STM32F10x_StdPeriph_Lib_V3.3.0/Libraries/STM32F10x_StdPeriph_Driver/src/stm32f10x_i2c.c ****  *******************************************************************************
 948:firmware/STM32F10x_StdPeriph_Lib_V3.3.0/Libraries/STM32F10x_StdPeriph_Driver/src/stm32f10x_i2c.c ****  */
 949:firmware/STM32F10x_StdPeriph_Lib_V3.3.0/Libraries/STM32F10x_StdPeriph_Driver/src/stm32f10x_i2c.c **** 
 950:firmware/STM32F10x_StdPeriph_Lib_V3.3.0/Libraries/STM32F10x_StdPeriph_Driver/src/stm32f10x_i2c.c **** /**
 951:firmware/STM32F10x_StdPeriph_Lib_V3.3.0/Libraries/STM32F10x_StdPeriph_Driver/src/stm32f10x_i2c.c ****   * @brief  Checks whether the last I2Cx Event is equal to the one passed
 952:firmware/STM32F10x_StdPeriph_Lib_V3.3.0/Libraries/STM32F10x_StdPeriph_Driver/src/stm32f10x_i2c.c ****   *   as parameter.
 953:firmware/STM32F10x_StdPeriph_Lib_V3.3.0/Libraries/STM32F10x_StdPeriph_Driver/src/stm32f10x_i2c.c ****   * @param  I2Cx: where x can be 1 or 2 to select the I2C peripheral.
 954:firmware/STM32F10x_StdPeriph_Lib_V3.3.0/Libraries/STM32F10x_StdPeriph_Driver/src/stm32f10x_i2c.c ****   * @param  I2C_EVENT: specifies the event to be checked. 
 955:firmware/STM32F10x_StdPeriph_Lib_V3.3.0/Libraries/STM32F10x_StdPeriph_Driver/src/stm32f10x_i2c.c ****   *   This parameter can be one of the following values:
 956:firmware/STM32F10x_StdPeriph_Lib_V3.3.0/Libraries/STM32F10x_StdPeriph_Driver/src/stm32f10x_i2c.c ****   *     @arg I2C_EVENT_SLAVE_TRANSMITTER_ADDRESS_MATCHED           : EV1
 957:firmware/STM32F10x_StdPeriph_Lib_V3.3.0/Libraries/STM32F10x_StdPeriph_Driver/src/stm32f10x_i2c.c ****   *     @arg I2C_EVENT_SLAVE_RECEIVER_ADDRESS_MATCHED              : EV1
 958:firmware/STM32F10x_StdPeriph_Lib_V3.3.0/Libraries/STM32F10x_StdPeriph_Driver/src/stm32f10x_i2c.c ****   *     @arg I2C_EVENT_SLAVE_TRANSMITTER_SECONDADDRESS_MATCHED     : EV1
 959:firmware/STM32F10x_StdPeriph_Lib_V3.3.0/Libraries/STM32F10x_StdPeriph_Driver/src/stm32f10x_i2c.c ****   *     @arg I2C_EVENT_SLAVE_RECEIVER_SECONDADDRESS_MATCHED        : EV1
 960:firmware/STM32F10x_StdPeriph_Lib_V3.3.0/Libraries/STM32F10x_StdPeriph_Driver/src/stm32f10x_i2c.c ****   *     @arg I2C_EVENT_SLAVE_GENERALCALLADDRESS_MATCHED            : EV1
 961:firmware/STM32F10x_StdPeriph_Lib_V3.3.0/Libraries/STM32F10x_StdPeriph_Driver/src/stm32f10x_i2c.c ****   *     @arg I2C_EVENT_SLAVE_BYTE_RECEIVED                         : EV2
 962:firmware/STM32F10x_StdPeriph_Lib_V3.3.0/Libraries/STM32F10x_StdPeriph_Driver/src/stm32f10x_i2c.c ****   *     @arg (I2C_EVENT_SLAVE_BYTE_RECEIVED | I2C_FLAG_DUALF)      : EV2
 963:firmware/STM32F10x_StdPeriph_Lib_V3.3.0/Libraries/STM32F10x_StdPeriph_Driver/src/stm32f10x_i2c.c ****   *     @arg (I2C_EVENT_SLAVE_BYTE_RECEIVED | I2C_FLAG_GENCALL)    : EV2
 964:firmware/STM32F10x_StdPeriph_Lib_V3.3.0/Libraries/STM32F10x_StdPeriph_Driver/src/stm32f10x_i2c.c ****   *     @arg I2C_EVENT_SLAVE_BYTE_TRANSMITTED                      : EV3
 965:firmware/STM32F10x_StdPeriph_Lib_V3.3.0/Libraries/STM32F10x_StdPeriph_Driver/src/stm32f10x_i2c.c ****   *     @arg (I2C_EVENT_SLAVE_BYTE_TRANSMITTED | I2C_FLAG_DUALF)   : EV3
 966:firmware/STM32F10x_StdPeriph_Lib_V3.3.0/Libraries/STM32F10x_StdPeriph_Driver/src/stm32f10x_i2c.c ****   *     @arg (I2C_EVENT_SLAVE_BYTE_TRANSMITTED | I2C_FLAG_GENCALL) : EV3
 967:firmware/STM32F10x_StdPeriph_Lib_V3.3.0/Libraries/STM32F10x_StdPeriph_Driver/src/stm32f10x_i2c.c ****   *     @arg I2C_EVENT_SLAVE_ACK_FAILURE                           : EV3_2
 968:firmware/STM32F10x_StdPeriph_Lib_V3.3.0/Libraries/STM32F10x_StdPeriph_Driver/src/stm32f10x_i2c.c ****   *     @arg I2C_EVENT_SLAVE_STOP_DETECTED                         : EV4
 969:firmware/STM32F10x_StdPeriph_Lib_V3.3.0/Libraries/STM32F10x_StdPeriph_Driver/src/stm32f10x_i2c.c ****   *     @arg I2C_EVENT_MASTER_MODE_SELECT                          : EV5
 970:firmware/STM32F10x_StdPeriph_Lib_V3.3.0/Libraries/STM32F10x_StdPeriph_Driver/src/stm32f10x_i2c.c ****   *     @arg I2C_EVENT_MASTER_TRANSMITTER_MODE_SELECTED            : EV6     
 971:firmware/STM32F10x_StdPeriph_Lib_V3.3.0/Libraries/STM32F10x_StdPeriph_Driver/src/stm32f10x_i2c.c ****   *     @arg I2C_EVENT_MASTER_RECEIVER_MODE_SELECTED               : EV6
 972:firmware/STM32F10x_StdPeriph_Lib_V3.3.0/Libraries/STM32F10x_StdPeriph_Driver/src/stm32f10x_i2c.c ****   *     @arg I2C_EVENT_MASTER_BYTE_RECEIVED                        : EV7
 973:firmware/STM32F10x_StdPeriph_Lib_V3.3.0/Libraries/STM32F10x_StdPeriph_Driver/src/stm32f10x_i2c.c ****   *     @arg I2C_EVENT_MASTER_BYTE_TRANSMITTING                    : EV8
 974:firmware/STM32F10x_StdPeriph_Lib_V3.3.0/Libraries/STM32F10x_StdPeriph_Driver/src/stm32f10x_i2c.c ****   *     @arg I2C_EVENT_MASTER_BYTE_TRANSMITTED                     : EV8_2
 975:firmware/STM32F10x_StdPeriph_Lib_V3.3.0/Libraries/STM32F10x_StdPeriph_Driver/src/stm32f10x_i2c.c ****   *     @arg I2C_EVENT_MASTER_MODE_ADDRESS10                       : EV9
 976:firmware/STM32F10x_StdPeriph_Lib_V3.3.0/Libraries/STM32F10x_StdPeriph_Driver/src/stm32f10x_i2c.c ****   *     
 977:firmware/STM32F10x_StdPeriph_Lib_V3.3.0/Libraries/STM32F10x_StdPeriph_Driver/src/stm32f10x_i2c.c ****   * @note: For detailed description of Events, please refer to section 
 978:firmware/STM32F10x_StdPeriph_Lib_V3.3.0/Libraries/STM32F10x_StdPeriph_Driver/src/stm32f10x_i2c.c ****   *    I2C_Events in stm32f10x_i2c.h file.
 979:firmware/STM32F10x_StdPeriph_Lib_V3.3.0/Libraries/STM32F10x_StdPeriph_Driver/src/stm32f10x_i2c.c ****   *    
 980:firmware/STM32F10x_StdPeriph_Lib_V3.3.0/Libraries/STM32F10x_StdPeriph_Driver/src/stm32f10x_i2c.c ****   * @retval An ErrorStatus enumuration value:
 981:firmware/STM32F10x_StdPeriph_Lib_V3.3.0/Libraries/STM32F10x_StdPeriph_Driver/src/stm32f10x_i2c.c ****   * - SUCCESS: Last event is equal to the I2C_EVENT
 982:firmware/STM32F10x_StdPeriph_Lib_V3.3.0/Libraries/STM32F10x_StdPeriph_Driver/src/stm32f10x_i2c.c ****   * - ERROR: Last event is different from the I2C_EVENT
 983:firmware/STM32F10x_StdPeriph_Lib_V3.3.0/Libraries/STM32F10x_StdPeriph_Driver/src/stm32f10x_i2c.c ****   */
 984:firmware/STM32F10x_StdPeriph_Lib_V3.3.0/Libraries/STM32F10x_StdPeriph_Driver/src/stm32f10x_i2c.c **** ErrorStatus I2C_CheckEvent(I2C_TypeDef* I2Cx, uint32_t I2C_EVENT)
 985:firmware/STM32F10x_StdPeriph_Lib_V3.3.0/Libraries/STM32F10x_StdPeriph_Driver/src/stm32f10x_i2c.c **** {
 1059              		.loc 1 985 0
 1060              		.cfi_startproc
 1061              		@ args = 0, pretend = 0, frame = 0
 1062              		@ frame_needed = 0, uses_anonymous_args = 0
 1063              		@ link register save eliminated.
 1064              	.LVL73:
 986:firmware/STM32F10x_StdPeriph_Lib_V3.3.0/Libraries/STM32F10x_StdPeriph_Driver/src/stm32f10x_i2c.c ****   uint32_t lastevent = 0;
 987:firmware/STM32F10x_StdPeriph_Lib_V3.3.0/Libraries/STM32F10x_StdPeriph_Driver/src/stm32f10x_i2c.c ****   uint32_t flag1 = 0, flag2 = 0;
 988:firmware/STM32F10x_StdPeriph_Lib_V3.3.0/Libraries/STM32F10x_StdPeriph_Driver/src/stm32f10x_i2c.c ****   ErrorStatus status = ERROR;
 989:firmware/STM32F10x_StdPeriph_Lib_V3.3.0/Libraries/STM32F10x_StdPeriph_Driver/src/stm32f10x_i2c.c **** 
 990:firmware/STM32F10x_StdPeriph_Lib_V3.3.0/Libraries/STM32F10x_StdPeriph_Driver/src/stm32f10x_i2c.c ****   /* Check the parameters */
 991:firmware/STM32F10x_StdPeriph_Lib_V3.3.0/Libraries/STM32F10x_StdPeriph_Driver/src/stm32f10x_i2c.c ****   assert_param(IS_I2C_ALL_PERIPH(I2Cx));
 992:firmware/STM32F10x_StdPeriph_Lib_V3.3.0/Libraries/STM32F10x_StdPeriph_Driver/src/stm32f10x_i2c.c ****   assert_param(IS_I2C_EVENT(I2C_EVENT));
 993:firmware/STM32F10x_StdPeriph_Lib_V3.3.0/Libraries/STM32F10x_StdPeriph_Driver/src/stm32f10x_i2c.c **** 
 994:firmware/STM32F10x_StdPeriph_Lib_V3.3.0/Libraries/STM32F10x_StdPeriph_Driver/src/stm32f10x_i2c.c ****   /* Read the I2Cx status register */
 995:firmware/STM32F10x_StdPeriph_Lib_V3.3.0/Libraries/STM32F10x_StdPeriph_Driver/src/stm32f10x_i2c.c ****   flag1 = I2Cx->SR1;
 1065              		.loc 1 995 0
 1066 0000 838A     		ldrh	r3, [r0, #20]
 996:firmware/STM32F10x_StdPeriph_Lib_V3.3.0/Libraries/STM32F10x_StdPeriph_Driver/src/stm32f10x_i2c.c ****   flag2 = I2Cx->SR2;
 1067              		.loc 1 996 0
 1068 0002 008B     		ldrh	r0, [r0, #24]
 1069              	.LVL74:
 995:firmware/STM32F10x_StdPeriph_Lib_V3.3.0/Libraries/STM32F10x_StdPeriph_Driver/src/stm32f10x_i2c.c ****   flag1 = I2Cx->SR1;
 1070              		.loc 1 995 0
 1071 0004 9BB2     		uxth	r3, r3
 1072              	.LVL75:
 997:firmware/STM32F10x_StdPeriph_Lib_V3.3.0/Libraries/STM32F10x_StdPeriph_Driver/src/stm32f10x_i2c.c ****   flag2 = flag2 << 16;
 998:firmware/STM32F10x_StdPeriph_Lib_V3.3.0/Libraries/STM32F10x_StdPeriph_Driver/src/stm32f10x_i2c.c **** 
 999:firmware/STM32F10x_StdPeriph_Lib_V3.3.0/Libraries/STM32F10x_StdPeriph_Driver/src/stm32f10x_i2c.c ****   /* Get the last event value from I2C status register */
1000:firmware/STM32F10x_StdPeriph_Lib_V3.3.0/Libraries/STM32F10x_StdPeriph_Driver/src/stm32f10x_i2c.c ****   lastevent = (flag1 | flag2) & FLAG_Mask;
 1073              		.loc 1 1000 0
 1074 0006 43EA0040 		orr	r0, r3, r0, lsl #16
 1075              	.LVL76:
 1076 000a 0840     		ands	r0, r0, r1
1001:firmware/STM32F10x_StdPeriph_Lib_V3.3.0/Libraries/STM32F10x_StdPeriph_Driver/src/stm32f10x_i2c.c **** 
1002:firmware/STM32F10x_StdPeriph_Lib_V3.3.0/Libraries/STM32F10x_StdPeriph_Driver/src/stm32f10x_i2c.c ****   /* Check whether the last event contains the I2C_EVENT */
1003:firmware/STM32F10x_StdPeriph_Lib_V3.3.0/Libraries/STM32F10x_StdPeriph_Driver/src/stm32f10x_i2c.c ****   if ((lastevent & I2C_EVENT) == I2C_EVENT)
 1077              		.loc 1 1003 0
 1078 000c 20F07F40 		bic	r0, r0, #-16777216
1004:firmware/STM32F10x_StdPeriph_Lib_V3.3.0/Libraries/STM32F10x_StdPeriph_Driver/src/stm32f10x_i2c.c ****   {
1005:firmware/STM32F10x_StdPeriph_Lib_V3.3.0/Libraries/STM32F10x_StdPeriph_Driver/src/stm32f10x_i2c.c ****     /* SUCCESS: last event is equal to I2C_EVENT */
1006:firmware/STM32F10x_StdPeriph_Lib_V3.3.0/Libraries/STM32F10x_StdPeriph_Driver/src/stm32f10x_i2c.c ****     status = SUCCESS;
1007:firmware/STM32F10x_StdPeriph_Lib_V3.3.0/Libraries/STM32F10x_StdPeriph_Driver/src/stm32f10x_i2c.c ****   }
1008:firmware/STM32F10x_StdPeriph_Lib_V3.3.0/Libraries/STM32F10x_StdPeriph_Driver/src/stm32f10x_i2c.c ****   else
1009:firmware/STM32F10x_StdPeriph_Lib_V3.3.0/Libraries/STM32F10x_StdPeriph_Driver/src/stm32f10x_i2c.c ****   {
1010:firmware/STM32F10x_StdPeriph_Lib_V3.3.0/Libraries/STM32F10x_StdPeriph_Driver/src/stm32f10x_i2c.c ****     /* ERROR: last event is different from I2C_EVENT */
1011:firmware/STM32F10x_StdPeriph_Lib_V3.3.0/Libraries/STM32F10x_StdPeriph_Driver/src/stm32f10x_i2c.c ****     status = ERROR;
1012:firmware/STM32F10x_StdPeriph_Lib_V3.3.0/Libraries/STM32F10x_StdPeriph_Driver/src/stm32f10x_i2c.c ****   }
1013:firmware/STM32F10x_StdPeriph_Lib_V3.3.0/Libraries/STM32F10x_StdPeriph_Driver/src/stm32f10x_i2c.c ****   /* Return status */
1014:firmware/STM32F10x_StdPeriph_Lib_V3.3.0/Libraries/STM32F10x_StdPeriph_Driver/src/stm32f10x_i2c.c ****   return status;
1015:firmware/STM32F10x_StdPeriph_Lib_V3.3.0/Libraries/STM32F10x_StdPeriph_Driver/src/stm32f10x_i2c.c **** }
 1079              		.loc 1 1015 0
 1080 0010 431A     		subs	r3, r0, r1
 1081              	.LVL77:
 1082 0012 5842     		rsbs	r0, r3, #0
 1083 0014 40EB0300 		adc	r0, r0, r3
 1084 0018 7047     		bx	lr
 1085              		.cfi_endproc
 1086              	.LFE55:
 1088              		.section	.text.I2C_GetLastEvent,"ax",%progbits
 1089              		.align	1
 1090              		.global	I2C_GetLastEvent
 1091              		.thumb
 1092              		.thumb_func
 1094              	I2C_GetLastEvent:
 1095              	.LFB56:
1016:firmware/STM32F10x_StdPeriph_Lib_V3.3.0/Libraries/STM32F10x_StdPeriph_Driver/src/stm32f10x_i2c.c **** 
1017:firmware/STM32F10x_StdPeriph_Lib_V3.3.0/Libraries/STM32F10x_StdPeriph_Driver/src/stm32f10x_i2c.c **** /**
1018:firmware/STM32F10x_StdPeriph_Lib_V3.3.0/Libraries/STM32F10x_StdPeriph_Driver/src/stm32f10x_i2c.c ****  * 
1019:firmware/STM32F10x_StdPeriph_Lib_V3.3.0/Libraries/STM32F10x_StdPeriph_Driver/src/stm32f10x_i2c.c ****  *  2) Advanced state monitoring
1020:firmware/STM32F10x_StdPeriph_Lib_V3.3.0/Libraries/STM32F10x_StdPeriph_Driver/src/stm32f10x_i2c.c ****  *******************************************************************************
1021:firmware/STM32F10x_StdPeriph_Lib_V3.3.0/Libraries/STM32F10x_StdPeriph_Driver/src/stm32f10x_i2c.c ****  */
1022:firmware/STM32F10x_StdPeriph_Lib_V3.3.0/Libraries/STM32F10x_StdPeriph_Driver/src/stm32f10x_i2c.c **** 
1023:firmware/STM32F10x_StdPeriph_Lib_V3.3.0/Libraries/STM32F10x_StdPeriph_Driver/src/stm32f10x_i2c.c **** /**
1024:firmware/STM32F10x_StdPeriph_Lib_V3.3.0/Libraries/STM32F10x_StdPeriph_Driver/src/stm32f10x_i2c.c ****   * @brief  Returns the last I2Cx Event.
1025:firmware/STM32F10x_StdPeriph_Lib_V3.3.0/Libraries/STM32F10x_StdPeriph_Driver/src/stm32f10x_i2c.c ****   * @param  I2Cx: where x can be 1 or 2 to select the I2C peripheral.
1026:firmware/STM32F10x_StdPeriph_Lib_V3.3.0/Libraries/STM32F10x_StdPeriph_Driver/src/stm32f10x_i2c.c ****   *     
1027:firmware/STM32F10x_StdPeriph_Lib_V3.3.0/Libraries/STM32F10x_StdPeriph_Driver/src/stm32f10x_i2c.c ****   * @note: For detailed description of Events, please refer to section 
1028:firmware/STM32F10x_StdPeriph_Lib_V3.3.0/Libraries/STM32F10x_StdPeriph_Driver/src/stm32f10x_i2c.c ****   *    I2C_Events in stm32f10x_i2c.h file.
1029:firmware/STM32F10x_StdPeriph_Lib_V3.3.0/Libraries/STM32F10x_StdPeriph_Driver/src/stm32f10x_i2c.c ****   *    
1030:firmware/STM32F10x_StdPeriph_Lib_V3.3.0/Libraries/STM32F10x_StdPeriph_Driver/src/stm32f10x_i2c.c ****   * @retval The last event
1031:firmware/STM32F10x_StdPeriph_Lib_V3.3.0/Libraries/STM32F10x_StdPeriph_Driver/src/stm32f10x_i2c.c ****   */
1032:firmware/STM32F10x_StdPeriph_Lib_V3.3.0/Libraries/STM32F10x_StdPeriph_Driver/src/stm32f10x_i2c.c **** uint32_t I2C_GetLastEvent(I2C_TypeDef* I2Cx)
1033:firmware/STM32F10x_StdPeriph_Lib_V3.3.0/Libraries/STM32F10x_StdPeriph_Driver/src/stm32f10x_i2c.c **** {
 1096              		.loc 1 1033 0
 1097              		.cfi_startproc
 1098              		@ args = 0, pretend = 0, frame = 0
 1099              		@ frame_needed = 0, uses_anonymous_args = 0
 1100              		@ link register save eliminated.
 1101              	.LVL78:
1034:firmware/STM32F10x_StdPeriph_Lib_V3.3.0/Libraries/STM32F10x_StdPeriph_Driver/src/stm32f10x_i2c.c ****   uint32_t lastevent = 0;
1035:firmware/STM32F10x_StdPeriph_Lib_V3.3.0/Libraries/STM32F10x_StdPeriph_Driver/src/stm32f10x_i2c.c ****   uint32_t flag1 = 0, flag2 = 0;
1036:firmware/STM32F10x_StdPeriph_Lib_V3.3.0/Libraries/STM32F10x_StdPeriph_Driver/src/stm32f10x_i2c.c **** 
1037:firmware/STM32F10x_StdPeriph_Lib_V3.3.0/Libraries/STM32F10x_StdPeriph_Driver/src/stm32f10x_i2c.c ****   /* Check the parameters */
1038:firmware/STM32F10x_StdPeriph_Lib_V3.3.0/Libraries/STM32F10x_StdPeriph_Driver/src/stm32f10x_i2c.c ****   assert_param(IS_I2C_ALL_PERIPH(I2Cx));
1039:firmware/STM32F10x_StdPeriph_Lib_V3.3.0/Libraries/STM32F10x_StdPeriph_Driver/src/stm32f10x_i2c.c **** 
1040:firmware/STM32F10x_StdPeriph_Lib_V3.3.0/Libraries/STM32F10x_StdPeriph_Driver/src/stm32f10x_i2c.c ****   /* Read the I2Cx status register */
1041:firmware/STM32F10x_StdPeriph_Lib_V3.3.0/Libraries/STM32F10x_StdPeriph_Driver/src/stm32f10x_i2c.c ****   flag1 = I2Cx->SR1;
 1102              		.loc 1 1041 0
 1103 0000 838A     		ldrh	r3, [r0, #20]
1042:firmware/STM32F10x_StdPeriph_Lib_V3.3.0/Libraries/STM32F10x_StdPeriph_Driver/src/stm32f10x_i2c.c ****   flag2 = I2Cx->SR2;
 1104              		.loc 1 1042 0
 1105 0002 008B     		ldrh	r0, [r0, #24]
 1106              	.LVL79:
1041:firmware/STM32F10x_StdPeriph_Lib_V3.3.0/Libraries/STM32F10x_StdPeriph_Driver/src/stm32f10x_i2c.c ****   flag1 = I2Cx->SR1;
 1107              		.loc 1 1041 0
 1108 0004 9BB2     		uxth	r3, r3
 1109              	.LVL80:
1043:firmware/STM32F10x_StdPeriph_Lib_V3.3.0/Libraries/STM32F10x_StdPeriph_Driver/src/stm32f10x_i2c.c ****   flag2 = flag2 << 16;
1044:firmware/STM32F10x_StdPeriph_Lib_V3.3.0/Libraries/STM32F10x_StdPeriph_Driver/src/stm32f10x_i2c.c **** 
1045:firmware/STM32F10x_StdPeriph_Lib_V3.3.0/Libraries/STM32F10x_StdPeriph_Driver/src/stm32f10x_i2c.c ****   /* Get the last event value from I2C status register */
1046:firmware/STM32F10x_StdPeriph_Lib_V3.3.0/Libraries/STM32F10x_StdPeriph_Driver/src/stm32f10x_i2c.c ****   lastevent = (flag1 | flag2) & FLAG_Mask;
 1110              		.loc 1 1046 0
 1111 0006 43EA0040 		orr	r0, r3, r0, lsl #16
 1112              	.LVL81:
1047:firmware/STM32F10x_StdPeriph_Lib_V3.3.0/Libraries/STM32F10x_StdPeriph_Driver/src/stm32f10x_i2c.c **** 
1048:firmware/STM32F10x_StdPeriph_Lib_V3.3.0/Libraries/STM32F10x_StdPeriph_Driver/src/stm32f10x_i2c.c ****   /* Return status */
1049:firmware/STM32F10x_StdPeriph_Lib_V3.3.0/Libraries/STM32F10x_StdPeriph_Driver/src/stm32f10x_i2c.c ****   return lastevent;
1050:firmware/STM32F10x_StdPeriph_Lib_V3.3.0/Libraries/STM32F10x_StdPeriph_Driver/src/stm32f10x_i2c.c **** }
 1113              		.loc 1 1050 0
 1114 000a 20F07F40 		bic	r0, r0, #-16777216
 1115 000e 7047     		bx	lr
 1116              		.cfi_endproc
 1117              	.LFE56:
 1119              		.section	.text.I2C_GetFlagStatus,"ax",%progbits
 1120              		.align	1
 1121              		.global	I2C_GetFlagStatus
 1122              		.thumb
 1123              		.thumb_func
 1125              	I2C_GetFlagStatus:
 1126              	.LFB57:
1051:firmware/STM32F10x_StdPeriph_Lib_V3.3.0/Libraries/STM32F10x_StdPeriph_Driver/src/stm32f10x_i2c.c **** 
1052:firmware/STM32F10x_StdPeriph_Lib_V3.3.0/Libraries/STM32F10x_StdPeriph_Driver/src/stm32f10x_i2c.c **** /**
1053:firmware/STM32F10x_StdPeriph_Lib_V3.3.0/Libraries/STM32F10x_StdPeriph_Driver/src/stm32f10x_i2c.c ****  * 
1054:firmware/STM32F10x_StdPeriph_Lib_V3.3.0/Libraries/STM32F10x_StdPeriph_Driver/src/stm32f10x_i2c.c ****  *  3) Flag-based state monitoring
1055:firmware/STM32F10x_StdPeriph_Lib_V3.3.0/Libraries/STM32F10x_StdPeriph_Driver/src/stm32f10x_i2c.c ****  *******************************************************************************
1056:firmware/STM32F10x_StdPeriph_Lib_V3.3.0/Libraries/STM32F10x_StdPeriph_Driver/src/stm32f10x_i2c.c ****  */
1057:firmware/STM32F10x_StdPeriph_Lib_V3.3.0/Libraries/STM32F10x_StdPeriph_Driver/src/stm32f10x_i2c.c **** 
1058:firmware/STM32F10x_StdPeriph_Lib_V3.3.0/Libraries/STM32F10x_StdPeriph_Driver/src/stm32f10x_i2c.c **** /**
1059:firmware/STM32F10x_StdPeriph_Lib_V3.3.0/Libraries/STM32F10x_StdPeriph_Driver/src/stm32f10x_i2c.c ****   * @brief  Checks whether the specified I2C flag is set or not.
1060:firmware/STM32F10x_StdPeriph_Lib_V3.3.0/Libraries/STM32F10x_StdPeriph_Driver/src/stm32f10x_i2c.c ****   * @param  I2Cx: where x can be 1 or 2 to select the I2C peripheral.
1061:firmware/STM32F10x_StdPeriph_Lib_V3.3.0/Libraries/STM32F10x_StdPeriph_Driver/src/stm32f10x_i2c.c ****   * @param  I2C_FLAG: specifies the flag to check. 
1062:firmware/STM32F10x_StdPeriph_Lib_V3.3.0/Libraries/STM32F10x_StdPeriph_Driver/src/stm32f10x_i2c.c ****   *   This parameter can be one of the following values:
1063:firmware/STM32F10x_StdPeriph_Lib_V3.3.0/Libraries/STM32F10x_StdPeriph_Driver/src/stm32f10x_i2c.c ****   *     @arg I2C_FLAG_DUALF: Dual flag (Slave mode)
1064:firmware/STM32F10x_StdPeriph_Lib_V3.3.0/Libraries/STM32F10x_StdPeriph_Driver/src/stm32f10x_i2c.c ****   *     @arg I2C_FLAG_SMBHOST: SMBus host header (Slave mode)
1065:firmware/STM32F10x_StdPeriph_Lib_V3.3.0/Libraries/STM32F10x_StdPeriph_Driver/src/stm32f10x_i2c.c ****   *     @arg I2C_FLAG_SMBDEFAULT: SMBus default header (Slave mode)
1066:firmware/STM32F10x_StdPeriph_Lib_V3.3.0/Libraries/STM32F10x_StdPeriph_Driver/src/stm32f10x_i2c.c ****   *     @arg I2C_FLAG_GENCALL: General call header flag (Slave mode)
1067:firmware/STM32F10x_StdPeriph_Lib_V3.3.0/Libraries/STM32F10x_StdPeriph_Driver/src/stm32f10x_i2c.c ****   *     @arg I2C_FLAG_TRA: Transmitter/Receiver flag
1068:firmware/STM32F10x_StdPeriph_Lib_V3.3.0/Libraries/STM32F10x_StdPeriph_Driver/src/stm32f10x_i2c.c ****   *     @arg I2C_FLAG_BUSY: Bus busy flag
1069:firmware/STM32F10x_StdPeriph_Lib_V3.3.0/Libraries/STM32F10x_StdPeriph_Driver/src/stm32f10x_i2c.c ****   *     @arg I2C_FLAG_MSL: Master/Slave flag
1070:firmware/STM32F10x_StdPeriph_Lib_V3.3.0/Libraries/STM32F10x_StdPeriph_Driver/src/stm32f10x_i2c.c ****   *     @arg I2C_FLAG_SMBALERT: SMBus Alert flag
1071:firmware/STM32F10x_StdPeriph_Lib_V3.3.0/Libraries/STM32F10x_StdPeriph_Driver/src/stm32f10x_i2c.c ****   *     @arg I2C_FLAG_TIMEOUT: Timeout or Tlow error flag
1072:firmware/STM32F10x_StdPeriph_Lib_V3.3.0/Libraries/STM32F10x_StdPeriph_Driver/src/stm32f10x_i2c.c ****   *     @arg I2C_FLAG_PECERR: PEC error in reception flag
1073:firmware/STM32F10x_StdPeriph_Lib_V3.3.0/Libraries/STM32F10x_StdPeriph_Driver/src/stm32f10x_i2c.c ****   *     @arg I2C_FLAG_OVR: Overrun/Underrun flag (Slave mode)
1074:firmware/STM32F10x_StdPeriph_Lib_V3.3.0/Libraries/STM32F10x_StdPeriph_Driver/src/stm32f10x_i2c.c ****   *     @arg I2C_FLAG_AF: Acknowledge failure flag
1075:firmware/STM32F10x_StdPeriph_Lib_V3.3.0/Libraries/STM32F10x_StdPeriph_Driver/src/stm32f10x_i2c.c ****   *     @arg I2C_FLAG_ARLO: Arbitration lost flag (Master mode)
1076:firmware/STM32F10x_StdPeriph_Lib_V3.3.0/Libraries/STM32F10x_StdPeriph_Driver/src/stm32f10x_i2c.c ****   *     @arg I2C_FLAG_BERR: Bus error flag
1077:firmware/STM32F10x_StdPeriph_Lib_V3.3.0/Libraries/STM32F10x_StdPeriph_Driver/src/stm32f10x_i2c.c ****   *     @arg I2C_FLAG_TXE: Data register empty flag (Transmitter)
1078:firmware/STM32F10x_StdPeriph_Lib_V3.3.0/Libraries/STM32F10x_StdPeriph_Driver/src/stm32f10x_i2c.c ****   *     @arg I2C_FLAG_RXNE: Data register not empty (Receiver) flag
1079:firmware/STM32F10x_StdPeriph_Lib_V3.3.0/Libraries/STM32F10x_StdPeriph_Driver/src/stm32f10x_i2c.c ****   *     @arg I2C_FLAG_STOPF: Stop detection flag (Slave mode)
1080:firmware/STM32F10x_StdPeriph_Lib_V3.3.0/Libraries/STM32F10x_StdPeriph_Driver/src/stm32f10x_i2c.c ****   *     @arg I2C_FLAG_ADD10: 10-bit header sent flag (Master mode)
1081:firmware/STM32F10x_StdPeriph_Lib_V3.3.0/Libraries/STM32F10x_StdPeriph_Driver/src/stm32f10x_i2c.c ****   *     @arg I2C_FLAG_BTF: Byte transfer finished flag
1082:firmware/STM32F10x_StdPeriph_Lib_V3.3.0/Libraries/STM32F10x_StdPeriph_Driver/src/stm32f10x_i2c.c ****   *     @arg I2C_FLAG_ADDR: Address sent flag (Master mode) ADSL
1083:firmware/STM32F10x_StdPeriph_Lib_V3.3.0/Libraries/STM32F10x_StdPeriph_Driver/src/stm32f10x_i2c.c ****   *   Address matched flag (Slave mode)ENDAD
1084:firmware/STM32F10x_StdPeriph_Lib_V3.3.0/Libraries/STM32F10x_StdPeriph_Driver/src/stm32f10x_i2c.c ****   *     @arg I2C_FLAG_SB: Start bit flag (Master mode)
1085:firmware/STM32F10x_StdPeriph_Lib_V3.3.0/Libraries/STM32F10x_StdPeriph_Driver/src/stm32f10x_i2c.c ****   * @retval The new state of I2C_FLAG (SET or RESET).
1086:firmware/STM32F10x_StdPeriph_Lib_V3.3.0/Libraries/STM32F10x_StdPeriph_Driver/src/stm32f10x_i2c.c ****   */
1087:firmware/STM32F10x_StdPeriph_Lib_V3.3.0/Libraries/STM32F10x_StdPeriph_Driver/src/stm32f10x_i2c.c **** FlagStatus I2C_GetFlagStatus(I2C_TypeDef* I2Cx, uint32_t I2C_FLAG)
1088:firmware/STM32F10x_StdPeriph_Lib_V3.3.0/Libraries/STM32F10x_StdPeriph_Driver/src/stm32f10x_i2c.c **** {
 1127              		.loc 1 1088 0
 1128              		.cfi_startproc
 1129              		@ args = 0, pretend = 0, frame = 8
 1130              		@ frame_needed = 0, uses_anonymous_args = 0
 1131              		@ link register save eliminated.
 1132              	.LVL82:
 1133 0000 82B0     		sub	sp, sp, #8
 1134              	.LCFI4:
 1135              		.cfi_def_cfa_offset 8
1089:firmware/STM32F10x_StdPeriph_Lib_V3.3.0/Libraries/STM32F10x_StdPeriph_Driver/src/stm32f10x_i2c.c ****   FlagStatus bitstatus = RESET;
1090:firmware/STM32F10x_StdPeriph_Lib_V3.3.0/Libraries/STM32F10x_StdPeriph_Driver/src/stm32f10x_i2c.c ****   __IO uint32_t i2creg = 0, i2cxbase = 0;
 1136              		.loc 1 1090 0
 1137 0002 0023     		movs	r3, #0
 1138 0004 0193     		str	r3, [sp, #4]
 1139              	.LVL83:
 1140 0006 0093     		str	r3, [sp, #0]
 1141              	.LVL84:
1091:firmware/STM32F10x_StdPeriph_Lib_V3.3.0/Libraries/STM32F10x_StdPeriph_Driver/src/stm32f10x_i2c.c **** 
1092:firmware/STM32F10x_StdPeriph_Lib_V3.3.0/Libraries/STM32F10x_StdPeriph_Driver/src/stm32f10x_i2c.c ****   /* Check the parameters */
1093:firmware/STM32F10x_StdPeriph_Lib_V3.3.0/Libraries/STM32F10x_StdPeriph_Driver/src/stm32f10x_i2c.c ****   assert_param(IS_I2C_ALL_PERIPH(I2Cx));
1094:firmware/STM32F10x_StdPeriph_Lib_V3.3.0/Libraries/STM32F10x_StdPeriph_Driver/src/stm32f10x_i2c.c ****   assert_param(IS_I2C_GET_FLAG(I2C_FLAG));
1095:firmware/STM32F10x_StdPeriph_Lib_V3.3.0/Libraries/STM32F10x_StdPeriph_Driver/src/stm32f10x_i2c.c **** 
1096:firmware/STM32F10x_StdPeriph_Lib_V3.3.0/Libraries/STM32F10x_StdPeriph_Driver/src/stm32f10x_i2c.c ****   /* Get the I2Cx peripheral base address */
1097:firmware/STM32F10x_StdPeriph_Lib_V3.3.0/Libraries/STM32F10x_StdPeriph_Driver/src/stm32f10x_i2c.c ****   i2cxbase = (uint32_t)I2Cx;
1098:firmware/STM32F10x_StdPeriph_Lib_V3.3.0/Libraries/STM32F10x_StdPeriph_Driver/src/stm32f10x_i2c.c ****   
1099:firmware/STM32F10x_StdPeriph_Lib_V3.3.0/Libraries/STM32F10x_StdPeriph_Driver/src/stm32f10x_i2c.c ****   /* Read flag register index */
1100:firmware/STM32F10x_StdPeriph_Lib_V3.3.0/Libraries/STM32F10x_StdPeriph_Driver/src/stm32f10x_i2c.c ****   i2creg = I2C_FLAG >> 28;
 1142              		.loc 1 1100 0
 1143 0008 0B0F     		lsrs	r3, r1, #28
 1144              	.LVL85:
1097:firmware/STM32F10x_StdPeriph_Lib_V3.3.0/Libraries/STM32F10x_StdPeriph_Driver/src/stm32f10x_i2c.c ****   i2cxbase = (uint32_t)I2Cx;
 1145              		.loc 1 1097 0
 1146 000a 0090     		str	r0, [sp, #0]
 1147              		.loc 1 1100 0
 1148 000c 0193     		str	r3, [sp, #4]
 1149              	.LVL86:
1101:firmware/STM32F10x_StdPeriph_Lib_V3.3.0/Libraries/STM32F10x_StdPeriph_Driver/src/stm32f10x_i2c.c ****   
1102:firmware/STM32F10x_StdPeriph_Lib_V3.3.0/Libraries/STM32F10x_StdPeriph_Driver/src/stm32f10x_i2c.c ****   /* Get bit[23:0] of the flag */
1103:firmware/STM32F10x_StdPeriph_Lib_V3.3.0/Libraries/STM32F10x_StdPeriph_Driver/src/stm32f10x_i2c.c ****   I2C_FLAG &= FLAG_Mask;
1104:firmware/STM32F10x_StdPeriph_Lib_V3.3.0/Libraries/STM32F10x_StdPeriph_Driver/src/stm32f10x_i2c.c ****   
1105:firmware/STM32F10x_StdPeriph_Lib_V3.3.0/Libraries/STM32F10x_StdPeriph_Driver/src/stm32f10x_i2c.c ****   if(i2creg != 0)
 1150              		.loc 1 1105 0
 1151 000e 019B     		ldr	r3, [sp, #4]
 1152              	.LVL87:
1103:firmware/STM32F10x_StdPeriph_Lib_V3.3.0/Libraries/STM32F10x_StdPeriph_Driver/src/stm32f10x_i2c.c ****   I2C_FLAG &= FLAG_Mask;
 1153              		.loc 1 1103 0
 1154 0010 21F07F41 		bic	r1, r1, #-16777216
 1155              	.LVL88:
 1156              		.loc 1 1105 0
 1157 0014 13B1     		cbz	r3, .L96
1106:firmware/STM32F10x_StdPeriph_Lib_V3.3.0/Libraries/STM32F10x_StdPeriph_Driver/src/stm32f10x_i2c.c ****   {
1107:firmware/STM32F10x_StdPeriph_Lib_V3.3.0/Libraries/STM32F10x_StdPeriph_Driver/src/stm32f10x_i2c.c ****     /* Get the I2Cx SR1 register address */
1108:firmware/STM32F10x_StdPeriph_Lib_V3.3.0/Libraries/STM32F10x_StdPeriph_Driver/src/stm32f10x_i2c.c ****     i2cxbase += 0x14;
 1158              		.loc 1 1108 0
 1159 0016 009B     		ldr	r3, [sp, #0]
 1160 0018 1433     		adds	r3, r3, #20
 1161              	.LVL89:
 1162 001a 02E0     		b	.L98
 1163              	.LVL90:
 1164              	.L96:
1109:firmware/STM32F10x_StdPeriph_Lib_V3.3.0/Libraries/STM32F10x_StdPeriph_Driver/src/stm32f10x_i2c.c ****   }
1110:firmware/STM32F10x_StdPeriph_Lib_V3.3.0/Libraries/STM32F10x_StdPeriph_Driver/src/stm32f10x_i2c.c ****   else
1111:firmware/STM32F10x_StdPeriph_Lib_V3.3.0/Libraries/STM32F10x_StdPeriph_Driver/src/stm32f10x_i2c.c ****   {
1112:firmware/STM32F10x_StdPeriph_Lib_V3.3.0/Libraries/STM32F10x_StdPeriph_Driver/src/stm32f10x_i2c.c ****     /* Flag in I2Cx SR2 Register */
1113:firmware/STM32F10x_StdPeriph_Lib_V3.3.0/Libraries/STM32F10x_StdPeriph_Driver/src/stm32f10x_i2c.c ****     I2C_FLAG = (uint32_t)(I2C_FLAG >> 16);
1114:firmware/STM32F10x_StdPeriph_Lib_V3.3.0/Libraries/STM32F10x_StdPeriph_Driver/src/stm32f10x_i2c.c ****     /* Get the I2Cx SR2 register address */
1115:firmware/STM32F10x_StdPeriph_Lib_V3.3.0/Libraries/STM32F10x_StdPeriph_Driver/src/stm32f10x_i2c.c ****     i2cxbase += 0x18;
 1165              		.loc 1 1115 0
 1166 001c 009B     		ldr	r3, [sp, #0]
1113:firmware/STM32F10x_StdPeriph_Lib_V3.3.0/Libraries/STM32F10x_StdPeriph_Driver/src/stm32f10x_i2c.c ****     I2C_FLAG = (uint32_t)(I2C_FLAG >> 16);
 1167              		.loc 1 1113 0
 1168 001e 090C     		lsrs	r1, r1, #16
 1169              	.LVL91:
 1170              		.loc 1 1115 0
 1171 0020 1833     		adds	r3, r3, #24
 1172              	.LVL92:
 1173              	.L98:
 1174 0022 0093     		str	r3, [sp, #0]
1116:firmware/STM32F10x_StdPeriph_Lib_V3.3.0/Libraries/STM32F10x_StdPeriph_Driver/src/stm32f10x_i2c.c ****   }
1117:firmware/STM32F10x_StdPeriph_Lib_V3.3.0/Libraries/STM32F10x_StdPeriph_Driver/src/stm32f10x_i2c.c ****   
1118:firmware/STM32F10x_StdPeriph_Lib_V3.3.0/Libraries/STM32F10x_StdPeriph_Driver/src/stm32f10x_i2c.c ****   if(((*(__IO uint32_t *)i2cxbase) & I2C_FLAG) != (uint32_t)RESET)
 1175              		.loc 1 1118 0
 1176 0024 009B     		ldr	r3, [sp, #0]
 1177              	.LVL93:
 1178 0026 1B68     		ldr	r3, [r3, #0]
 1179              	.LVL94:
1119:firmware/STM32F10x_StdPeriph_Lib_V3.3.0/Libraries/STM32F10x_StdPeriph_Driver/src/stm32f10x_i2c.c ****   {
1120:firmware/STM32F10x_StdPeriph_Lib_V3.3.0/Libraries/STM32F10x_StdPeriph_Driver/src/stm32f10x_i2c.c ****     /* I2C_FLAG is set */
1121:firmware/STM32F10x_StdPeriph_Lib_V3.3.0/Libraries/STM32F10x_StdPeriph_Driver/src/stm32f10x_i2c.c ****     bitstatus = SET;
 1180              		.loc 1 1121 0
 1181 0028 1942     		tst	r1, r3
1122:firmware/STM32F10x_StdPeriph_Lib_V3.3.0/Libraries/STM32F10x_StdPeriph_Driver/src/stm32f10x_i2c.c ****   }
1123:firmware/STM32F10x_StdPeriph_Lib_V3.3.0/Libraries/STM32F10x_StdPeriph_Driver/src/stm32f10x_i2c.c ****   else
1124:firmware/STM32F10x_StdPeriph_Lib_V3.3.0/Libraries/STM32F10x_StdPeriph_Driver/src/stm32f10x_i2c.c ****   {
1125:firmware/STM32F10x_StdPeriph_Lib_V3.3.0/Libraries/STM32F10x_StdPeriph_Driver/src/stm32f10x_i2c.c ****     /* I2C_FLAG is reset */
1126:firmware/STM32F10x_StdPeriph_Lib_V3.3.0/Libraries/STM32F10x_StdPeriph_Driver/src/stm32f10x_i2c.c ****     bitstatus = RESET;
1127:firmware/STM32F10x_StdPeriph_Lib_V3.3.0/Libraries/STM32F10x_StdPeriph_Driver/src/stm32f10x_i2c.c ****   }
1128:firmware/STM32F10x_StdPeriph_Lib_V3.3.0/Libraries/STM32F10x_StdPeriph_Driver/src/stm32f10x_i2c.c ****   
1129:firmware/STM32F10x_StdPeriph_Lib_V3.3.0/Libraries/STM32F10x_StdPeriph_Driver/src/stm32f10x_i2c.c ****   /* Return the I2C_FLAG status */
1130:firmware/STM32F10x_StdPeriph_Lib_V3.3.0/Libraries/STM32F10x_StdPeriph_Driver/src/stm32f10x_i2c.c ****   return  bitstatus;
1131:firmware/STM32F10x_StdPeriph_Lib_V3.3.0/Libraries/STM32F10x_StdPeriph_Driver/src/stm32f10x_i2c.c **** }
 1182              		.loc 1 1131 0
 1183 002a 0CBF     		ite	eq
 1184 002c 0020     		moveq	r0, #0
 1185 002e 0120     		movne	r0, #1
 1186              	.LVL95:
 1187 0030 02B0     		add	sp, sp, #8
 1188 0032 7047     		bx	lr
 1189              		.cfi_endproc
 1190              	.LFE57:
 1192              		.section	.text.I2C_ClearFlag,"ax",%progbits
 1193              		.align	1
 1194              		.global	I2C_ClearFlag
 1195              		.thumb
 1196              		.thumb_func
 1198              	I2C_ClearFlag:
 1199              	.LFB58:
1132:firmware/STM32F10x_StdPeriph_Lib_V3.3.0/Libraries/STM32F10x_StdPeriph_Driver/src/stm32f10x_i2c.c **** 
1133:firmware/STM32F10x_StdPeriph_Lib_V3.3.0/Libraries/STM32F10x_StdPeriph_Driver/src/stm32f10x_i2c.c **** 
1134:firmware/STM32F10x_StdPeriph_Lib_V3.3.0/Libraries/STM32F10x_StdPeriph_Driver/src/stm32f10x_i2c.c **** 
1135:firmware/STM32F10x_StdPeriph_Lib_V3.3.0/Libraries/STM32F10x_StdPeriph_Driver/src/stm32f10x_i2c.c **** /**
1136:firmware/STM32F10x_StdPeriph_Lib_V3.3.0/Libraries/STM32F10x_StdPeriph_Driver/src/stm32f10x_i2c.c ****   * @brief  Clears the I2Cx's pending flags.
1137:firmware/STM32F10x_StdPeriph_Lib_V3.3.0/Libraries/STM32F10x_StdPeriph_Driver/src/stm32f10x_i2c.c ****   * @param  I2Cx: where x can be 1 or 2 to select the I2C peripheral.
1138:firmware/STM32F10x_StdPeriph_Lib_V3.3.0/Libraries/STM32F10x_StdPeriph_Driver/src/stm32f10x_i2c.c ****   * @param  I2C_FLAG: specifies the flag to clear. 
1139:firmware/STM32F10x_StdPeriph_Lib_V3.3.0/Libraries/STM32F10x_StdPeriph_Driver/src/stm32f10x_i2c.c ****   *   This parameter can be any combination of the following values:
1140:firmware/STM32F10x_StdPeriph_Lib_V3.3.0/Libraries/STM32F10x_StdPeriph_Driver/src/stm32f10x_i2c.c ****   *     @arg I2C_FLAG_SMBALERT: SMBus Alert flag
1141:firmware/STM32F10x_StdPeriph_Lib_V3.3.0/Libraries/STM32F10x_StdPeriph_Driver/src/stm32f10x_i2c.c ****   *     @arg I2C_FLAG_TIMEOUT: Timeout or Tlow error flag
1142:firmware/STM32F10x_StdPeriph_Lib_V3.3.0/Libraries/STM32F10x_StdPeriph_Driver/src/stm32f10x_i2c.c ****   *     @arg I2C_FLAG_PECERR: PEC error in reception flag
1143:firmware/STM32F10x_StdPeriph_Lib_V3.3.0/Libraries/STM32F10x_StdPeriph_Driver/src/stm32f10x_i2c.c ****   *     @arg I2C_FLAG_OVR: Overrun/Underrun flag (Slave mode)
1144:firmware/STM32F10x_StdPeriph_Lib_V3.3.0/Libraries/STM32F10x_StdPeriph_Driver/src/stm32f10x_i2c.c ****   *     @arg I2C_FLAG_AF: Acknowledge failure flag
1145:firmware/STM32F10x_StdPeriph_Lib_V3.3.0/Libraries/STM32F10x_StdPeriph_Driver/src/stm32f10x_i2c.c ****   *     @arg I2C_FLAG_ARLO: Arbitration lost flag (Master mode)
1146:firmware/STM32F10x_StdPeriph_Lib_V3.3.0/Libraries/STM32F10x_StdPeriph_Driver/src/stm32f10x_i2c.c ****   *     @arg I2C_FLAG_BERR: Bus error flag
1147:firmware/STM32F10x_StdPeriph_Lib_V3.3.0/Libraries/STM32F10x_StdPeriph_Driver/src/stm32f10x_i2c.c ****   *   
1148:firmware/STM32F10x_StdPeriph_Lib_V3.3.0/Libraries/STM32F10x_StdPeriph_Driver/src/stm32f10x_i2c.c ****   * @note
1149:firmware/STM32F10x_StdPeriph_Lib_V3.3.0/Libraries/STM32F10x_StdPeriph_Driver/src/stm32f10x_i2c.c ****   *   - STOPF (STOP detection) is cleared by software sequence: a read operation 
1150:firmware/STM32F10x_StdPeriph_Lib_V3.3.0/Libraries/STM32F10x_StdPeriph_Driver/src/stm32f10x_i2c.c ****   *     to I2C_SR1 register (I2C_GetFlagStatus()) followed by a write operation 
1151:firmware/STM32F10x_StdPeriph_Lib_V3.3.0/Libraries/STM32F10x_StdPeriph_Driver/src/stm32f10x_i2c.c ****   *     to I2C_CR1 register (I2C_Cmd() to re-enable the I2C peripheral).
1152:firmware/STM32F10x_StdPeriph_Lib_V3.3.0/Libraries/STM32F10x_StdPeriph_Driver/src/stm32f10x_i2c.c ****   *   - ADD10 (10-bit header sent) is cleared by software sequence: a read 
1153:firmware/STM32F10x_StdPeriph_Lib_V3.3.0/Libraries/STM32F10x_StdPeriph_Driver/src/stm32f10x_i2c.c ****   *     operation to I2C_SR1 (I2C_GetFlagStatus()) followed by writing the 
1154:firmware/STM32F10x_StdPeriph_Lib_V3.3.0/Libraries/STM32F10x_StdPeriph_Driver/src/stm32f10x_i2c.c ****   *     second byte of the address in DR register.
1155:firmware/STM32F10x_StdPeriph_Lib_V3.3.0/Libraries/STM32F10x_StdPeriph_Driver/src/stm32f10x_i2c.c ****   *   - BTF (Byte Transfer Finished) is cleared by software sequence: a read 
1156:firmware/STM32F10x_StdPeriph_Lib_V3.3.0/Libraries/STM32F10x_StdPeriph_Driver/src/stm32f10x_i2c.c ****   *     operation to I2C_SR1 register (I2C_GetFlagStatus()) followed by a 
1157:firmware/STM32F10x_StdPeriph_Lib_V3.3.0/Libraries/STM32F10x_StdPeriph_Driver/src/stm32f10x_i2c.c ****   *     read/write to I2C_DR register (I2C_SendData()).
1158:firmware/STM32F10x_StdPeriph_Lib_V3.3.0/Libraries/STM32F10x_StdPeriph_Driver/src/stm32f10x_i2c.c ****   *   - ADDR (Address sent) is cleared by software sequence: a read operation to 
1159:firmware/STM32F10x_StdPeriph_Lib_V3.3.0/Libraries/STM32F10x_StdPeriph_Driver/src/stm32f10x_i2c.c ****   *     I2C_SR1 register (I2C_GetFlagStatus()) followed by a read operation to 
1160:firmware/STM32F10x_StdPeriph_Lib_V3.3.0/Libraries/STM32F10x_StdPeriph_Driver/src/stm32f10x_i2c.c ****   *     I2C_SR2 register ((void)(I2Cx->SR2)).
1161:firmware/STM32F10x_StdPeriph_Lib_V3.3.0/Libraries/STM32F10x_StdPeriph_Driver/src/stm32f10x_i2c.c ****   *   - SB (Start Bit) is cleared software sequence: a read operation to I2C_SR1
1162:firmware/STM32F10x_StdPeriph_Lib_V3.3.0/Libraries/STM32F10x_StdPeriph_Driver/src/stm32f10x_i2c.c ****   *     register (I2C_GetFlagStatus()) followed by a write operation to I2C_DR
1163:firmware/STM32F10x_StdPeriph_Lib_V3.3.0/Libraries/STM32F10x_StdPeriph_Driver/src/stm32f10x_i2c.c ****   *     register  (I2C_SendData()).
1164:firmware/STM32F10x_StdPeriph_Lib_V3.3.0/Libraries/STM32F10x_StdPeriph_Driver/src/stm32f10x_i2c.c ****   * @retval None
1165:firmware/STM32F10x_StdPeriph_Lib_V3.3.0/Libraries/STM32F10x_StdPeriph_Driver/src/stm32f10x_i2c.c ****   */
1166:firmware/STM32F10x_StdPeriph_Lib_V3.3.0/Libraries/STM32F10x_StdPeriph_Driver/src/stm32f10x_i2c.c **** void I2C_ClearFlag(I2C_TypeDef* I2Cx, uint32_t I2C_FLAG)
1167:firmware/STM32F10x_StdPeriph_Lib_V3.3.0/Libraries/STM32F10x_StdPeriph_Driver/src/stm32f10x_i2c.c **** {
 1200              		.loc 1 1167 0
 1201              		.cfi_startproc
 1202              		@ args = 0, pretend = 0, frame = 0
 1203              		@ frame_needed = 0, uses_anonymous_args = 0
 1204              		@ link register save eliminated.
 1205              	.LVL96:
1168:firmware/STM32F10x_StdPeriph_Lib_V3.3.0/Libraries/STM32F10x_StdPeriph_Driver/src/stm32f10x_i2c.c ****   uint32_t flagpos = 0;
1169:firmware/STM32F10x_StdPeriph_Lib_V3.3.0/Libraries/STM32F10x_StdPeriph_Driver/src/stm32f10x_i2c.c ****   /* Check the parameters */
1170:firmware/STM32F10x_StdPeriph_Lib_V3.3.0/Libraries/STM32F10x_StdPeriph_Driver/src/stm32f10x_i2c.c ****   assert_param(IS_I2C_ALL_PERIPH(I2Cx));
1171:firmware/STM32F10x_StdPeriph_Lib_V3.3.0/Libraries/STM32F10x_StdPeriph_Driver/src/stm32f10x_i2c.c ****   assert_param(IS_I2C_CLEAR_FLAG(I2C_FLAG));
1172:firmware/STM32F10x_StdPeriph_Lib_V3.3.0/Libraries/STM32F10x_StdPeriph_Driver/src/stm32f10x_i2c.c ****   /* Get the I2C flag position */
1173:firmware/STM32F10x_StdPeriph_Lib_V3.3.0/Libraries/STM32F10x_StdPeriph_Driver/src/stm32f10x_i2c.c ****   flagpos = I2C_FLAG & FLAG_Mask;
1174:firmware/STM32F10x_StdPeriph_Lib_V3.3.0/Libraries/STM32F10x_StdPeriph_Driver/src/stm32f10x_i2c.c ****   /* Clear the selected I2C flag */
1175:firmware/STM32F10x_StdPeriph_Lib_V3.3.0/Libraries/STM32F10x_StdPeriph_Driver/src/stm32f10x_i2c.c ****   I2Cx->SR1 = (uint16_t)~flagpos;
 1206              		.loc 1 1175 0
 1207 0000 C943     		mvns	r1, r1
 1208              	.LVL97:
 1209 0002 89B2     		uxth	r1, r1
 1210              	.LVL98:
 1211 0004 8182     		strh	r1, [r0, #20]	@ movhi
1176:firmware/STM32F10x_StdPeriph_Lib_V3.3.0/Libraries/STM32F10x_StdPeriph_Driver/src/stm32f10x_i2c.c **** }
 1212              		.loc 1 1176 0
 1213 0006 7047     		bx	lr
 1214              		.cfi_endproc
 1215              	.LFE58:
 1217              		.section	.text.I2C_GetITStatus,"ax",%progbits
 1218              		.align	1
 1219              		.global	I2C_GetITStatus
 1220              		.thumb
 1221              		.thumb_func
 1223              	I2C_GetITStatus:
 1224              	.LFB59:
1177:firmware/STM32F10x_StdPeriph_Lib_V3.3.0/Libraries/STM32F10x_StdPeriph_Driver/src/stm32f10x_i2c.c **** 
1178:firmware/STM32F10x_StdPeriph_Lib_V3.3.0/Libraries/STM32F10x_StdPeriph_Driver/src/stm32f10x_i2c.c **** /**
1179:firmware/STM32F10x_StdPeriph_Lib_V3.3.0/Libraries/STM32F10x_StdPeriph_Driver/src/stm32f10x_i2c.c ****   * @brief  Checks whether the specified I2C interrupt has occurred or not.
1180:firmware/STM32F10x_StdPeriph_Lib_V3.3.0/Libraries/STM32F10x_StdPeriph_Driver/src/stm32f10x_i2c.c ****   * @param  I2Cx: where x can be 1 or 2 to select the I2C peripheral.
1181:firmware/STM32F10x_StdPeriph_Lib_V3.3.0/Libraries/STM32F10x_StdPeriph_Driver/src/stm32f10x_i2c.c ****   * @param  I2C_IT: specifies the interrupt source to check. 
1182:firmware/STM32F10x_StdPeriph_Lib_V3.3.0/Libraries/STM32F10x_StdPeriph_Driver/src/stm32f10x_i2c.c ****   *   This parameter can be one of the following values:
1183:firmware/STM32F10x_StdPeriph_Lib_V3.3.0/Libraries/STM32F10x_StdPeriph_Driver/src/stm32f10x_i2c.c ****   *     @arg I2C_IT_SMBALERT: SMBus Alert flag
1184:firmware/STM32F10x_StdPeriph_Lib_V3.3.0/Libraries/STM32F10x_StdPeriph_Driver/src/stm32f10x_i2c.c ****   *     @arg I2C_IT_TIMEOUT: Timeout or Tlow error flag
1185:firmware/STM32F10x_StdPeriph_Lib_V3.3.0/Libraries/STM32F10x_StdPeriph_Driver/src/stm32f10x_i2c.c ****   *     @arg I2C_IT_PECERR: PEC error in reception flag
1186:firmware/STM32F10x_StdPeriph_Lib_V3.3.0/Libraries/STM32F10x_StdPeriph_Driver/src/stm32f10x_i2c.c ****   *     @arg I2C_IT_OVR: Overrun/Underrun flag (Slave mode)
1187:firmware/STM32F10x_StdPeriph_Lib_V3.3.0/Libraries/STM32F10x_StdPeriph_Driver/src/stm32f10x_i2c.c ****   *     @arg I2C_IT_AF: Acknowledge failure flag
1188:firmware/STM32F10x_StdPeriph_Lib_V3.3.0/Libraries/STM32F10x_StdPeriph_Driver/src/stm32f10x_i2c.c ****   *     @arg I2C_IT_ARLO: Arbitration lost flag (Master mode)
1189:firmware/STM32F10x_StdPeriph_Lib_V3.3.0/Libraries/STM32F10x_StdPeriph_Driver/src/stm32f10x_i2c.c ****   *     @arg I2C_IT_BERR: Bus error flag
1190:firmware/STM32F10x_StdPeriph_Lib_V3.3.0/Libraries/STM32F10x_StdPeriph_Driver/src/stm32f10x_i2c.c ****   *     @arg I2C_IT_TXE: Data register empty flag (Transmitter)
1191:firmware/STM32F10x_StdPeriph_Lib_V3.3.0/Libraries/STM32F10x_StdPeriph_Driver/src/stm32f10x_i2c.c ****   *     @arg I2C_IT_RXNE: Data register not empty (Receiver) flag
1192:firmware/STM32F10x_StdPeriph_Lib_V3.3.0/Libraries/STM32F10x_StdPeriph_Driver/src/stm32f10x_i2c.c ****   *     @arg I2C_IT_STOPF: Stop detection flag (Slave mode)
1193:firmware/STM32F10x_StdPeriph_Lib_V3.3.0/Libraries/STM32F10x_StdPeriph_Driver/src/stm32f10x_i2c.c ****   *     @arg I2C_IT_ADD10: 10-bit header sent flag (Master mode)
1194:firmware/STM32F10x_StdPeriph_Lib_V3.3.0/Libraries/STM32F10x_StdPeriph_Driver/src/stm32f10x_i2c.c ****   *     @arg I2C_IT_BTF: Byte transfer finished flag
1195:firmware/STM32F10x_StdPeriph_Lib_V3.3.0/Libraries/STM32F10x_StdPeriph_Driver/src/stm32f10x_i2c.c ****   *     @arg I2C_IT_ADDR: Address sent flag (Master mode) ADSL
1196:firmware/STM32F10x_StdPeriph_Lib_V3.3.0/Libraries/STM32F10x_StdPeriph_Driver/src/stm32f10x_i2c.c ****   *                       Address matched flag (Slave mode)ENDAD
1197:firmware/STM32F10x_StdPeriph_Lib_V3.3.0/Libraries/STM32F10x_StdPeriph_Driver/src/stm32f10x_i2c.c ****   *     @arg I2C_IT_SB: Start bit flag (Master mode)
1198:firmware/STM32F10x_StdPeriph_Lib_V3.3.0/Libraries/STM32F10x_StdPeriph_Driver/src/stm32f10x_i2c.c ****   * @retval The new state of I2C_IT (SET or RESET).
1199:firmware/STM32F10x_StdPeriph_Lib_V3.3.0/Libraries/STM32F10x_StdPeriph_Driver/src/stm32f10x_i2c.c ****   */
1200:firmware/STM32F10x_StdPeriph_Lib_V3.3.0/Libraries/STM32F10x_StdPeriph_Driver/src/stm32f10x_i2c.c **** ITStatus I2C_GetITStatus(I2C_TypeDef* I2Cx, uint32_t I2C_IT)
1201:firmware/STM32F10x_StdPeriph_Lib_V3.3.0/Libraries/STM32F10x_StdPeriph_Driver/src/stm32f10x_i2c.c **** {
 1225              		.loc 1 1201 0
 1226              		.cfi_startproc
 1227              		@ args = 0, pretend = 0, frame = 0
 1228              		@ frame_needed = 0, uses_anonymous_args = 0
 1229              		@ link register save eliminated.
 1230              	.LVL99:
1202:firmware/STM32F10x_StdPeriph_Lib_V3.3.0/Libraries/STM32F10x_StdPeriph_Driver/src/stm32f10x_i2c.c ****   ITStatus bitstatus = RESET;
1203:firmware/STM32F10x_StdPeriph_Lib_V3.3.0/Libraries/STM32F10x_StdPeriph_Driver/src/stm32f10x_i2c.c ****   uint32_t enablestatus = 0;
1204:firmware/STM32F10x_StdPeriph_Lib_V3.3.0/Libraries/STM32F10x_StdPeriph_Driver/src/stm32f10x_i2c.c **** 
1205:firmware/STM32F10x_StdPeriph_Lib_V3.3.0/Libraries/STM32F10x_StdPeriph_Driver/src/stm32f10x_i2c.c ****   /* Check the parameters */
1206:firmware/STM32F10x_StdPeriph_Lib_V3.3.0/Libraries/STM32F10x_StdPeriph_Driver/src/stm32f10x_i2c.c ****   assert_param(IS_I2C_ALL_PERIPH(I2Cx));
1207:firmware/STM32F10x_StdPeriph_Lib_V3.3.0/Libraries/STM32F10x_StdPeriph_Driver/src/stm32f10x_i2c.c ****   assert_param(IS_I2C_GET_IT(I2C_IT));
1208:firmware/STM32F10x_StdPeriph_Lib_V3.3.0/Libraries/STM32F10x_StdPeriph_Driver/src/stm32f10x_i2c.c **** 
1209:firmware/STM32F10x_StdPeriph_Lib_V3.3.0/Libraries/STM32F10x_StdPeriph_Driver/src/stm32f10x_i2c.c ****   /* Check if the interrupt source is enabled or not */
1210:firmware/STM32F10x_StdPeriph_Lib_V3.3.0/Libraries/STM32F10x_StdPeriph_Driver/src/stm32f10x_i2c.c ****   enablestatus = (uint32_t)(((I2C_IT & ITEN_Mask) >> 16) & (I2Cx->CR2)) ;
 1231              		.loc 1 1210 0
 1232 0000 8388     		ldrh	r3, [r0, #4]
1211:firmware/STM32F10x_StdPeriph_Lib_V3.3.0/Libraries/STM32F10x_StdPeriph_Driver/src/stm32f10x_i2c.c ****   
1212:firmware/STM32F10x_StdPeriph_Lib_V3.3.0/Libraries/STM32F10x_StdPeriph_Driver/src/stm32f10x_i2c.c ****   /* Get bit[23:0] of the flag */
1213:firmware/STM32F10x_StdPeriph_Lib_V3.3.0/Libraries/STM32F10x_StdPeriph_Driver/src/stm32f10x_i2c.c ****   I2C_IT &= FLAG_Mask;
1214:firmware/STM32F10x_StdPeriph_Lib_V3.3.0/Libraries/STM32F10x_StdPeriph_Driver/src/stm32f10x_i2c.c **** 
1215:firmware/STM32F10x_StdPeriph_Lib_V3.3.0/Libraries/STM32F10x_StdPeriph_Driver/src/stm32f10x_i2c.c ****   /* Check the status of the specified I2C flag */
1216:firmware/STM32F10x_StdPeriph_Lib_V3.3.0/Libraries/STM32F10x_StdPeriph_Driver/src/stm32f10x_i2c.c ****   if (((I2Cx->SR1 & I2C_IT) != (uint32_t)RESET) && enablestatus)
 1233              		.loc 1 1216 0
 1234 0002 808A     		ldrh	r0, [r0, #20]
 1235              	.LVL100:
1210:firmware/STM32F10x_StdPeriph_Lib_V3.3.0/Libraries/STM32F10x_StdPeriph_Driver/src/stm32f10x_i2c.c ****   enablestatus = (uint32_t)(((I2C_IT & ITEN_Mask) >> 16) & (I2Cx->CR2)) ;
 1236              		.loc 1 1210 0
 1237 0004 9BB2     		uxth	r3, r3
 1238              	.LVL101:
1213:firmware/STM32F10x_StdPeriph_Lib_V3.3.0/Libraries/STM32F10x_StdPeriph_Driver/src/stm32f10x_i2c.c ****   I2C_IT &= FLAG_Mask;
 1239              		.loc 1 1213 0
 1240 0006 80B2     		uxth	r0, r0
 1241              		.loc 1 1216 0
 1242 0008 0840     		ands	r0, r0, r1
 1243 000a 06D0     		beq	.L101
1210:firmware/STM32F10x_StdPeriph_Lib_V3.3.0/Libraries/STM32F10x_StdPeriph_Driver/src/stm32f10x_i2c.c ****   enablestatus = (uint32_t)(((I2C_IT & ITEN_Mask) >> 16) & (I2Cx->CR2)) ;
 1244              		.loc 1 1210 0 discriminator 1
 1245 000c 01F0E061 		and	r1, r1, #117440512
 1246              	.LVL102:
1200:firmware/STM32F10x_StdPeriph_Lib_V3.3.0/Libraries/STM32F10x_StdPeriph_Driver/src/stm32f10x_i2c.c **** ITStatus I2C_GetITStatus(I2C_TypeDef* I2Cx, uint32_t I2C_IT)
 1247              		.loc 1 1200 0 discriminator 1
 1248 0010 13EA1141 		ands	r1, r3, r1, lsr #16
 1249              	.LVL103:
1217:firmware/STM32F10x_StdPeriph_Lib_V3.3.0/Libraries/STM32F10x_StdPeriph_Driver/src/stm32f10x_i2c.c ****   {
1218:firmware/STM32F10x_StdPeriph_Lib_V3.3.0/Libraries/STM32F10x_StdPeriph_Driver/src/stm32f10x_i2c.c ****     /* I2C_IT is set */
1219:firmware/STM32F10x_StdPeriph_Lib_V3.3.0/Libraries/STM32F10x_StdPeriph_Driver/src/stm32f10x_i2c.c ****     bitstatus = SET;
 1250              		.loc 1 1219 0 discriminator 1
 1251 0014 0CBF     		ite	eq
 1252 0016 0020     		moveq	r0, #0
 1253 0018 0120     		movne	r0, #1
 1254              	.L101:
 1255              	.LVL104:
1220:firmware/STM32F10x_StdPeriph_Lib_V3.3.0/Libraries/STM32F10x_StdPeriph_Driver/src/stm32f10x_i2c.c ****   }
1221:firmware/STM32F10x_StdPeriph_Lib_V3.3.0/Libraries/STM32F10x_StdPeriph_Driver/src/stm32f10x_i2c.c ****   else
1222:firmware/STM32F10x_StdPeriph_Lib_V3.3.0/Libraries/STM32F10x_StdPeriph_Driver/src/stm32f10x_i2c.c ****   {
1223:firmware/STM32F10x_StdPeriph_Lib_V3.3.0/Libraries/STM32F10x_StdPeriph_Driver/src/stm32f10x_i2c.c ****     /* I2C_IT is reset */
1224:firmware/STM32F10x_StdPeriph_Lib_V3.3.0/Libraries/STM32F10x_StdPeriph_Driver/src/stm32f10x_i2c.c ****     bitstatus = RESET;
1225:firmware/STM32F10x_StdPeriph_Lib_V3.3.0/Libraries/STM32F10x_StdPeriph_Driver/src/stm32f10x_i2c.c ****   }
1226:firmware/STM32F10x_StdPeriph_Lib_V3.3.0/Libraries/STM32F10x_StdPeriph_Driver/src/stm32f10x_i2c.c ****   /* Return the I2C_IT status */
1227:firmware/STM32F10x_StdPeriph_Lib_V3.3.0/Libraries/STM32F10x_StdPeriph_Driver/src/stm32f10x_i2c.c ****   return  bitstatus;
1228:firmware/STM32F10x_StdPeriph_Lib_V3.3.0/Libraries/STM32F10x_StdPeriph_Driver/src/stm32f10x_i2c.c **** }
 1256              		.loc 1 1228 0
 1257 001a 7047     		bx	lr
 1258              		.cfi_endproc
 1259              	.LFE59:
 1261              		.section	.text.I2C_ClearITPendingBit,"ax",%progbits
 1262              		.align	1
 1263              		.global	I2C_ClearITPendingBit
 1264              		.thumb
 1265              		.thumb_func
 1267              	I2C_ClearITPendingBit:
 1268              	.LFB60:
1229:firmware/STM32F10x_StdPeriph_Lib_V3.3.0/Libraries/STM32F10x_StdPeriph_Driver/src/stm32f10x_i2c.c **** 
1230:firmware/STM32F10x_StdPeriph_Lib_V3.3.0/Libraries/STM32F10x_StdPeriph_Driver/src/stm32f10x_i2c.c **** /**
1231:firmware/STM32F10x_StdPeriph_Lib_V3.3.0/Libraries/STM32F10x_StdPeriph_Driver/src/stm32f10x_i2c.c ****   * @brief  Clears the I2Cxs interrupt pending bits.
1232:firmware/STM32F10x_StdPeriph_Lib_V3.3.0/Libraries/STM32F10x_StdPeriph_Driver/src/stm32f10x_i2c.c ****   * @param  I2Cx: where x can be 1 or 2 to select the I2C peripheral.
1233:firmware/STM32F10x_StdPeriph_Lib_V3.3.0/Libraries/STM32F10x_StdPeriph_Driver/src/stm32f10x_i2c.c ****   * @param  I2C_IT: specifies the interrupt pending bit to clear. 
1234:firmware/STM32F10x_StdPeriph_Lib_V3.3.0/Libraries/STM32F10x_StdPeriph_Driver/src/stm32f10x_i2c.c ****   *   This parameter can be any combination of the following values:
1235:firmware/STM32F10x_StdPeriph_Lib_V3.3.0/Libraries/STM32F10x_StdPeriph_Driver/src/stm32f10x_i2c.c ****   *     @arg I2C_IT_SMBALERT: SMBus Alert interrupt
1236:firmware/STM32F10x_StdPeriph_Lib_V3.3.0/Libraries/STM32F10x_StdPeriph_Driver/src/stm32f10x_i2c.c ****   *     @arg I2C_IT_TIMEOUT: Timeout or Tlow error interrupt
1237:firmware/STM32F10x_StdPeriph_Lib_V3.3.0/Libraries/STM32F10x_StdPeriph_Driver/src/stm32f10x_i2c.c ****   *     @arg I2C_IT_PECERR: PEC error in reception  interrupt
1238:firmware/STM32F10x_StdPeriph_Lib_V3.3.0/Libraries/STM32F10x_StdPeriph_Driver/src/stm32f10x_i2c.c ****   *     @arg I2C_IT_OVR: Overrun/Underrun interrupt (Slave mode)
1239:firmware/STM32F10x_StdPeriph_Lib_V3.3.0/Libraries/STM32F10x_StdPeriph_Driver/src/stm32f10x_i2c.c ****   *     @arg I2C_IT_AF: Acknowledge failure interrupt
1240:firmware/STM32F10x_StdPeriph_Lib_V3.3.0/Libraries/STM32F10x_StdPeriph_Driver/src/stm32f10x_i2c.c ****   *     @arg I2C_IT_ARLO: Arbitration lost interrupt (Master mode)
1241:firmware/STM32F10x_StdPeriph_Lib_V3.3.0/Libraries/STM32F10x_StdPeriph_Driver/src/stm32f10x_i2c.c ****   *     @arg I2C_IT_BERR: Bus error interrupt
1242:firmware/STM32F10x_StdPeriph_Lib_V3.3.0/Libraries/STM32F10x_StdPeriph_Driver/src/stm32f10x_i2c.c ****   *   
1243:firmware/STM32F10x_StdPeriph_Lib_V3.3.0/Libraries/STM32F10x_StdPeriph_Driver/src/stm32f10x_i2c.c ****   * @note
1244:firmware/STM32F10x_StdPeriph_Lib_V3.3.0/Libraries/STM32F10x_StdPeriph_Driver/src/stm32f10x_i2c.c ****   *   - STOPF (STOP detection) is cleared by software sequence: a read operation 
1245:firmware/STM32F10x_StdPeriph_Lib_V3.3.0/Libraries/STM32F10x_StdPeriph_Driver/src/stm32f10x_i2c.c ****   *     to I2C_SR1 register (I2C_GetITStatus()) followed by a write operation to 
1246:firmware/STM32F10x_StdPeriph_Lib_V3.3.0/Libraries/STM32F10x_StdPeriph_Driver/src/stm32f10x_i2c.c ****   *     I2C_CR1 register (I2C_Cmd() to re-enable the I2C peripheral).
1247:firmware/STM32F10x_StdPeriph_Lib_V3.3.0/Libraries/STM32F10x_StdPeriph_Driver/src/stm32f10x_i2c.c ****   *   - ADD10 (10-bit header sent) is cleared by software sequence: a read 
1248:firmware/STM32F10x_StdPeriph_Lib_V3.3.0/Libraries/STM32F10x_StdPeriph_Driver/src/stm32f10x_i2c.c ****   *     operation to I2C_SR1 (I2C_GetITStatus()) followed by writing the second 
1249:firmware/STM32F10x_StdPeriph_Lib_V3.3.0/Libraries/STM32F10x_StdPeriph_Driver/src/stm32f10x_i2c.c ****   *     byte of the address in I2C_DR register.
1250:firmware/STM32F10x_StdPeriph_Lib_V3.3.0/Libraries/STM32F10x_StdPeriph_Driver/src/stm32f10x_i2c.c ****   *   - BTF (Byte Transfer Finished) is cleared by software sequence: a read 
1251:firmware/STM32F10x_StdPeriph_Lib_V3.3.0/Libraries/STM32F10x_StdPeriph_Driver/src/stm32f10x_i2c.c ****   *     operation to I2C_SR1 register (I2C_GetITStatus()) followed by a 
1252:firmware/STM32F10x_StdPeriph_Lib_V3.3.0/Libraries/STM32F10x_StdPeriph_Driver/src/stm32f10x_i2c.c ****   *     read/write to I2C_DR register (I2C_SendData()).
1253:firmware/STM32F10x_StdPeriph_Lib_V3.3.0/Libraries/STM32F10x_StdPeriph_Driver/src/stm32f10x_i2c.c ****   *   - ADDR (Address sent) is cleared by software sequence: a read operation to 
1254:firmware/STM32F10x_StdPeriph_Lib_V3.3.0/Libraries/STM32F10x_StdPeriph_Driver/src/stm32f10x_i2c.c ****   *     I2C_SR1 register (I2C_GetITStatus()) followed by a read operation to 
1255:firmware/STM32F10x_StdPeriph_Lib_V3.3.0/Libraries/STM32F10x_StdPeriph_Driver/src/stm32f10x_i2c.c ****   *     I2C_SR2 register ((void)(I2Cx->SR2)).
1256:firmware/STM32F10x_StdPeriph_Lib_V3.3.0/Libraries/STM32F10x_StdPeriph_Driver/src/stm32f10x_i2c.c ****   *   - SB (Start Bit) is cleared by software sequence: a read operation to 
1257:firmware/STM32F10x_StdPeriph_Lib_V3.3.0/Libraries/STM32F10x_StdPeriph_Driver/src/stm32f10x_i2c.c ****   *     I2C_SR1 register (I2C_GetITStatus()) followed by a write operation to 
1258:firmware/STM32F10x_StdPeriph_Lib_V3.3.0/Libraries/STM32F10x_StdPeriph_Driver/src/stm32f10x_i2c.c ****   *     I2C_DR register (I2C_SendData()).
1259:firmware/STM32F10x_StdPeriph_Lib_V3.3.0/Libraries/STM32F10x_StdPeriph_Driver/src/stm32f10x_i2c.c ****   * @retval None
1260:firmware/STM32F10x_StdPeriph_Lib_V3.3.0/Libraries/STM32F10x_StdPeriph_Driver/src/stm32f10x_i2c.c ****   */
1261:firmware/STM32F10x_StdPeriph_Lib_V3.3.0/Libraries/STM32F10x_StdPeriph_Driver/src/stm32f10x_i2c.c **** void I2C_ClearITPendingBit(I2C_TypeDef* I2Cx, uint32_t I2C_IT)
1262:firmware/STM32F10x_StdPeriph_Lib_V3.3.0/Libraries/STM32F10x_StdPeriph_Driver/src/stm32f10x_i2c.c **** {
 1269              		.loc 1 1262 0
 1270              		.cfi_startproc
 1271              		@ args = 0, pretend = 0, frame = 0
 1272              		@ frame_needed = 0, uses_anonymous_args = 0
 1273              		@ link register save eliminated.
 1274              	.LVL105:
1263:firmware/STM32F10x_StdPeriph_Lib_V3.3.0/Libraries/STM32F10x_StdPeriph_Driver/src/stm32f10x_i2c.c ****   uint32_t flagpos = 0;
1264:firmware/STM32F10x_StdPeriph_Lib_V3.3.0/Libraries/STM32F10x_StdPeriph_Driver/src/stm32f10x_i2c.c ****   /* Check the parameters */
1265:firmware/STM32F10x_StdPeriph_Lib_V3.3.0/Libraries/STM32F10x_StdPeriph_Driver/src/stm32f10x_i2c.c ****   assert_param(IS_I2C_ALL_PERIPH(I2Cx));
1266:firmware/STM32F10x_StdPeriph_Lib_V3.3.0/Libraries/STM32F10x_StdPeriph_Driver/src/stm32f10x_i2c.c ****   assert_param(IS_I2C_CLEAR_IT(I2C_IT));
1267:firmware/STM32F10x_StdPeriph_Lib_V3.3.0/Libraries/STM32F10x_StdPeriph_Driver/src/stm32f10x_i2c.c ****   /* Get the I2C flag position */
1268:firmware/STM32F10x_StdPeriph_Lib_V3.3.0/Libraries/STM32F10x_StdPeriph_Driver/src/stm32f10x_i2c.c ****   flagpos = I2C_IT & FLAG_Mask;
1269:firmware/STM32F10x_StdPeriph_Lib_V3.3.0/Libraries/STM32F10x_StdPeriph_Driver/src/stm32f10x_i2c.c ****   /* Clear the selected I2C flag */
1270:firmware/STM32F10x_StdPeriph_Lib_V3.3.0/Libraries/STM32F10x_StdPeriph_Driver/src/stm32f10x_i2c.c ****   I2Cx->SR1 = (uint16_t)~flagpos;
 1275              		.loc 1 1270 0
 1276 0000 C943     		mvns	r1, r1
 1277              	.LVL106:
 1278 0002 89B2     		uxth	r1, r1
 1279              	.LVL107:
 1280 0004 8182     		strh	r1, [r0, #20]	@ movhi
1271:firmware/STM32F10x_StdPeriph_Lib_V3.3.0/Libraries/STM32F10x_StdPeriph_Driver/src/stm32f10x_i2c.c **** }
 1281              		.loc 1 1271 0
 1282 0006 7047     		bx	lr
 1283              		.cfi_endproc
 1284              	.LFE60:
 1286              		.text
 1287              	.Letext0: